Archive member included to satisfy reference by file (symbol)

e:/Workspace/resistance_band/reistance_band_v0_1/SRC/StdPeriphDriver\libISP573.a(ISP573.o)
                              ./StdPeriphDriver/CH57x_flash.o (FLASH_EEPROM_CMD)
e:/Workspace/resistance_band/reistance_band_v0_1/resistance_band/LIB\libCH57xBLE.a(message.o)
                              ./HAL/MCU.o (tmos_msg_deallocate)
e:/Workspace/resistance_band/reistance_band_v0_1/resistance_band/LIB\libCH57xBLE.a(tmos.o)
                              ./Profile/battservice.o (tmos_memcpy)
e:/Workspace/resistance_band/reistance_band_v0_1/resistance_band/LIB\libCH57xBLE.a(tmos_hw.o)
                              e:/Workspace/resistance_band/reistance_band_v0_1/resistance_band/LIB\libCH57xBLE.a(tmos.o) (RTC_Get32KClock)
e:/Workspace/resistance_band/reistance_band_v0_1/resistance_band/LIB\libCH57xBLE.a(tmos_snv.o)
                              e:/Workspace/resistance_band/reistance_band_v0_1/resistance_band/LIB\libCH57xBLE.a(tmos.o) (tmos_snv_init)
e:/Workspace/resistance_band/reistance_band_v0_1/resistance_band/LIB\libCH57xBLE.a(gap.o)
                              ./APP/resband.o (GAP_GetParamValue)
e:/Workspace/resistance_band/reistance_band_v0_1/resistance_band/LIB\libCH57xBLE.a(gap_central.o)
                              e:/Workspace/resistance_band/reistance_band_v0_1/resistance_band/LIB\libCH57xBLE.a(gap.o) (GAP_CentralParamInit)
e:/Workspace/resistance_band/reistance_band_v0_1/resistance_band/LIB\libCH57xBLE.a(gap_peripheral.o)
                              e:/Workspace/resistance_band/reistance_band_v0_1/resistance_band/LIB\libCH57xBLE.a(gap.o) (GAP_PeripheralParamInit)
e:/Workspace/resistance_band/reistance_band_v0_1/resistance_band/LIB\libCH57xBLE.a(gapgattserver.o)
                              ./APP/resband.o (GGS_SetParameter)
e:/Workspace/resistance_band/reistance_band_v0_1/resistance_band/LIB\libCH57xBLE.a(gatt.o)
                              ./Profile/battservice.o (GATT_bm_alloc)
e:/Workspace/resistance_band/reistance_band_v0_1/resistance_band/LIB\libCH57xBLE.a(gatt_uuid.o)
                              ./Profile/battservice.o (reportRefUUID)
e:/Workspace/resistance_band/reistance_band_v0_1/resistance_band/LIB\libCH57xBLE.a(gattclientapp.o)
                              e:/Workspace/resistance_band/reistance_band_v0_1/resistance_band/LIB\libCH57xBLE.a(gatt.o) (gattGetClientStatus)
e:/Workspace/resistance_band/reistance_band_v0_1/resistance_band/LIB\libCH57xBLE.a(gattservapp.o)
                              ./Profile/battservice.o (GATTServApp_ReadCharCfg)
e:/Workspace/resistance_band/reistance_band_v0_1/resistance_band/LIB\libCH57xBLE.a(l2cap.o)
                              e:/Workspace/resistance_band/reistance_band_v0_1/resistance_band/LIB\libCH57xBLE.a(gatt.o) (L2CAP_GetMTU)
e:/Workspace/resistance_band/reistance_band_v0_1/resistance_band/LIB\libCH57xBLE.a(l2cap_input.o)
                              e:/Workspace/resistance_band/reistance_band_v0_1/resistance_band/LIB\libCH57xBLE.a(l2cap.o) (l2capProcessRxData)
e:/Workspace/resistance_band/reistance_band_v0_1/resistance_band/LIB\libCH57xBLE.a(l2cap_output.o)
                              e:/Workspace/resistance_band/reistance_band_v0_1/resistance_band/LIB\libCH57xBLE.a(l2cap_input.o) (l2capNotifyData)
e:/Workspace/resistance_band/reistance_band_v0_1/resistance_band/LIB\libCH57xBLE.a(l2cap_sdu.o)
                              e:/Workspace/resistance_band/reistance_band_v0_1/resistance_band/LIB\libCH57xBLE.a(l2cap_input.o) (l2capBuildDisconnectRsp)
e:/Workspace/resistance_band/reistance_band_v0_1/resistance_band/LIB\libCH57xBLE.a(linkdb.o)
                              e:/Workspace/resistance_band/reistance_band_v0_1/resistance_band/LIB\libCH57xBLE.a(l2cap.o) (linkDB_Init)
e:/Workspace/resistance_band/reistance_band_v0_1/resistance_band/LIB\libCH57xBLE.a(sm.o)
                              e:/Workspace/resistance_band/reistance_band_v0_1/resistance_band/LIB\libCH57xBLE.a(gap.o) (smStartEncryption)
e:/Workspace/resistance_band/reistance_band_v0_1/resistance_band/LIB\libCH57xBLE.a(host_input.o)
                              e:/Workspace/resistance_band/reistance_band_v0_1/resistance_band/LIB\libCH57xBLE.a(gap.o) (gBleHostPara)
e:/Workspace/resistance_band/reistance_band_v0_1/resistance_band/LIB\libCH57xBLE.a(host_output.o)
                              e:/Workspace/resistance_band/reistance_band_v0_1/resistance_band/LIB\libCH57xBLE.a(gap.o) (HCI_DisconnectCmd)
e:/Workspace/resistance_band/reistance_band_v0_1/resistance_band/LIB\libCH57xBLE.a(ll_connect.o)
                              e:/Workspace/resistance_band/reistance_band_v0_1/resistance_band/LIB\libCH57xBLE.a(tmos.o) (LL_GetNextConnectEventTime)
e:/Workspace/resistance_band/reistance_band_v0_1/resistance_band/LIB\libCH57xBLE.a(ll_core.o)
                              e:/Workspace/resistance_band/reistance_band_v0_1/resistance_band/LIB\libCH57xBLE.a(ll_connect.o) (LL_CoreGetCore)
e:/Workspace/resistance_band/reistance_band_v0_1/resistance_band/LIB\libCH57xBLE.a(ll_hop.o)
                              e:/Workspace/resistance_band/reistance_band_v0_1/resistance_band/LIB\libCH57xBLE.a(ll_connect.o) (LL_HopGetChannel)
e:/Workspace/resistance_band/reistance_band_v0_1/resistance_band/LIB\libCH57xBLE.a(ll_master.o)
                              e:/Workspace/resistance_band/reistance_band_v0_1/resistance_band/LIB\libCH57xBLE.a(gap_central.o) (LL_SetDataSendPriority)
e:/Workspace/resistance_band/reistance_band_v0_1/resistance_band/LIB\libCH57xBLE.a(ll_pdu.o)
                              e:/Workspace/resistance_band/reistance_band_v0_1/resistance_band/LIB\libCH57xBLE.a(ll_master.o) (LL_ConnectionUpdateReq)
e:/Workspace/resistance_band/reistance_band_v0_1/resistance_band/LIB\libCH57xBLE.a(ll_report.o)
                              e:/Workspace/resistance_band/reistance_band_v0_1/resistance_band/LIB\libCH57xBLE.a(ll_connect.o) (LL_ReportGenerateEvent)
e:/Workspace/resistance_band/reistance_band_v0_1/resistance_band/LIB\libCH57xBLE.a(ll_scan.o)
                              e:/Workspace/resistance_band/reistance_band_v0_1/resistance_band/LIB\libCH57xBLE.a(ll_master.o) (LL_ScanEnable)
e:/Workspace/resistance_band/reistance_band_v0_1/resistance_band/LIB\libCH57xBLE.a(ll_slave.o)
                              e:/Workspace/resistance_band/reistance_band_v0_1/resistance_band/LIB\libCH57xBLE.a(ll_connect.o) (ll_hw_timer_slave_recv_timeout)
e:/Workspace/resistance_band/reistance_band_v0_1/resistance_band/LIB\libCH57xBLE.a(ll_whitelist.o)
                              e:/Workspace/resistance_band/reistance_band_v0_1/resistance_band/LIB\libCH57xBLE.a(ll_scan.o) (LL_WhitelistLookup)
e:/Workspace/resistance_band/reistance_band_v0_1/resistance_band/LIB\libCH57xBLE.a(aes.o)
                              e:/Workspace/resistance_band/reistance_band_v0_1/resistance_band/LIB\libCH57xBLE.a(sm.o) (LL_Encrypt)
e:/Workspace/resistance_band/reistance_band_v0_1/resistance_band/LIB\libCH57xBLE.a(bb.o)
                              e:/Workspace/resistance_band/reistance_band_v0_1/resistance_band/LIB\libCH57xBLE.a(tmos.o) (BB_DevInit)
e:/Workspace/resistance_band/reistance_band_v0_1/resistance_band/LIB\libCH57xBLE.a(dma.o)
                              e:/Workspace/resistance_band/reistance_band_v0_1/resistance_band/LIB\libCH57xBLE.a(tmos.o) (DMA_DevInit)
e:/Workspace/resistance_band/reistance_band_v0_1/resistance_band/LIB\libCH57xBLE.a(ip.o)
                              e:/Workspace/resistance_band/reistance_band_v0_1/resistance_band/LIB\libCH57xBLE.a(ll_master.o) (ll_tx_wait_finish)
e:/Workspace/resistance_band/reistance_band_v0_1/resistance_band/LIB\libCH57xBLE.a(lle.o)
                              e:/Workspace/resistance_band/reistance_band_v0_1/resistance_band/LIB\libCH57xBLE.a(tmos.o) (LLE_DevInit)
e:/Workspace/resistance_band/reistance_band_v0_1/resistance_band/LIB\libCH57xBLE.a(rf_fh.o)
                              e:/Workspace/resistance_band/reistance_band_v0_1/resistance_band/LIB\libCH57xBLE.a(tmos.o) (RF_FrequencyHoppingChange)
e:/Workspace/resistance_band/reistance_band_v0_1/resistance_band/LIB\libCH57xBLE.a(rfend.o)
                              e:/Workspace/resistance_band/reistance_band_v0_1/resistance_band/LIB\libCH57xBLE.a(ip.o) (RFEND_DevInit)
e:/Workspace/resistance_band/reistance_band_v0_1/resistance_band/LIB\libCH57xBLE.a(api_c.o)
                              e:/Workspace/resistance_band/reistance_band_v0_1/resistance_band/LIB\libCH57xBLE.a(host_output.o) (API_DisconnectCmd)
e:/Workspace/resistance_band/reistance_band_v0_1/resistance_band/LIB\libCH57xBLE.a(ctl_input.o)
                              e:/Workspace/resistance_band/reistance_band_v0_1/resistance_band/LIB\libCH57xBLE.a(api_c.o) (LL_ReceiverTest)
e:/Workspace/resistance_band/reistance_band_v0_1/resistance_band/LIB\libCH57xBLE.a(ctl_output.o)
                              e:/Workspace/resistance_band/reistance_band_v0_1/resistance_band/LIB\libCH57xBLE.a(api_c.o) (HCI_SetEventMask)
e:/Workspace/resistance_band/reistance_band_v0_1/resistance_band/LIB\libCH57xBLE.a(gapbondmgr.o)
                              e:/Workspace/resistance_band/reistance_band_v0_1/resistance_band/LIB\libCH57xBLE.a(gap_central.o) (GAPBondMgr_GetParameter)
e:/Workspace/resistance_band/reistance_band_v0_1/resistance_band/LIB\libCH57xBLE.a(peripheral.o)
                              ./APP/resband.o (GAPRole_PeripheralConnParamUpdateReq)
e:/Workspace/resistance_band/reistance_band_v0_1/resistance_band/LIB\libCH57xBLE.a(role.o)
                              e:/Workspace/resistance_band/reistance_band_v0_1/resistance_band/LIB\libCH57xBLE.a(gap.o) (GAPRole_ParamInit)
e:/Workspace/resistance_band/reistance_band_v0_1/resistance_band/LIB\libCH57xBLE.a(memory.o)
                              e:/Workspace/resistance_band/reistance_band_v0_1/resistance_band/LIB\libCH57xBLE.a(tmos.o) (tmos_memory_init)
e:/Workspace/resistance_band/reistance_band_v0_1/resistance_band/LIB\libCH57xBLE.a(att.o)
                              e:/Workspace/resistance_band/reistance_band_v0_1/resistance_band/LIB\libCH57xBLE.a(gatt.o) (ATT_ParamInit)
e:/Workspace/resistance_band/reistance_band_v0_1/resistance_band/LIB\libCH57xBLE.a(att_client.o)
                              e:/Workspace/resistance_band/reistance_band_v0_1/resistance_band/LIB\libCH57xBLE.a(gatt.o) (ATT_ParseExchangeMTURsp)
e:/Workspace/resistance_band/reistance_band_v0_1/resistance_band/LIB\libCH57xBLE.a(att_server.o)
                              e:/Workspace/resistance_band/reistance_band_v0_1/resistance_band/LIB\libCH57xBLE.a(gattservapp.o) (ATT_ParseExchangeMTUReq)
e:/Workspace/resistance_band/reistance_band_v0_1/resistance_band/LIB\libCH57xBLE.a(ll.o)
                              e:/Workspace/resistance_band/reistance_band_v0_1/resistance_band/LIB\libCH57xBLE.a(ctl_input.o) (ll_get_prime_number)
e:/Workspace/resistance_band/reistance_band_v0_1/resistance_band/LIB\libCH57xBLE.a(ll_advertise.o)
                              e:/Workspace/resistance_band/reistance_band_v0_1/resistance_band/LIB\libCH57xBLE.a(ctl_input.o) (LL_AdvertiseToStandby)
e:/Workspace/resistance_band/reistance_band_v0_1/resistance_band/LIB\libCH57xBLE.a(ll_initiate.o)
                              e:/Workspace/resistance_band/reistance_band_v0_1/resistance_band/LIB\libCH57xBLE.a(ctl_input.o) (LL_InitiateToStandby)
e:/Workspace/resistance_band/reistance_band_v0_1/resistance_band/LIB\libCH57xBLE.a(ll_resolvinglist.o)
                              e:/Workspace/resistance_band/reistance_band_v0_1/resistance_band/LIB\libCH57xBLE.a(ll_advertise.o) (ll_resolvinglist_checkRPA)
e:/Workspace/resistance_band/reistance_band_v0_1/resistance_band/LIB\libCH57xBLE.a(broadcaster.o)
                              e:/Workspace/resistance_band/reistance_band_v0_1/resistance_band/LIB\libCH57xBLE.a(role.o) (GAPRole_BroadcasterEnable)
e:/Workspace/resistance_band/reistance_band_v0_1/resistance_band/LIB\libCH57xBLE.a(central.o)
                              e:/Workspace/resistance_band/reistance_band_v0_1/resistance_band/LIB\libCH57xBLE.a(role.o) (GAPRole_CentralEnable)
e:/Workspace/resistance_band/reistance_band_v0_1/resistance_band/LIB\libCH57xBLE.a(observer.o)
                              e:/Workspace/resistance_band/reistance_band_v0_1/resistance_band/LIB\libCH57xBLE.a(role.o) (GAPRole_ObserverEnable)
e:/Workspace/resistance_band/reistance_band_v0_1/resistance_band/LIB\libCH57xBLE.a(ll_address.o)
                              e:/Workspace/resistance_band/reistance_band_v0_1/resistance_band/LIB\libCH57xBLE.a(ll_resolvinglist.o) (LL_AddrGenerateResolvableAddress)
d:/mounriver/mounriver_studio2/resources/app/resources/win32/components/wch/toolchain/risc-v embedded gcc/bin/../lib/gcc/riscv-none-embed/8.2.0/rv32imac/ilp32\libgcc.a(_lshrdi3.o)
                              e:/Workspace/resistance_band/reistance_band_v0_1/resistance_band/LIB\libCH57xBLE.a(ll_hop.o) (__lshrdi3)
d:/mounriver/mounriver_studio2/resources/app/resources/win32/components/wch/toolchain/risc-v embedded gcc/bin/../lib/gcc/riscv-none-embed/8.2.0/rv32imac/ilp32\libgcc.a(_ashrdi3.o)
                              e:/Workspace/resistance_band/reistance_band_v0_1/resistance_band/LIB\libCH57xBLE.a(ctl_input.o) (__ashrdi3)
d:/mounriver/mounriver_studio2/resources/app/resources/win32/components/wch/toolchain/risc-v embedded gcc/bin/../lib/gcc/riscv-none-embed/8.2.0/rv32imac/ilp32\libgcc.a(_divdi3.o)
                              e:/Workspace/resistance_band/reistance_band_v0_1/resistance_band/LIB\libCH57xBLE.a(ll_connect.o) (__divdi3)
d:/mounriver/mounriver_studio2/resources/app/resources/win32/components/wch/toolchain/risc-v embedded gcc/bin/../lib/gcc/riscv-none-embed/8.2.0/rv32imac/ilp32\libgcc.a(_udivdi3.o)
                              e:/Workspace/resistance_band/reistance_band_v0_1/resistance_band/LIB\libCH57xBLE.a(ll_connect.o) (__udivdi3)
d:/mounriver/mounriver_studio2/resources/app/resources/win32/components/wch/toolchain/risc-v embedded gcc/bin/../lib/gcc/riscv-none-embed/8.2.0/rv32imac/ilp32\libgcc.a(muldf3.o)
                              ./StdPeriphDriver/CH57x_clk.o (__muldf3)
d:/mounriver/mounriver_studio2/resources/app/resources/win32/components/wch/toolchain/risc-v embedded gcc/bin/../lib/gcc/riscv-none-embed/8.2.0/rv32imac/ilp32\libgcc.a(floatsidf.o)
                              ./StdPeriphDriver/CH57x_clk.o (__floatsidf)
d:/mounriver/mounriver_studio2/resources/app/resources/win32/components/wch/toolchain/risc-v embedded gcc/bin/../lib/gcc/riscv-none-embed/8.2.0/rv32imac/ilp32\libgcc.a(mulsf3.o)
                              ./StdPeriphDriver/CH57x_clk.o (__mulsf3)
d:/mounriver/mounriver_studio2/resources/app/resources/win32/components/wch/toolchain/risc-v embedded gcc/bin/../lib/gcc/riscv-none-embed/8.2.0/rv32imac/ilp32\libgcc.a(fixsfsi.o)
                              ./StdPeriphDriver/CH57x_clk.o (__fixsfsi)
d:/mounriver/mounriver_studio2/resources/app/resources/win32/components/wch/toolchain/risc-v embedded gcc/bin/../lib/gcc/riscv-none-embed/8.2.0/rv32imac/ilp32\libgcc.a(floatsisf.o)
                              ./StdPeriphDriver/CH57x_clk.o (__floatsisf)
d:/mounriver/mounriver_studio2/resources/app/resources/win32/components/wch/toolchain/risc-v embedded gcc/bin/../lib/gcc/riscv-none-embed/8.2.0/rv32imac/ilp32\libgcc.a(truncdfsf2.o)
                              ./StdPeriphDriver/CH57x_clk.o (__truncdfsf2)
d:/mounriver/mounriver_studio2/resources/app/resources/win32/components/wch/toolchain/risc-v embedded gcc/bin/../lib/gcc/riscv-none-embed/8.2.0/rv32imac/ilp32\libgcc.a(_clz.o)
                              d:/mounriver/mounriver_studio2/resources/app/resources/win32/components/wch/toolchain/risc-v embedded gcc/bin/../lib/gcc/riscv-none-embed/8.2.0/rv32imac/ilp32\libgcc.a(_divdi3.o) (__clz_tab)
d:/mounriver/mounriver_studio2/resources/app/resources/win32/components/wch/toolchain/risc-v embedded gcc/bin/../lib/gcc/riscv-none-embed/8.2.0/rv32imac/ilp32\libgcc.a(_clzsi2.o)
                              d:/mounriver/mounriver_studio2/resources/app/resources/win32/components/wch/toolchain/risc-v embedded gcc/bin/../lib/gcc/riscv-none-embed/8.2.0/rv32imac/ilp32\libgcc.a(muldf3.o) (__clzsi2)
d:/mounriver/mounriver_studio2/resources/app/resources/win32/components/wch/toolchain/risc-v embedded gcc/bin/../lib/gcc/riscv-none-embed/8.2.0/../../../../riscv-none-embed/lib/rv32imac/ilp32\libg_nano.a(lib_a-memcpy.o)
                              e:/Workspace/resistance_band/reistance_band_v0_1/resistance_band/LIB\libCH57xBLE.a(gapgattserver.o) (memcpy)

Discarded input sections

 .text          0x0000000000000000        0x0 ./StdPeriphDriver/CH57x_adc.o
 .data          0x0000000000000000        0x0 ./StdPeriphDriver/CH57x_adc.o
 .bss           0x0000000000000000        0x0 ./StdPeriphDriver/CH57x_adc.o
 .text.ADC_DataCalib_Rough
                0x0000000000000000       0x84 ./StdPeriphDriver/CH57x_adc.o
 .text.ADC_ExtSingleChSampInit
                0x0000000000000000       0x24 ./StdPeriphDriver/CH57x_adc.o
 .text.ADC_ExtDiffChSampInit
                0x0000000000000000       0x24 ./StdPeriphDriver/CH57x_adc.o
 .text.ADC_InterBATSampInit
                0x0000000000000000       0x1e ./StdPeriphDriver/CH57x_adc.o
 .text.TouchKey_ChSampInit
                0x0000000000000000       0x1a ./StdPeriphDriver/CH57x_adc.o
 .text.ADC_ExcutSingleConver
                0x0000000000000000       0x20 ./StdPeriphDriver/CH57x_adc.o
 .text.TouchKey_ExcutSingleConver
                0x0000000000000000       0x2e ./StdPeriphDriver/CH57x_adc.o
 .text.ADC_AutoConverCycle
                0x0000000000000000        0xa ./StdPeriphDriver/CH57x_adc.o
 .text.ADC_DMACfg
                0x0000000000000000       0x42 ./StdPeriphDriver/CH57x_adc.o
 .text.adc_to_temperature_celsius
                0x0000000000000000       0x24 ./StdPeriphDriver/CH57x_adc.o
 .text          0x0000000000000000        0x0 ./StdPeriphDriver/CH57x_clk.o
 .data          0x0000000000000000        0x0 ./StdPeriphDriver/CH57x_clk.o
 .bss           0x0000000000000000        0x0 ./StdPeriphDriver/CH57x_clk.o
 .text.LClk32K_Select
                0x0000000000000000       0x38 ./StdPeriphDriver/CH57x_clk.o
 .text.HSECFG_Current
                0x0000000000000000       0x2e ./StdPeriphDriver/CH57x_clk.o
 .text.HSECFG_Capacitance
                0x0000000000000000       0x32 ./StdPeriphDriver/CH57x_clk.o
 .text.LSECFG_Current
                0x0000000000000000       0x2e ./StdPeriphDriver/CH57x_clk.o
 .text.LSECFG_Capacitance
                0x0000000000000000       0x30 ./StdPeriphDriver/CH57x_clk.o
 .text.LSI_SetTune_FLASH
                0x0000000000000000       0x2a ./StdPeriphDriver/CH57x_clk.o
 .text.LSI_SetTune_RAM
                0x0000000000000000       0x2a ./StdPeriphDriver/CH57x_clk.o
 .text.RTC_GetTime
                0x0000000000000000      0x15c ./StdPeriphDriver/CH57x_clk.o
 .text.RTC_SetCycle32k
                0x0000000000000000       0x62 ./StdPeriphDriver/CH57x_clk.o
 .text.RTC_GetCycle32k
                0x0000000000000000       0x18 ./StdPeriphDriver/CH57x_clk.o
 .text.RTC_TMRFunCfg
                0x0000000000000000       0x48 ./StdPeriphDriver/CH57x_clk.o
 .text.RTC_TRIGFunCfg
                0x0000000000000000       0x5e ./StdPeriphDriver/CH57x_clk.o
 .text.RTC_ModeFunDisable
                0x0000000000000000       0x3c ./StdPeriphDriver/CH57x_clk.o
 .text.RTC_GetITFlag
                0x0000000000000000       0x1a ./StdPeriphDriver/CH57x_clk.o
 .text.RTC_ClearITFlag
                0x0000000000000000       0x20 ./StdPeriphDriver/CH57x_clk.o
 .text          0x0000000000000000        0x0 ./StdPeriphDriver/CH57x_flash.o
 .data          0x0000000000000000        0x0 ./StdPeriphDriver/CH57x_flash.o
 .bss           0x0000000000000000        0x0 ./StdPeriphDriver/CH57x_flash.o
 .text.FLASH_ROM_READ
                0x0000000000000000       0x1c ./StdPeriphDriver/CH57x_flash.o
 .text.GET_UNIQUE_ID
                0x0000000000000000       0x2c ./StdPeriphDriver/CH57x_flash.o
 .debug_info    0x0000000000000000      0xc80 ./StdPeriphDriver/CH57x_flash.o
 .debug_abbrev  0x0000000000000000      0x255 ./StdPeriphDriver/CH57x_flash.o
 .debug_loc     0x0000000000000000      0x12b ./StdPeriphDriver/CH57x_flash.o
 .debug_aranges
                0x0000000000000000       0x28 ./StdPeriphDriver/CH57x_flash.o
 .debug_ranges  0x0000000000000000       0x18 ./StdPeriphDriver/CH57x_flash.o
 .debug_line    0x0000000000000000      0x3fd ./StdPeriphDriver/CH57x_flash.o
 .debug_str     0x0000000000000000      0x818 ./StdPeriphDriver/CH57x_flash.o
 .comment       0x0000000000000000       0x34 ./StdPeriphDriver/CH57x_flash.o
 .debug_frame   0x0000000000000000       0x40 ./StdPeriphDriver/CH57x_flash.o
 .text          0x0000000000000000        0x0 ./StdPeriphDriver/CH57x_gpio.o
 .data          0x0000000000000000        0x0 ./StdPeriphDriver/CH57x_gpio.o
 .bss           0x0000000000000000        0x0 ./StdPeriphDriver/CH57x_gpio.o
 .text.GPIOB_ModeCfg
                0x0000000000000000       0xa6 ./StdPeriphDriver/CH57x_gpio.o
 .rodata.GPIOB_ModeCfg
                0x0000000000000000       0x14 ./StdPeriphDriver/CH57x_gpio.o
 .text.GPIOA_ITModeCfg
                0x0000000000000000       0x82 ./StdPeriphDriver/CH57x_gpio.o
 .text.GPIOB_ITModeCfg
                0x0000000000000000       0x8a ./StdPeriphDriver/CH57x_gpio.o
 .text.GPIOPinRemap
                0x0000000000000000       0x1a ./StdPeriphDriver/CH57x_gpio.o
 .text.GPIOAGPPCfg
                0x0000000000000000       0x1a ./StdPeriphDriver/CH57x_gpio.o
 .text          0x0000000000000000        0x0 ./StdPeriphDriver/CH57x_pwr.o
 .data          0x0000000000000000        0x0 ./StdPeriphDriver/CH57x_pwr.o
 .bss           0x0000000000000000        0x0 ./StdPeriphDriver/CH57x_pwr.o
 .text.PWR_DCDCCfg
                0x0000000000000000       0x84 ./StdPeriphDriver/CH57x_pwr.o
 .text.PWR_UnitModCfg
                0x0000000000000000       0x60 ./StdPeriphDriver/CH57x_pwr.o
 .text.PWR_PeriphClkCfg
                0x0000000000000000       0x32 ./StdPeriphDriver/CH57x_pwr.o
 .text.PWR_PeriphWakeUpCfg
                0x0000000000000000       0x84 ./StdPeriphDriver/CH57x_pwr.o
 .text.PowerMonitor
                0x0000000000000000       0xa0 ./StdPeriphDriver/CH57x_pwr.o
 .highcode      0x0000000000000000      0x314 ./StdPeriphDriver/CH57x_pwr.o
 .sdata2.CSWTCH.10
                0x0000000000000000        0x4 ./StdPeriphDriver/CH57x_pwr.o
 .debug_info    0x0000000000000000     0x1532 ./StdPeriphDriver/CH57x_pwr.o
 .debug_abbrev  0x0000000000000000      0x358 ./StdPeriphDriver/CH57x_pwr.o
 .debug_loc     0x0000000000000000      0x2f7 ./StdPeriphDriver/CH57x_pwr.o
 .debug_aranges
                0x0000000000000000       0x60 ./StdPeriphDriver/CH57x_pwr.o
 .debug_ranges  0x0000000000000000       0x70 ./StdPeriphDriver/CH57x_pwr.o
 .debug_line    0x0000000000000000     0x12b1 ./StdPeriphDriver/CH57x_pwr.o
 .debug_str     0x0000000000000000      0xc09 ./StdPeriphDriver/CH57x_pwr.o
 .comment       0x0000000000000000       0x34 ./StdPeriphDriver/CH57x_pwr.o
 .debug_frame   0x0000000000000000      0x110 ./StdPeriphDriver/CH57x_pwr.o
 .text          0x0000000000000000        0x0 ./StdPeriphDriver/CH57x_sys.o
 .data          0x0000000000000000        0x0 ./StdPeriphDriver/CH57x_sys.o
 .bss           0x0000000000000000        0x0 ./StdPeriphDriver/CH57x_sys.o
 .text.GetSysClock
                0x0000000000000000       0x42 ./StdPeriphDriver/CH57x_sys.o
 .text.SYS_GetInfoSta
                0x0000000000000000       0x24 ./StdPeriphDriver/CH57x_sys.o
 .text.SYS_DisableAllIrq
                0x0000000000000000       0x20 ./StdPeriphDriver/CH57x_sys.o
 .text.SYS_RecoverIrq
                0x0000000000000000       0x14 ./StdPeriphDriver/CH57x_sys.o
 .text.WWDG_ITCfg
                0x0000000000000000       0x38 ./StdPeriphDriver/CH57x_sys.o
 .text.WWDG_ResetCfg
                0x0000000000000000       0x38 ./StdPeriphDriver/CH57x_sys.o
 .text.WWDG_ClearFlag
                0x0000000000000000       0x2a ./StdPeriphDriver/CH57x_sys.o
 .text._write   0x0000000000000000       0x28 ./StdPeriphDriver/CH57x_sys.o
 .text._sbrk    0x0000000000000000       0x34 ./StdPeriphDriver/CH57x_sys.o
 .sdata.curbrk.3772
                0x0000000000000000        0x4 ./StdPeriphDriver/CH57x_sys.o
 .text          0x0000000000000000        0x0 ./StdPeriphDriver/CH57x_uart1.o
 .data          0x0000000000000000        0x0 ./StdPeriphDriver/CH57x_uart1.o
 .bss           0x0000000000000000        0x0 ./StdPeriphDriver/CH57x_uart1.o
 .text.UART1_BaudRateCfg
                0x0000000000000000       0x36 ./StdPeriphDriver/CH57x_uart1.o
 .text.UART1_DefInit
                0x0000000000000000       0x38 ./StdPeriphDriver/CH57x_uart1.o
 .text.UART1_ByteTrigCfg
                0x0000000000000000       0x1a ./StdPeriphDriver/CH57x_uart1.o
 .text.UART1_INTCfg
                0x0000000000000000       0x2a ./StdPeriphDriver/CH57x_uart1.o
 .text.UART1_Reset
                0x0000000000000000        0xe ./StdPeriphDriver/CH57x_uart1.o
 .text.UART1_SendString
                0x0000000000000000       0x28 ./StdPeriphDriver/CH57x_uart1.o
 .text.UART1_RecvString
                0x0000000000000000       0x2a ./StdPeriphDriver/CH57x_uart1.o
 .debug_info    0x0000000000000000      0xd86 ./StdPeriphDriver/CH57x_uart1.o
 .debug_abbrev  0x0000000000000000      0x2aa ./StdPeriphDriver/CH57x_uart1.o
 .debug_loc     0x0000000000000000      0x1ed ./StdPeriphDriver/CH57x_uart1.o
 .debug_aranges
                0x0000000000000000       0x50 ./StdPeriphDriver/CH57x_uart1.o
 .debug_ranges  0x0000000000000000       0x40 ./StdPeriphDriver/CH57x_uart1.o
 .debug_line    0x0000000000000000      0x676 ./StdPeriphDriver/CH57x_uart1.o
 .debug_str     0x0000000000000000      0x8cd ./StdPeriphDriver/CH57x_uart1.o
 .comment       0x0000000000000000       0x34 ./StdPeriphDriver/CH57x_uart1.o
 .debug_frame   0x0000000000000000       0x9c ./StdPeriphDriver/CH57x_uart1.o
 .text          0x0000000000000000        0x0 ./Startup/startup_CH573.o
 .data          0x0000000000000000        0x0 ./Startup/startup_CH573.o
 .bss           0x0000000000000000        0x0 ./Startup/startup_CH573.o
 .text          0x0000000000000000        0x0 ./RVMSIS/core_riscv.o
 .data          0x0000000000000000        0x0 ./RVMSIS/core_riscv.o
 .bss           0x0000000000000000        0x0 ./RVMSIS/core_riscv.o
 .text.__get_MSTATUS
                0x0000000000000000        0x6 ./RVMSIS/core_riscv.o
 .text.__set_MSTATUS
                0x0000000000000000        0x6 ./RVMSIS/core_riscv.o
 .text.__get_MISA
                0x0000000000000000        0x6 ./RVMSIS/core_riscv.o
 .text.__set_MISA
                0x0000000000000000        0x6 ./RVMSIS/core_riscv.o
 .text.__get_MTVEC
                0x0000000000000000        0x6 ./RVMSIS/core_riscv.o
 .text.__set_MTVEC
                0x0000000000000000        0x6 ./RVMSIS/core_riscv.o
 .text.__get_MSCRATCH
                0x0000000000000000        0x6 ./RVMSIS/core_riscv.o
 .text.__set_MSCRATCH
                0x0000000000000000        0x6 ./RVMSIS/core_riscv.o
 .text.__get_MEPC
                0x0000000000000000        0x6 ./RVMSIS/core_riscv.o
 .text.__set_MEPC
                0x0000000000000000        0x6 ./RVMSIS/core_riscv.o
 .text.__get_MCAUSE
                0x0000000000000000        0x6 ./RVMSIS/core_riscv.o
 .text.__set_MCAUSE
                0x0000000000000000        0x6 ./RVMSIS/core_riscv.o
 .text.__get_MTVAL
                0x0000000000000000        0x6 ./RVMSIS/core_riscv.o
 .text.__set_MTVAL
                0x0000000000000000        0x6 ./RVMSIS/core_riscv.o
 .text.__get_MVENDORID
                0x0000000000000000        0x6 ./RVMSIS/core_riscv.o
 .text.__get_MARCHID
                0x0000000000000000        0x6 ./RVMSIS/core_riscv.o
 .text.__get_MIMPID
                0x0000000000000000        0x6 ./RVMSIS/core_riscv.o
 .text.__get_MHARTID
                0x0000000000000000        0x6 ./RVMSIS/core_riscv.o
 .text.__get_SP
                0x0000000000000000        0x4 ./RVMSIS/core_riscv.o
 .debug_info    0x0000000000000000      0x375 ./RVMSIS/core_riscv.o
 .debug_abbrev  0x0000000000000000       0xe0 ./RVMSIS/core_riscv.o
 .debug_aranges
                0x0000000000000000       0xb0 ./RVMSIS/core_riscv.o
 .debug_ranges  0x0000000000000000       0xa0 ./RVMSIS/core_riscv.o
 .debug_line    0x0000000000000000      0x4d6 ./RVMSIS/core_riscv.o
 .debug_str     0x0000000000000000      0x304 ./RVMSIS/core_riscv.o
 .comment       0x0000000000000000       0x34 ./RVMSIS/core_riscv.o
 .debug_frame   0x0000000000000000      0x140 ./RVMSIS/core_riscv.o
 .text          0x0000000000000000        0x0 ./Profile/battservice.o
 .data          0x0000000000000000        0x0 ./Profile/battservice.o
 .bss           0x0000000000000000        0x0 ./Profile/battservice.o
 .text.Batt_GetParameter
                0x0000000000000000       0x72 ./Profile/battservice.o
 .text.Batt_Setup
                0x0000000000000000       0x2a ./Profile/battservice.o
 .text          0x0000000000000000        0x0 ./Profile/devinfoservice.o
 .data          0x0000000000000000        0x0 ./Profile/devinfoservice.o
 .bss           0x0000000000000000        0x0 ./Profile/devinfoservice.o
 .text.DevInfo_GetParameter
                0x0000000000000000       0x9e ./Profile/devinfoservice.o
 .rodata.DevInfo_GetParameter
                0x0000000000000000       0x24 ./Profile/devinfoservice.o
 .text          0x0000000000000000        0x0 ./Profile/resbandservice.o
 .data          0x0000000000000000        0x0 ./Profile/resbandservice.o
 .bss           0x0000000000000000        0x0 ./Profile/resbandservice.o
 .text.ResBand_GetParameter
                0x0000000000000000       0x34 ./Profile/resbandservice.o
 .text          0x0000000000000000        0x0 ./HAL/AS5600.o
 .data          0x0000000000000000        0x0 ./HAL/AS5600.o
 .bss           0x0000000000000000        0x0 ./HAL/AS5600.o
 .text.AS5600_WriteOneByte
                0x0000000000000000       0x6e ./HAL/AS5600.o
 .text          0x0000000000000000        0x0 ./HAL/LED.o
 .data          0x0000000000000000        0x0 ./HAL/LED.o
 .bss           0x0000000000000000        0x0 ./HAL/LED.o
 .text.HalLedGetState
                0x0000000000000000        0xa ./HAL/LED.o
 .text          0x0000000000000000        0x0 ./HAL/MCU.o
 .data          0x0000000000000000        0x0 ./HAL/MCU.o
 .bss           0x0000000000000000        0x0 ./HAL/MCU.o
 .text          0x0000000000000000        0x0 ./HAL/RTC.o
 .data          0x0000000000000000        0x0 ./HAL/RTC.o
 .bss           0x0000000000000000        0x0 ./HAL/RTC.o
 .text.RTC_SetTignTime
                0x0000000000000000       0x28 ./HAL/RTC.o
 .text          0x0000000000000000        0x0 ./HAL/SLEEP.o
 .data          0x0000000000000000        0x0 ./HAL/SLEEP.o
 .bss           0x0000000000000000        0x0 ./HAL/SLEEP.o
 .text.CH57X_LowPower
                0x0000000000000000        0x4 ./HAL/SLEEP.o
 .text.HAL_SleepInit
                0x0000000000000000        0x2 ./HAL/SLEEP.o
 .debug_info    0x0000000000000000      0xd6d ./HAL/SLEEP.o
 .debug_abbrev  0x0000000000000000      0x211 ./HAL/SLEEP.o
 .debug_loc     0x0000000000000000       0x21 ./HAL/SLEEP.o
 .debug_aranges
                0x0000000000000000       0x28 ./HAL/SLEEP.o
 .debug_ranges  0x0000000000000000       0x18 ./HAL/SLEEP.o
 .debug_line    0x0000000000000000      0x3e7 ./HAL/SLEEP.o
 .debug_str     0x0000000000000000      0x988 ./HAL/SLEEP.o
 .comment       0x0000000000000000       0x34 ./HAL/SLEEP.o
 .debug_frame   0x0000000000000000       0x30 ./HAL/SLEEP.o
 .text          0x0000000000000000        0x0 ./APP/resband.o
 .data          0x0000000000000000        0x0 ./APP/resband.o
 .bss           0x0000000000000000        0x0 ./APP/resband.o
 .text          0x0000000000000000        0x0 ./APP/resband_main.o
 .data          0x0000000000000000        0x0 ./APP/resband_main.o
 .bss           0x0000000000000000        0x0 ./APP/resband_main.o
 .text          0x0000000000000000        0x0 e:/Workspace/resistance_band/reistance_band_v0_1/SRC/StdPeriphDriver\libISP573.a(ISP573.o)
 .data          0x0000000000000000        0x0 e:/Workspace/resistance_band/reistance_band_v0_1/SRC/StdPeriphDriver\libISP573.a(ISP573.o)
 .bss           0x0000000000000000        0x0 e:/Workspace/resistance_band/reistance_band_v0_1/SRC/StdPeriphDriver\libISP573.a(ISP573.o)
 .text          0x0000000000000000        0x0 e:/Workspace/resistance_band/reistance_band_v0_1/resistance_band/LIB\libCH57xBLE.a(message.o)
 .data          0x0000000000000000        0x0 e:/Workspace/resistance_band/reistance_band_v0_1/resistance_band/LIB\libCH57xBLE.a(message.o)
 .bss           0x0000000000000000        0x0 e:/Workspace/resistance_band/reistance_band_v0_1/resistance_band/LIB\libCH57xBLE.a(message.o)
 .text.tmos_msg_push
                0x0000000000000000        0xa e:/Workspace/resistance_band/reistance_band_v0_1/resistance_band/LIB\libCH57xBLE.a(message.o)
 .text.tmos_msg_push_front
                0x0000000000000000       0x70 e:/Workspace/resistance_band/reistance_band_v0_1/resistance_band/LIB\libCH57xBLE.a(message.o)
 .text          0x0000000000000000        0x0 e:/Workspace/resistance_band/reistance_band_v0_1/resistance_band/LIB\libCH57xBLE.a(tmos.o)
 .data          0x0000000000000000        0x0 e:/Workspace/resistance_band/reistance_band_v0_1/resistance_band/LIB\libCH57xBLE.a(tmos.o)
 .bss           0x0000000000000000        0x0 e:/Workspace/resistance_band/reistance_band_v0_1/resistance_band/LIB\libCH57xBLE.a(tmos.o)
 .text.tmos_get_event
                0x0000000000000000       0x14 e:/Workspace/resistance_band/reistance_band_v0_1/resistance_band/LIB\libCH57xBLE.a(tmos.o)
 .text.TMOS_ProcessGet
                0x0000000000000000       0x1a e:/Workspace/resistance_band/reistance_band_v0_1/resistance_band/LIB\libCH57xBLE.a(tmos.o)
 .text.TMOS_SystemProcessRegister
                0x0000000000000000        0xa e:/Workspace/resistance_band/reistance_band_v0_1/resistance_band/LIB\libCH57xBLE.a(tmos.o)
 .text          0x0000000000000000        0x0 e:/Workspace/resistance_band/reistance_band_v0_1/resistance_band/LIB\libCH57xBLE.a(tmos_hw.o)
 .data          0x0000000000000000        0x0 e:/Workspace/resistance_band/reistance_band_v0_1/resistance_band/LIB\libCH57xBLE.a(tmos_hw.o)
 .bss           0x0000000000000000        0x0 e:/Workspace/resistance_band/reistance_band_v0_1/resistance_band/LIB\libCH57xBLE.a(tmos_hw.o)
 .text          0x0000000000000000        0x0 e:/Workspace/resistance_band/reistance_band_v0_1/resistance_band/LIB\libCH57xBLE.a(tmos_snv.o)
 .data          0x0000000000000000        0x0 e:/Workspace/resistance_band/reistance_band_v0_1/resistance_band/LIB\libCH57xBLE.a(tmos_snv.o)
 .bss           0x0000000000000000        0x0 e:/Workspace/resistance_band/reistance_band_v0_1/resistance_band/LIB\libCH57xBLE.a(tmos_snv.o)
 .text          0x0000000000000000        0x0 e:/Workspace/resistance_band/reistance_band_v0_1/resistance_band/LIB\libCH57xBLE.a(gap.o)
 .data          0x0000000000000000        0x0 e:/Workspace/resistance_band/reistance_band_v0_1/resistance_band/LIB\libCH57xBLE.a(gap.o)
 .bss           0x0000000000000000        0x0 e:/Workspace/resistance_band/reistance_band_v0_1/resistance_band/LIB\libCH57xBLE.a(gap.o)
 .text.GAP_UpdateLinkParamReq
                0x0000000000000000       0xc8 e:/Workspace/resistance_band/reistance_band_v0_1/resistance_band/LIB\libCH57xBLE.a(gap.o)
 .text.GAP_PasskeyUpdate
                0x0000000000000000       0x42 e:/Workspace/resistance_band/reistance_band_v0_1/resistance_band/LIB\libCH57xBLE.a(gap.o)
 .text          0x0000000000000000        0x0 e:/Workspace/resistance_band/reistance_band_v0_1/resistance_band/LIB\libCH57xBLE.a(gap_central.o)
 .data          0x0000000000000000        0x0 e:/Workspace/resistance_band/reistance_band_v0_1/resistance_band/LIB\libCH57xBLE.a(gap_central.o)
 .bss           0x0000000000000000        0x0 e:/Workspace/resistance_band/reistance_band_v0_1/resistance_band/LIB\libCH57xBLE.a(gap_central.o)
 .text.GAP_DeviceDiscoveryCancel
                0x0000000000000000       0x4c e:/Workspace/resistance_band/reistance_band_v0_1/resistance_band/LIB\libCH57xBLE.a(gap_central.o)
 .text.GAP_DeviceDiscoveryRequest
                0x0000000000000000       0xb0 e:/Workspace/resistance_band/reistance_band_v0_1/resistance_band/LIB\libCH57xBLE.a(gap_central.o)
 .text.GAP_EstablishLinkReq
                0x0000000000000000      0x178 e:/Workspace/resistance_band/reistance_band_v0_1/resistance_band/LIB\libCH57xBLE.a(gap_central.o)
 .text          0x0000000000000000        0x0 e:/Workspace/resistance_band/reistance_band_v0_1/resistance_band/LIB\libCH57xBLE.a(gap_peripheral.o)
 .data          0x0000000000000000        0x0 e:/Workspace/resistance_band/reistance_band_v0_1/resistance_band/LIB\libCH57xBLE.a(gap_peripheral.o)
 .bss           0x0000000000000000        0x0 e:/Workspace/resistance_band/reistance_band_v0_1/resistance_band/LIB\libCH57xBLE.a(gap_peripheral.o)
 .text.GAP_RemoveAdvToken
                0x0000000000000000       0x58 e:/Workspace/resistance_band/reistance_band_v0_1/resistance_band/LIB\libCH57xBLE.a(gap_peripheral.o)
 .text.GAP_UpdateAdvTokens
                0x0000000000000000      0x186 e:/Workspace/resistance_band/reistance_band_v0_1/resistance_band/LIB\libCH57xBLE.a(gap_peripheral.o)
 .text.GAP_SetAdvToken
                0x0000000000000000       0xf0 e:/Workspace/resistance_band/reistance_band_v0_1/resistance_band/LIB\libCH57xBLE.a(gap_peripheral.o)
 .text.GAP_ConfigDeviceAddr
                0x0000000000000000      0x13e e:/Workspace/resistance_band/reistance_band_v0_1/resistance_band/LIB\libCH57xBLE.a(gap_peripheral.o)
 .text          0x0000000000000000        0x0 e:/Workspace/resistance_band/reistance_band_v0_1/resistance_band/LIB\libCH57xBLE.a(gapgattserver.o)
 .data          0x0000000000000000        0x0 e:/Workspace/resistance_band/reistance_band_v0_1/resistance_band/LIB\libCH57xBLE.a(gapgattserver.o)
 .bss           0x0000000000000000        0x0 e:/Workspace/resistance_band/reistance_band_v0_1/resistance_band/LIB\libCH57xBLE.a(gapgattserver.o)
 .text.GGS_GetParameter
                0x0000000000000000       0x6c e:/Workspace/resistance_band/reistance_band_v0_1/resistance_band/LIB\libCH57xBLE.a(gapgattserver.o)
 .text.GGS_SetParamValue
                0x0000000000000000        0x2 e:/Workspace/resistance_band/reistance_band_v0_1/resistance_band/LIB\libCH57xBLE.a(gapgattserver.o)
 .text.GGS_GetParamValue
                0x0000000000000000        0x4 e:/Workspace/resistance_band/reistance_band_v0_1/resistance_band/LIB\libCH57xBLE.a(gapgattserver.o)
 .text.GGS_DelService
                0x0000000000000000       0x1a e:/Workspace/resistance_band/reistance_band_v0_1/resistance_band/LIB\libCH57xBLE.a(gapgattserver.o)
 .text.GGS_RegisterAppCBs
                0x0000000000000000        0xa e:/Workspace/resistance_band/reistance_band_v0_1/resistance_band/LIB\libCH57xBLE.a(gapgattserver.o)
 .text          0x0000000000000000        0x0 e:/Workspace/resistance_band/reistance_band_v0_1/resistance_band/LIB\libCH57xBLE.a(gatt.o)
 .data          0x0000000000000000        0x0 e:/Workspace/resistance_band/reistance_band_v0_1/resistance_band/LIB\libCH57xBLE.a(gatt.o)
 .bss           0x0000000000000000        0x0 e:/Workspace/resistance_band/reistance_band_v0_1/resistance_band/LIB\libCH57xBLE.a(gatt.o)
 .text.gattRead
                0x0000000000000000       0x58 e:/Workspace/resistance_band/reistance_band_v0_1/resistance_band/LIB\libCH57xBLE.a(gatt.o)
 .text.gattWrite.part.0
                0x0000000000000000       0x58 e:/Workspace/resistance_band/reistance_band_v0_1/resistance_band/LIB\libCH57xBLE.a(gatt.o)
 .text.gattReadByType
                0x0000000000000000       0x98 e:/Workspace/resistance_band/reistance_band_v0_1/resistance_band/LIB\libCH57xBLE.a(gatt.o)
 .text.gattReadLong
                0x0000000000000000       0x58 e:/Workspace/resistance_band/reistance_band_v0_1/resistance_band/LIB\libCH57xBLE.a(gatt.o)
 .text.gattWrite
                0x0000000000000000       0x12 e:/Workspace/resistance_band/reistance_band_v0_1/resistance_band/LIB\libCH57xBLE.a(gatt.o)
 .text.GATT_DiscAllCharDescs
                0x0000000000000000       0x5a e:/Workspace/resistance_band/reistance_band_v0_1/resistance_band/LIB\libCH57xBLE.a(gatt.o)
 .text.GATT_DiscAllChars
                0x0000000000000000       0x2e e:/Workspace/resistance_band/reistance_band_v0_1/resistance_band/LIB\libCH57xBLE.a(gatt.o)
 .text.GATT_DiscAllPrimaryServices
                0x0000000000000000       0x66 e:/Workspace/resistance_band/reistance_band_v0_1/resistance_band/LIB\libCH57xBLE.a(gatt.o)
 .text.GATT_DiscCharsByUUID
                0x0000000000000000        0xc e:/Workspace/resistance_band/reistance_band_v0_1/resistance_band/LIB\libCH57xBLE.a(gatt.o)
 .text.GATT_ExchangeMTU
                0x0000000000000000       0x58 e:/Workspace/resistance_band/reistance_band_v0_1/resistance_band/LIB\libCH57xBLE.a(gatt.o)
 .text.GATT_FindIncludedServices
                0x0000000000000000       0x2e e:/Workspace/resistance_band/reistance_band_v0_1/resistance_band/LIB\libCH57xBLE.a(gatt.o)
 .text.GATT_ReadCharDesc
                0x0000000000000000        0x8 e:/Workspace/resistance_band/reistance_band_v0_1/resistance_band/LIB\libCH57xBLE.a(gatt.o)
 .text.GATT_ReadCharValue
                0x0000000000000000        0x8 e:/Workspace/resistance_band/reistance_band_v0_1/resistance_band/LIB\libCH57xBLE.a(gatt.o)
 .text.GATT_ReadLongCharDesc
                0x0000000000000000        0x8 e:/Workspace/resistance_band/reistance_band_v0_1/resistance_band/LIB\libCH57xBLE.a(gatt.o)
 .text.GATT_ReadLongCharValue
                0x0000000000000000        0x8 e:/Workspace/resistance_band/reistance_band_v0_1/resistance_band/LIB\libCH57xBLE.a(gatt.o)
 .text.GATT_ReadMultiCharValues
                0x0000000000000000       0x58 e:/Workspace/resistance_band/reistance_band_v0_1/resistance_band/LIB\libCH57xBLE.a(gatt.o)
 .text.GATT_ReadUsingCharUUID
                0x0000000000000000        0xc e:/Workspace/resistance_band/reistance_band_v0_1/resistance_band/LIB\libCH57xBLE.a(gatt.o)
 .text.GATT_SetHostToAppFlowCtrl
                0x0000000000000000        0xe e:/Workspace/resistance_band/reistance_band_v0_1/resistance_band/LIB\libCH57xBLE.a(gatt.o)
 .text.GATT_SignedWriteNoRsp
                0x0000000000000000       0x3a e:/Workspace/resistance_band/reistance_band_v0_1/resistance_band/LIB\libCH57xBLE.a(gatt.o)
 .text.GATT_WriteCharValue
                0x0000000000000000       0x16 e:/Workspace/resistance_band/reistance_band_v0_1/resistance_band/LIB\libCH57xBLE.a(gatt.o)
 .text.GATT_WriteCharDesc
                0x0000000000000000        0x8 e:/Workspace/resistance_band/reistance_band_v0_1/resistance_band/LIB\libCH57xBLE.a(gatt.o)
 .text.GATT_WriteNoRsp
                0x0000000000000000       0x4c e:/Workspace/resistance_band/reistance_band_v0_1/resistance_band/LIB\libCH57xBLE.a(gatt.o)
 .text.gattRegisterClient
                0x0000000000000000        0xa e:/Workspace/resistance_band/reistance_band_v0_1/resistance_band/LIB\libCH57xBLE.a(gatt.o)
 .text.GATT_SendRsp
                0x0000000000000000      0x138 e:/Workspace/resistance_band/reistance_band_v0_1/resistance_band/LIB\libCH57xBLE.a(gatt.o)
 .rodata.GATT_SendRsp
                0x0000000000000000       0x64 e:/Workspace/resistance_band/reistance_band_v0_1/resistance_band/LIB\libCH57xBLE.a(gatt.o)
 .text.gattFindByTypeValue
                0x0000000000000000       0x84 e:/Workspace/resistance_band/reistance_band_v0_1/resistance_band/LIB\libCH57xBLE.a(gatt.o)
 .text.GATT_DiscPrimaryServiceByUUID
                0x0000000000000000       0x86 e:/Workspace/resistance_band/reistance_band_v0_1/resistance_band/LIB\libCH57xBLE.a(gatt.o)
 .text.gattPrepareWriteReq
                0x0000000000000000       0x76 e:/Workspace/resistance_band/reistance_band_v0_1/resistance_band/LIB\libCH57xBLE.a(gatt.o)
 .text.gattProcessReliableWrites
                0x0000000000000000       0xe4 e:/Workspace/resistance_band/reistance_band_v0_1/resistance_band/LIB\libCH57xBLE.a(gatt.o)
 .text.gattProcessWriteLong
                0x0000000000000000       0xd4 e:/Workspace/resistance_band/reistance_band_v0_1/resistance_band/LIB\libCH57xBLE.a(gatt.o)
 .text.gattWriteLong
                0x0000000000000000       0x94 e:/Workspace/resistance_band/reistance_band_v0_1/resistance_band/LIB\libCH57xBLE.a(gatt.o)
 .text.GATT_WriteLongCharValue
                0x0000000000000000        0x8 e:/Workspace/resistance_band/reistance_band_v0_1/resistance_band/LIB\libCH57xBLE.a(gatt.o)
 .text.GATT_WriteLongCharDesc
                0x0000000000000000        0x8 e:/Workspace/resistance_band/reistance_band_v0_1/resistance_band/LIB\libCH57xBLE.a(gatt.o)
 .text.GATT_ReliableWrites
                0x0000000000000000       0xee e:/Workspace/resistance_band/reistance_band_v0_1/resistance_band/LIB\libCH57xBLE.a(gatt.o)
 .text.GATT_RegisterForCentMsgs
                0x0000000000000000        0xa e:/Workspace/resistance_band/reistance_band_v0_1/resistance_band/LIB\libCH57xBLE.a(gatt.o)
 .text          0x0000000000000000        0x0 e:/Workspace/resistance_band/reistance_band_v0_1/resistance_band/LIB\libCH57xBLE.a(gatt_uuid.o)
 .data          0x0000000000000000        0x0 e:/Workspace/resistance_band/reistance_band_v0_1/resistance_band/LIB\libCH57xBLE.a(gatt_uuid.o)
 .bss           0x0000000000000000        0x0 e:/Workspace/resistance_band/reistance_band_v0_1/resistance_band/LIB\libCH57xBLE.a(gatt_uuid.o)
 .text.GATT_FindUUIDRec
                0x0000000000000000      0x17a e:/Workspace/resistance_band/reistance_band_v0_1/resistance_band/LIB\libCH57xBLE.a(gatt_uuid.o)
 .sdata2.charAggFormatUUID
                0x0000000000000000        0x2 e:/Workspace/resistance_band/reistance_band_v0_1/resistance_band/LIB\libCH57xBLE.a(gatt_uuid.o)
 .sdata2.charExtPropsUUID
                0x0000000000000000        0x2 e:/Workspace/resistance_band/reistance_band_v0_1/resistance_band/LIB\libCH57xBLE.a(gatt_uuid.o)
 .sdata2.charFormatUUID
                0x0000000000000000        0x2 e:/Workspace/resistance_band/reistance_band_v0_1/resistance_band/LIB\libCH57xBLE.a(gatt_uuid.o)
 .sdata2.charUserDescUUID
                0x0000000000000000        0x2 e:/Workspace/resistance_band/reistance_band_v0_1/resistance_band/LIB\libCH57xBLE.a(gatt_uuid.o)
 .sdata2.extReportRefUUID
                0x0000000000000000        0x2 e:/Workspace/resistance_band/reistance_band_v0_1/resistance_band/LIB\libCH57xBLE.a(gatt_uuid.o)
 .sdata2.includeUUID
                0x0000000000000000        0x2 e:/Workspace/resistance_band/reistance_band_v0_1/resistance_band/LIB\libCH57xBLE.a(gatt_uuid.o)
 .sdata2.periPrivacyFlagUUID
                0x0000000000000000        0x2 e:/Workspace/resistance_band/reistance_band_v0_1/resistance_band/LIB\libCH57xBLE.a(gatt_uuid.o)
 .sdata2.reconnectAddrUUID
                0x0000000000000000        0x2 e:/Workspace/resistance_band/reistance_band_v0_1/resistance_band/LIB\libCH57xBLE.a(gatt_uuid.o)
 .sdata2.servCharCfgUUID
                0x0000000000000000        0x2 e:/Workspace/resistance_band/reistance_band_v0_1/resistance_band/LIB\libCH57xBLE.a(gatt_uuid.o)
 .sdata2.validRangeUUID
                0x0000000000000000        0x2 e:/Workspace/resistance_band/reistance_band_v0_1/resistance_band/LIB\libCH57xBLE.a(gatt_uuid.o)
 .text          0x0000000000000000        0x0 e:/Workspace/resistance_band/reistance_band_v0_1/resistance_band/LIB\libCH57xBLE.a(gattclientapp.o)
 .data          0x0000000000000000        0x0 e:/Workspace/resistance_band/reistance_band_v0_1/resistance_band/LIB\libCH57xBLE.a(gattclientapp.o)
 .bss           0x0000000000000000        0x0 e:/Workspace/resistance_band/reistance_band_v0_1/resistance_band/LIB\libCH57xBLE.a(gattclientapp.o)
 .text.gattProcessReadByType
                0x0000000000000000      0x1f4 e:/Workspace/resistance_band/reistance_band_v0_1/resistance_band/LIB\libCH57xBLE.a(gattclientapp.o)
 .text.gattFindClientInfo
                0x0000000000000000       0x34 e:/Workspace/resistance_band/reistance_band_v0_1/resistance_band/LIB\libCH57xBLE.a(gattclientapp.o)
 .text.gattClientNotifyTxCB
                0x0000000000000000       0x2c e:/Workspace/resistance_band/reistance_band_v0_1/resistance_band/LIB\libCH57xBLE.a(gattclientapp.o)
 .text.gattGetClientStatus
                0x0000000000000000       0x3a e:/Workspace/resistance_band/reistance_band_v0_1/resistance_band/LIB\libCH57xBLE.a(gattclientapp.o)
 .text.gattResetClientInfo
                0x0000000000000000       0x8e e:/Workspace/resistance_band/reistance_band_v0_1/resistance_band/LIB\libCH57xBLE.a(gattclientapp.o)
 .text.gattClientHandleConnStatusCB
                0x0000000000000000       0xb6 e:/Workspace/resistance_band/reistance_band_v0_1/resistance_band/LIB\libCH57xBLE.a(gattclientapp.o)
 .text.gattClientHandleTimerCB
                0x0000000000000000       0x64 e:/Workspace/resistance_band/reistance_band_v0_1/resistance_band/LIB\libCH57xBLE.a(gattclientapp.o)
 .text.gattStoreClientInfo
                0x0000000000000000       0x76 e:/Workspace/resistance_band/reistance_band_v0_1/resistance_band/LIB\libCH57xBLE.a(gattclientapp.o)
 .text.GATT_RegisterForInd
                0x0000000000000000        0xa e:/Workspace/resistance_band/reistance_band_v0_1/resistance_band/LIB\libCH57xBLE.a(gattclientapp.o)
 .text.gattProcessFindInfo
                0x0000000000000000       0x9a e:/Workspace/resistance_band/reistance_band_v0_1/resistance_band/LIB\libCH57xBLE.a(gattclientapp.o)
 .text.gattProcessFindByTypeValue
                0x0000000000000000       0x86 e:/Workspace/resistance_band/reistance_band_v0_1/resistance_band/LIB\libCH57xBLE.a(gattclientapp.o)
 .text.gattProcessReadLong
                0x0000000000000000       0x84 e:/Workspace/resistance_band/reistance_band_v0_1/resistance_band/LIB\libCH57xBLE.a(gattclientapp.o)
 .text.gattProcessReadByGrpType
                0x0000000000000000       0x9a e:/Workspace/resistance_band/reistance_band_v0_1/resistance_band/LIB\libCH57xBLE.a(gattclientapp.o)
 .text.gattProcessMultiReqs
                0x0000000000000000      0x168 e:/Workspace/resistance_band/reistance_band_v0_1/resistance_band/LIB\libCH57xBLE.a(gattclientapp.o)
 .text.gattClientProcessMsgCB
                0x0000000000000000      0x228 e:/Workspace/resistance_band/reistance_band_v0_1/resistance_band/LIB\libCH57xBLE.a(gattclientapp.o)
 .text.GATT_InitClient
                0x0000000000000000       0xe0 e:/Workspace/resistance_band/reistance_band_v0_1/resistance_band/LIB\libCH57xBLE.a(gattclientapp.o)
 .sbss.clientInfoTbl
                0x0000000000000000        0x4 e:/Workspace/resistance_band/reistance_band_v0_1/resistance_band/LIB\libCH57xBLE.a(gattclientapp.o)
 .sbss.indTaskId
                0x0000000000000000        0x1 e:/Workspace/resistance_band/reistance_band_v0_1/resistance_band/LIB\libCH57xBLE.a(gattclientapp.o)
 .comment       0x0000000000000000       0x34 e:/Workspace/resistance_band/reistance_band_v0_1/resistance_band/LIB\libCH57xBLE.a(gattclientapp.o)
 .text          0x0000000000000000        0x0 e:/Workspace/resistance_band/reistance_band_v0_1/resistance_band/LIB\libCH57xBLE.a(gattservapp.o)
 .data          0x0000000000000000        0x0 e:/Workspace/resistance_band/reistance_band_v0_1/resistance_band/LIB\libCH57xBLE.a(gattservapp.o)
 .bss           0x0000000000000000        0x0 e:/Workspace/resistance_band/reistance_band_v0_1/resistance_band/LIB\libCH57xBLE.a(gattservapp.o)
 .text.GATTServApp_FindAttr
                0x0000000000000000       0x1c e:/Workspace/resistance_band/reistance_band_v0_1/resistance_band/LIB\libCH57xBLE.a(gattservapp.o)
 .text.GATTServApp_GetParameter
                0x0000000000000000        0xe e:/Workspace/resistance_band/reistance_band_v0_1/resistance_band/LIB\libCH57xBLE.a(gattservapp.o)
 .text.gattServApp_SetNumPrepareWrites
                0x0000000000000000       0x3c e:/Workspace/resistance_band/reistance_band_v0_1/resistance_band/LIB\libCH57xBLE.a(gattservapp.o)
 .text.GATTServApp_SetParameter
                0x0000000000000000       0x60 e:/Workspace/resistance_band/reistance_band_v0_1/resistance_band/LIB\libCH57xBLE.a(gattservapp.o)
 .text.GATT_DeregisterService
                0x0000000000000000       0x5e e:/Workspace/resistance_band/reistance_band_v0_1/resistance_band/LIB\libCH57xBLE.a(gattservapp.o)
 .text.GATTServApp_DeregisterService
                0x0000000000000000       0x64 e:/Workspace/resistance_band/reistance_band_v0_1/resistance_band/LIB\libCH57xBLE.a(gattservapp.o)
 .text.gattServApp_SendNotiInd
                0x0000000000000000       0xa4 e:/Workspace/resistance_band/reistance_band_v0_1/resistance_band/LIB\libCH57xBLE.a(gattservapp.o)
 .text.GATTServApp_ProcessCharCfg
                0x0000000000000000       0xdc e:/Workspace/resistance_band/reistance_band_v0_1/resistance_band/LIB\libCH57xBLE.a(gattservapp.o)
 .text.GATT_GetNextHandle
                0x0000000000000000        0xa e:/Workspace/resistance_band/reistance_band_v0_1/resistance_band/LIB\libCH57xBLE.a(gattservapp.o)
 .text.GATT_RegisterForReq
                0x0000000000000000        0xa e:/Workspace/resistance_band/reistance_band_v0_1/resistance_band/LIB\libCH57xBLE.a(gattservapp.o)
 .text          0x0000000000000000        0x0 e:/Workspace/resistance_band/reistance_band_v0_1/resistance_band/LIB\libCH57xBLE.a(l2cap.o)
 .data          0x0000000000000000        0x0 e:/Workspace/resistance_band/reistance_band_v0_1/resistance_band/LIB\libCH57xBLE.a(l2cap.o)
 .bss           0x0000000000000000        0x0 e:/Workspace/resistance_band/reistance_band_v0_1/resistance_band/LIB\libCH57xBLE.a(l2cap.o)
 .text.l2capAllocPsm
                0x0000000000000000       0x46 e:/Workspace/resistance_band/reistance_band_v0_1/resistance_band/LIB\libCH57xBLE.a(l2cap.o)
 .text.L2CAP_ChannelInfo
                0x0000000000000000       0x3e e:/Workspace/resistance_band/reistance_band_v0_1/resistance_band/LIB\libCH57xBLE.a(l2cap.o)
 .text.L2CAP_DeregisterPsm
                0x0000000000000000       0x42 e:/Workspace/resistance_band/reistance_band_v0_1/resistance_band/LIB\libCH57xBLE.a(l2cap.o)
 .text.L2CAP_ParseInfoReq
                0x0000000000000000       0x1e e:/Workspace/resistance_band/reistance_band_v0_1/resistance_band/LIB\libCH57xBLE.a(l2cap.o)
 .text.L2CAP_PsmChannels
                0x0000000000000000       0x98 e:/Workspace/resistance_band/reistance_band_v0_1/resistance_band/LIB\libCH57xBLE.a(l2cap.o)
 .text.L2CAP_PsmInfo
                0x0000000000000000       0x64 e:/Workspace/resistance_band/reistance_band_v0_1/resistance_band/LIB\libCH57xBLE.a(l2cap.o)
 .text.L2CAP_RegisterPsm
                0x0000000000000000       0x78 e:/Workspace/resistance_band/reistance_band_v0_1/resistance_band/LIB\libCH57xBLE.a(l2cap.o)
 .text.L2CAP_SetControllerToHostFlowCtrl
                0x0000000000000000       0x54 e:/Workspace/resistance_band/reistance_band_v0_1/resistance_band/LIB\libCH57xBLE.a(l2cap.o)
 .text.L2CAP_SetUserConfig
                0x0000000000000000       0x1a e:/Workspace/resistance_band/reistance_band_v0_1/resistance_band/LIB\libCH57xBLE.a(l2cap.o)
 .text          0x0000000000000000        0x0 e:/Workspace/resistance_band/reistance_band_v0_1/resistance_band/LIB\libCH57xBLE.a(l2cap_input.o)
 .data          0x0000000000000000        0x0 e:/Workspace/resistance_band/reistance_band_v0_1/resistance_band/LIB\libCH57xBLE.a(l2cap_input.o)
 .bss           0x0000000000000000        0x0 e:/Workspace/resistance_band/reistance_band_v0_1/resistance_band/LIB\libCH57xBLE.a(l2cap_input.o)
 .text          0x0000000000000000        0x0 e:/Workspace/resistance_band/reistance_band_v0_1/resistance_band/LIB\libCH57xBLE.a(l2cap_output.o)
 .data          0x0000000000000000        0x0 e:/Workspace/resistance_band/reistance_band_v0_1/resistance_band/LIB\libCH57xBLE.a(l2cap_output.o)
 .bss           0x0000000000000000        0x0 e:/Workspace/resistance_band/reistance_band_v0_1/resistance_band/LIB\libCH57xBLE.a(l2cap_output.o)
 .text.l2capSendFCPkt
                0x0000000000000000       0x12 e:/Workspace/resistance_band/reistance_band_v0_1/resistance_band/LIB\libCH57xBLE.a(l2cap_output.o)
 .text.L2CAP_SendSDU
                0x0000000000000000       0x94 e:/Workspace/resistance_band/reistance_band_v0_1/resistance_band/LIB\libCH57xBLE.a(l2cap_output.o)
 .text          0x0000000000000000        0x0 e:/Workspace/resistance_band/reistance_band_v0_1/resistance_band/LIB\libCH57xBLE.a(l2cap_sdu.o)
 .data          0x0000000000000000        0x0 e:/Workspace/resistance_band/reistance_band_v0_1/resistance_band/LIB\libCH57xBLE.a(l2cap_sdu.o)
 .bss           0x0000000000000000        0x0 e:/Workspace/resistance_band/reistance_band_v0_1/resistance_band/LIB\libCH57xBLE.a(l2cap_sdu.o)
 .text.L2CAP_BuildConnectReq
                0x0000000000000000       0x5e e:/Workspace/resistance_band/reistance_band_v0_1/resistance_band/LIB\libCH57xBLE.a(l2cap_sdu.o)
 .text.L2CAP_ConnectReq
                0x0000000000000000       0x7e e:/Workspace/resistance_band/reistance_band_v0_1/resistance_band/LIB\libCH57xBLE.a(l2cap_sdu.o)
 .text.L2CAP_ConnectRsp
                0x0000000000000000      0x106 e:/Workspace/resistance_band/reistance_band_v0_1/resistance_band/LIB\libCH57xBLE.a(l2cap_sdu.o)
 .text          0x0000000000000000        0x0 e:/Workspace/resistance_band/reistance_band_v0_1/resistance_band/LIB\libCH57xBLE.a(linkdb.o)
 .data          0x0000000000000000        0x0 e:/Workspace/resistance_band/reistance_band_v0_1/resistance_band/LIB\libCH57xBLE.a(linkdb.o)
 .bss           0x0000000000000000        0x0 e:/Workspace/resistance_band/reistance_band_v0_1/resistance_band/LIB\libCH57xBLE.a(linkdb.o)
 .text.linkDB_Update
                0x0000000000000000       0x36 e:/Workspace/resistance_band/reistance_band_v0_1/resistance_band/LIB\libCH57xBLE.a(linkdb.o)
 .text          0x0000000000000000        0x0 e:/Workspace/resistance_band/reistance_band_v0_1/resistance_band/LIB\libCH57xBLE.a(sm.o)
 .data          0x0000000000000000        0x0 e:/Workspace/resistance_band/reistance_band_v0_1/resistance_band/LIB\libCH57xBLE.a(sm.o)
 .bss           0x0000000000000000        0x0 e:/Workspace/resistance_band/reistance_band_v0_1/resistance_band/LIB\libCH57xBLE.a(sm.o)
 .text.smAuthReqToUint8
                0x0000000000000000        0x6 e:/Workspace/resistance_band/reistance_band_v0_1/resistance_band/LIB\libCH57xBLE.a(sm.o)
 .text.smRegisterInitiator
                0x0000000000000000        0xa e:/Workspace/resistance_band/reistance_band_v0_1/resistance_band/LIB\libCH57xBLE.a(sm.o)
 .text.smRegisterResponder
                0x0000000000000000        0xa e:/Workspace/resistance_band/reistance_band_v0_1/resistance_band/LIB\libCH57xBLE.a(sm.o)
 .text.smpParseSecurityReq
                0x0000000000000000       0x14 e:/Workspace/resistance_band/reistance_band_v0_1/resistance_band/LIB\libCH57xBLE.a(sm.o)
 .text.SM_NewRandKey
                0x0000000000000000       0x54 e:/Workspace/resistance_band/reistance_band_v0_1/resistance_band/LIB\libCH57xBLE.a(sm.o)
 .text          0x0000000000000000        0x0 e:/Workspace/resistance_band/reistance_band_v0_1/resistance_band/LIB\libCH57xBLE.a(host_input.o)
 .data          0x0000000000000000        0x0 e:/Workspace/resistance_band/reistance_band_v0_1/resistance_band/LIB\libCH57xBLE.a(host_input.o)
 .bss           0x0000000000000000        0x0 e:/Workspace/resistance_band/reistance_band_v0_1/resistance_band/LIB\libCH57xBLE.a(host_input.o)
 .text.HOST_LE_AdvPktReportEvent
                0x0000000000000000       0xa0 e:/Workspace/resistance_band/reistance_band_v0_1/resistance_band/LIB\libCH57xBLE.a(host_input.o)
 .text.HOST_LE_ReadLocalPublicKeyCompleteEvent
                0x0000000000000000       0x64 e:/Workspace/resistance_band/reistance_band_v0_1/resistance_band/LIB\libCH57xBLE.a(host_input.o)
 .text.HOST_LE_GenerateDHKeyCompleteEvent
                0x0000000000000000       0x64 e:/Workspace/resistance_band/reistance_band_v0_1/resistance_band/LIB\libCH57xBLE.a(host_input.o)
 .text.HOST_LE_DirectAdvertisingReportEvent
                0x0000000000000000       0xc2 e:/Workspace/resistance_band/reistance_band_v0_1/resistance_band/LIB\libCH57xBLE.a(host_input.o)
 .text.HOST_HardwareErrorEvent
                0x0000000000000000       0x46 e:/Workspace/resistance_band/reistance_band_v0_1/resistance_band/LIB\libCH57xBLE.a(host_input.o)
 .text          0x0000000000000000        0x0 e:/Workspace/resistance_band/reistance_band_v0_1/resistance_band/LIB\libCH57xBLE.a(host_output.o)
 .data          0x0000000000000000        0x0 e:/Workspace/resistance_band/reistance_band_v0_1/resistance_band/LIB\libCH57xBLE.a(host_output.o)
 .bss           0x0000000000000000        0x0 e:/Workspace/resistance_band/reistance_band_v0_1/resistance_band/LIB\libCH57xBLE.a(host_output.o)
 .text.HCI_ReadRemoteVersionInfoCmd
                0x0000000000000000        0x8 e:/Workspace/resistance_band/reistance_band_v0_1/resistance_band/LIB\libCH57xBLE.a(host_output.o)
 .text.HCI_SetEventMaskCmd
                0x0000000000000000        0x4 e:/Workspace/resistance_band/reistance_band_v0_1/resistance_band/LIB\libCH57xBLE.a(host_output.o)
 .text.HCI_ResetCmd
                0x0000000000000000        0x8 e:/Workspace/resistance_band/reistance_band_v0_1/resistance_band/LIB\libCH57xBLE.a(host_output.o)
 .text.HCI_SetDataLengthCmd
                0x0000000000000000        0x8 e:/Workspace/resistance_band/reistance_band_v0_1/resistance_band/LIB\libCH57xBLE.a(host_output.o)
 .text.HCI_ReadTransmitPowerLevelCmd
                0x0000000000000000        0x8 e:/Workspace/resistance_band/reistance_band_v0_1/resistance_band/LIB\libCH57xBLE.a(host_output.o)
 .text.HCI_SetControllerToHostFlowCtrlCmd
                0x0000000000000000        0x8 e:/Workspace/resistance_band/reistance_band_v0_1/resistance_band/LIB\libCH57xBLE.a(host_output.o)
 .text.HCI_HostBufferSizeCmd
                0x0000000000000000        0x4 e:/Workspace/resistance_band/reistance_band_v0_1/resistance_band/LIB\libCH57xBLE.a(host_output.o)
 .text.HCI_SetEventMaskPage2Cmd
                0x0000000000000000        0x4 e:/Workspace/resistance_band/reistance_band_v0_1/resistance_band/LIB\libCH57xBLE.a(host_output.o)
 .text.HCI_ReadLocalSupportedCommandsCmd
                0x0000000000000000        0x8 e:/Workspace/resistance_band/reistance_band_v0_1/resistance_band/LIB\libCH57xBLE.a(host_output.o)
 .text.HCI_ReadLocalSupportedFeaturesCmd
                0x0000000000000000        0x8 e:/Workspace/resistance_band/reistance_band_v0_1/resistance_band/LIB\libCH57xBLE.a(host_output.o)
 .text.HCI_ReadRssiCmd
                0x0000000000000000        0x8 e:/Workspace/resistance_band/reistance_band_v0_1/resistance_band/LIB\libCH57xBLE.a(host_output.o)
 .text.HCI_LE_SetEventMaskCmd
                0x0000000000000000        0x4 e:/Workspace/resistance_band/reistance_band_v0_1/resistance_band/LIB\libCH57xBLE.a(host_output.o)
 .text.HCI_LE_ReadLocalSupportedFeaturesCmd
                0x0000000000000000        0x8 e:/Workspace/resistance_band/reistance_band_v0_1/resistance_band/LIB\libCH57xBLE.a(host_output.o)
 .text.HCI_LE_SetScanParamCmd
                0x0000000000000000        0x8 e:/Workspace/resistance_band/reistance_band_v0_1/resistance_band/LIB\libCH57xBLE.a(host_output.o)
 .text.HCI_LE_CreateConnCmd
                0x0000000000000000       0x20 e:/Workspace/resistance_band/reistance_band_v0_1/resistance_band/LIB\libCH57xBLE.a(host_output.o)
 .text.HCI_LE_ReadWhiteListSizeCmd
                0x0000000000000000        0x8 e:/Workspace/resistance_band/reistance_band_v0_1/resistance_band/LIB\libCH57xBLE.a(host_output.o)
 .text.HCI_LE_RemoveWhiteListCmd
                0x0000000000000000        0x8 e:/Workspace/resistance_band/reistance_band_v0_1/resistance_band/LIB\libCH57xBLE.a(host_output.o)
 .text.HCI_LE_SetHostChanClassificationCmd
                0x0000000000000000        0x8 e:/Workspace/resistance_band/reistance_band_v0_1/resistance_band/LIB\libCH57xBLE.a(host_output.o)
 .text.HCI_LE_ReadChannelMapCmd
                0x0000000000000000        0x8 e:/Workspace/resistance_band/reistance_band_v0_1/resistance_band/LIB\libCH57xBLE.a(host_output.o)
 .text.HCI_LE_ReadRemoteUsedFeaturesCmd
                0x0000000000000000        0x8 e:/Workspace/resistance_band/reistance_band_v0_1/resistance_band/LIB\libCH57xBLE.a(host_output.o)
 .text          0x0000000000000000        0x0 e:/Workspace/resistance_band/reistance_band_v0_1/resistance_band/LIB\libCH57xBLE.a(ll_connect.o)
 .data          0x0000000000000000        0x0 e:/Workspace/resistance_band/reistance_band_v0_1/resistance_band/LIB\libCH57xBLE.a(ll_connect.o)
 .bss           0x0000000000000000        0x0 e:/Workspace/resistance_band/reistance_band_v0_1/resistance_band/LIB\libCH57xBLE.a(ll_connect.o)
 .text.LL_ConnectEventRegister
                0x0000000000000000        0xa e:/Workspace/resistance_band/reistance_band_v0_1/resistance_band/LIB\libCH57xBLE.a(ll_connect.o)
 .text.ll_connect_get_master_number
                0x0000000000000000       0x1c e:/Workspace/resistance_band/reistance_band_v0_1/resistance_band/LIB\libCH57xBLE.a(ll_connect.o)
 .text.ll_connect_get_start_point
                0x0000000000000000      0x13c e:/Workspace/resistance_band/reistance_band_v0_1/resistance_band/LIB\libCH57xBLE.a(ll_connect.o)
 .text          0x0000000000000000        0x0 e:/Workspace/resistance_band/reistance_band_v0_1/resistance_band/LIB\libCH57xBLE.a(ll_core.o)
 .data          0x0000000000000000        0x0 e:/Workspace/resistance_band/reistance_band_v0_1/resistance_band/LIB\libCH57xBLE.a(ll_core.o)
 .bss           0x0000000000000000        0x0 e:/Workspace/resistance_band/reistance_band_v0_1/resistance_band/LIB\libCH57xBLE.a(ll_core.o)
 .text          0x0000000000000000        0x0 e:/Workspace/resistance_band/reistance_band_v0_1/resistance_band/LIB\libCH57xBLE.a(ll_hop.o)
 .data          0x0000000000000000        0x0 e:/Workspace/resistance_band/reistance_band_v0_1/resistance_band/LIB\libCH57xBLE.a(ll_hop.o)
 .bss           0x0000000000000000        0x0 e:/Workspace/resistance_band/reistance_band_v0_1/resistance_band/LIB\libCH57xBLE.a(ll_hop.o)
 .text.LL_HopAtleastTwoChannels
                0x0000000000000000       0x40 e:/Workspace/resistance_band/reistance_band_v0_1/resistance_band/LIB\libCH57xBLE.a(ll_hop.o)
 .text          0x0000000000000000        0x0 e:/Workspace/resistance_band/reistance_band_v0_1/resistance_band/LIB\libCH57xBLE.a(ll_master.o)
 .data          0x0000000000000000        0x0 e:/Workspace/resistance_band/reistance_band_v0_1/resistance_band/LIB\libCH57xBLE.a(ll_master.o)
 .bss           0x0000000000000000        0x0 e:/Workspace/resistance_band/reistance_band_v0_1/resistance_band/LIB\libCH57xBLE.a(ll_master.o)
 .text.LL_MasterSetFirstTimer
                0x0000000000000000      0x140 e:/Workspace/resistance_band/reistance_band_v0_1/resistance_band/LIB\libCH57xBLE.a(ll_master.o)
 .text.LL_MasterCreateCore
                0x0000000000000000      0x162 e:/Workspace/resistance_band/reistance_band_v0_1/resistance_band/LIB\libCH57xBLE.a(ll_master.o)
 .text.LL_MasterEnalbe
                0x0000000000000000       0x18 e:/Workspace/resistance_band/reistance_band_v0_1/resistance_band/LIB\libCH57xBLE.a(ll_master.o)
 .text          0x0000000000000000        0x0 e:/Workspace/resistance_band/reistance_band_v0_1/resistance_band/LIB\libCH57xBLE.a(ll_pdu.o)
 .data          0x0000000000000000        0x0 e:/Workspace/resistance_band/reistance_band_v0_1/resistance_band/LIB\libCH57xBLE.a(ll_pdu.o)
 .bss           0x0000000000000000        0x0 e:/Workspace/resistance_band/reistance_band_v0_1/resistance_band/LIB\libCH57xBLE.a(ll_pdu.o)
 .text          0x0000000000000000        0x0 e:/Workspace/resistance_band/reistance_band_v0_1/resistance_band/LIB\libCH57xBLE.a(ll_report.o)
 .data          0x0000000000000000        0x0 e:/Workspace/resistance_band/reistance_band_v0_1/resistance_band/LIB\libCH57xBLE.a(ll_report.o)
 .bss           0x0000000000000000        0x0 e:/Workspace/resistance_band/reistance_band_v0_1/resistance_band/LIB\libCH57xBLE.a(ll_report.o)
 .text          0x0000000000000000        0x0 e:/Workspace/resistance_band/reistance_band_v0_1/resistance_band/LIB\libCH57xBLE.a(ll_scan.o)
 .data          0x0000000000000000        0x0 e:/Workspace/resistance_band/reistance_band_v0_1/resistance_band/LIB\libCH57xBLE.a(ll_scan.o)
 .bss           0x0000000000000000        0x0 e:/Workspace/resistance_band/reistance_band_v0_1/resistance_band/LIB\libCH57xBLE.a(ll_scan.o)
 .text.llScanTraverseaChannel
                0x0000000000000000       0xe2 e:/Workspace/resistance_band/reistance_band_v0_1/resistance_band/LIB\libCH57xBLE.a(ll_scan.o)
 .text.llScanSet
                0x0000000000000000      0x152 e:/Workspace/resistance_band/reistance_band_v0_1/resistance_band/LIB\libCH57xBLE.a(ll_scan.o)
 .text.llScanCreateCore
                0x0000000000000000       0x7a e:/Workspace/resistance_band/reistance_band_v0_1/resistance_band/LIB\libCH57xBLE.a(ll_scan.o)
 .text.llScanStart
                0x0000000000000000       0x94 e:/Workspace/resistance_band/reistance_band_v0_1/resistance_band/LIB\libCH57xBLE.a(ll_scan.o)
 .text.ll_scan_filter
                0x0000000000000000      0x152 e:/Workspace/resistance_band/reistance_band_v0_1/resistance_band/LIB\libCH57xBLE.a(ll_scan.o)
 .text.ll_scan_whitelist
                0x0000000000000000       0x32 e:/Workspace/resistance_band/reistance_band_v0_1/resistance_band/LIB\libCH57xBLE.a(ll_scan.o)
 .text.ll_scan_add_advertising_to_report
                0x0000000000000000      0x142 e:/Workspace/resistance_band/reistance_band_v0_1/resistance_band/LIB\libCH57xBLE.a(ll_scan.o)
 .text.ll_scan_remove_all_report
                0x0000000000000000       0x26 e:/Workspace/resistance_band/reistance_band_v0_1/resistance_band/LIB\libCH57xBLE.a(ll_scan.o)
 .text.ll_scan_rx
                0x0000000000000000      0x2c2 e:/Workspace/resistance_band/reistance_band_v0_1/resistance_band/LIB\libCH57xBLE.a(ll_scan.o)
 .text.ll_scan_process
                0x0000000000000000      0x198 e:/Workspace/resistance_band/reistance_band_v0_1/resistance_band/LIB\libCH57xBLE.a(ll_scan.o)
 .text.LL_ScanShut
                0x0000000000000000       0x30 e:/Workspace/resistance_band/reistance_band_v0_1/resistance_band/LIB\libCH57xBLE.a(ll_scan.o)
 .text.LL_ScanEnable
                0x0000000000000000       0x68 e:/Workspace/resistance_band/reistance_band_v0_1/resistance_band/LIB\libCH57xBLE.a(ll_scan.o)
 .text          0x0000000000000000        0x0 e:/Workspace/resistance_band/reistance_band_v0_1/resistance_band/LIB\libCH57xBLE.a(ll_slave.o)
 .data          0x0000000000000000        0x0 e:/Workspace/resistance_band/reistance_band_v0_1/resistance_band/LIB\libCH57xBLE.a(ll_slave.o)
 .bss           0x0000000000000000        0x0 e:/Workspace/resistance_band/reistance_band_v0_1/resistance_band/LIB\libCH57xBLE.a(ll_slave.o)
 .text          0x0000000000000000        0x0 e:/Workspace/resistance_band/reistance_band_v0_1/resistance_band/LIB\libCH57xBLE.a(ll_whitelist.o)
 .data          0x0000000000000000        0x0 e:/Workspace/resistance_band/reistance_band_v0_1/resistance_band/LIB\libCH57xBLE.a(ll_whitelist.o)
 .bss           0x0000000000000000        0x0 e:/Workspace/resistance_band/reistance_band_v0_1/resistance_band/LIB\libCH57xBLE.a(ll_whitelist.o)
 .text.LL_WhitelistRemove
                0x0000000000000000       0x92 e:/Workspace/resistance_band/reistance_band_v0_1/resistance_band/LIB\libCH57xBLE.a(ll_whitelist.o)
 .text          0x0000000000000000        0x0 e:/Workspace/resistance_band/reistance_band_v0_1/resistance_band/LIB\libCH57xBLE.a(aes.o)
 .data          0x0000000000000000        0x0 e:/Workspace/resistance_band/reistance_band_v0_1/resistance_band/LIB\libCH57xBLE.a(aes.o)
 .bss           0x0000000000000000        0x0 e:/Workspace/resistance_band/reistance_band_v0_1/resistance_band/LIB\libCH57xBLE.a(aes.o)
 .text.AES_DevAESDec
                0x0000000000000000      0x1ae e:/Workspace/resistance_band/reistance_band_v0_1/resistance_band/LIB\libCH57xBLE.a(aes.o)
 .text.LL_Decrypt
                0x0000000000000000       0x14 e:/Workspace/resistance_band/reistance_band_v0_1/resistance_band/LIB\libCH57xBLE.a(aes.o)
 .text          0x0000000000000000        0x0 e:/Workspace/resistance_band/reistance_band_v0_1/resistance_band/LIB\libCH57xBLE.a(bb.o)
 .data          0x0000000000000000        0x0 e:/Workspace/resistance_band/reistance_band_v0_1/resistance_band/LIB\libCH57xBLE.a(bb.o)
 .bss           0x0000000000000000        0x0 e:/Workspace/resistance_band/reistance_band_v0_1/resistance_band/LIB\libCH57xBLE.a(bb.o)
 .text.BLE_ReadRssi
                0x0000000000000000       0x14 e:/Workspace/resistance_band/reistance_band_v0_1/resistance_band/LIB\libCH57xBLE.a(bb.o)
 .text          0x0000000000000000        0x0 e:/Workspace/resistance_band/reistance_band_v0_1/resistance_band/LIB\libCH57xBLE.a(dma.o)
 .data          0x0000000000000000        0x0 e:/Workspace/resistance_band/reistance_band_v0_1/resistance_band/LIB\libCH57xBLE.a(dma.o)
 .bss           0x0000000000000000        0x0 e:/Workspace/resistance_band/reistance_band_v0_1/resistance_band/LIB\libCH57xBLE.a(dma.o)
 .text          0x0000000000000000        0x0 e:/Workspace/resistance_band/reistance_band_v0_1/resistance_band/LIB\libCH57xBLE.a(ip.o)
 .data          0x0000000000000000        0x0 e:/Workspace/resistance_band/reistance_band_v0_1/resistance_band/LIB\libCH57xBLE.a(ip.o)
 .bss           0x0000000000000000        0x0 e:/Workspace/resistance_band/reistance_band_v0_1/resistance_band/LIB\libCH57xBLE.a(ip.o)
 .text.BLE_ReadCfo
                0x0000000000000000        0xe e:/Workspace/resistance_band/reistance_band_v0_1/resistance_band/LIB\libCH57xBLE.a(ip.o)
 .text.GetTxPower
                0x0000000000000000       0x1c e:/Workspace/resistance_band/reistance_band_v0_1/resistance_band/LIB\libCH57xBLE.a(ip.o)
 .text.ll_hw_api_rx_direct_test
                0x0000000000000000       0x9c e:/Workspace/resistance_band/reistance_band_v0_1/resistance_band/LIB\libCH57xBLE.a(ip.o)
 .text.BLE_PAControlInit
                0x0000000000000000       0x20 e:/Workspace/resistance_band/reistance_band_v0_1/resistance_band/LIB\libCH57xBLE.a(ip.o)
 .text.BLE_AccessAddressGenerate
                0x0000000000000000       0xbe e:/Workspace/resistance_band/reistance_band_v0_1/resistance_band/LIB\libCH57xBLE.a(ip.o)
 .rodata.TX_POWER
                0x0000000000000000       0x20 e:/Workspace/resistance_band/reistance_band_v0_1/resistance_band/LIB\libCH57xBLE.a(ip.o)
 .text          0x0000000000000000        0x0 e:/Workspace/resistance_band/reistance_band_v0_1/resistance_band/LIB\libCH57xBLE.a(lle.o)
 .data          0x0000000000000000        0x0 e:/Workspace/resistance_band/reistance_band_v0_1/resistance_band/LIB\libCH57xBLE.a(lle.o)
 .bss           0x0000000000000000        0x0 e:/Workspace/resistance_band/reistance_band_v0_1/resistance_band/LIB\libCH57xBLE.a(lle.o)
 .text          0x0000000000000000        0x0 e:/Workspace/resistance_band/reistance_band_v0_1/resistance_band/LIB\libCH57xBLE.a(rf_fh.o)
 .data          0x0000000000000000        0x0 e:/Workspace/resistance_band/reistance_band_v0_1/resistance_band/LIB\libCH57xBLE.a(rf_fh.o)
 .bss           0x0000000000000000        0x0 e:/Workspace/resistance_band/reistance_band_v0_1/resistance_band/LIB\libCH57xBLE.a(rf_fh.o)
 .text.RF_FrequencyHoppingGet
                0x0000000000000000       0xbc e:/Workspace/resistance_band/reistance_band_v0_1/resistance_band/LIB\libCH57xBLE.a(rf_fh.o)
 .text.rfStop   0x0000000000000000       0x28 e:/Workspace/resistance_band/reistance_band_v0_1/resistance_band/LIB\libCH57xBLE.a(rf_fh.o)
 .text.RF_TxProcess
                0x0000000000000000      0x15a e:/Workspace/resistance_band/reistance_band_v0_1/resistance_band/LIB\libCH57xBLE.a(rf_fh.o)
 .text.RF_BondingErase
                0x0000000000000000       0x58 e:/Workspace/resistance_band/reistance_band_v0_1/resistance_band/LIB\libCH57xBLE.a(rf_fh.o)
 .text.RF_Config
                0x0000000000000000      0x12e e:/Workspace/resistance_band/reistance_band_v0_1/resistance_band/LIB\libCH57xBLE.a(rf_fh.o)
 .text.RF_Tx    0x0000000000000000      0x2c4 e:/Workspace/resistance_band/reistance_band_v0_1/resistance_band/LIB\libCH57xBLE.a(rf_fh.o)
 .text.RF_FrequencyHoppingTx
                0x0000000000000000      0x3be e:/Workspace/resistance_band/reistance_band_v0_1/resistance_band/LIB\libCH57xBLE.a(rf_fh.o)
 .text.RF_RxProcess
                0x0000000000000000      0x3ea e:/Workspace/resistance_band/reistance_band_v0_1/resistance_band/LIB\libCH57xBLE.a(rf_fh.o)
 .text.RF_Shut  0x0000000000000000       0x9c e:/Workspace/resistance_band/reistance_band_v0_1/resistance_band/LIB\libCH57xBLE.a(rf_fh.o)
 .text.RF_FrequencyHoppingShut
                0x0000000000000000       0x92 e:/Workspace/resistance_band/reistance_band_v0_1/resistance_band/LIB\libCH57xBLE.a(rf_fh.o)
 .text.rf_hop_heart_beat
                0x0000000000000000      0x128 e:/Workspace/resistance_band/reistance_band_v0_1/resistance_band/LIB\libCH57xBLE.a(rf_fh.o)
 .text.RFFH_ProcessEvent
                0x0000000000000000      0x110 e:/Workspace/resistance_band/reistance_band_v0_1/resistance_band/LIB\libCH57xBLE.a(rf_fh.o)
 .text.RF_FrequencyHoppingRx
                0x0000000000000000      0x3b2 e:/Workspace/resistance_band/reistance_band_v0_1/resistance_band/LIB\libCH57xBLE.a(rf_fh.o)
 .text.RF_SetChannel
                0x0000000000000000       0x56 e:/Workspace/resistance_band/reistance_band_v0_1/resistance_band/LIB\libCH57xBLE.a(rf_fh.o)
 .text.RF_RoleInit
                0x0000000000000000       0x58 e:/Workspace/resistance_band/reistance_band_v0_1/resistance_band/LIB\libCH57xBLE.a(rf_fh.o)
 .rodata.RF_FrequencyHoppingTx.str1.4
                0x0000000000000000        0x7 e:/Workspace/resistance_band/reistance_band_v0_1/resistance_band/LIB\libCH57xBLE.a(rf_fh.o)
 .text          0x0000000000000000        0x0 e:/Workspace/resistance_band/reistance_band_v0_1/resistance_band/LIB\libCH57xBLE.a(rfend.o)
 .data          0x0000000000000000        0x0 e:/Workspace/resistance_band/reistance_band_v0_1/resistance_band/LIB\libCH57xBLE.a(rfend.o)
 .bss           0x0000000000000000        0x0 e:/Workspace/resistance_band/reistance_band_v0_1/resistance_band/LIB\libCH57xBLE.a(rfend.o)
 .text.RFEND_SetDACREF_TUNE
                0x0000000000000000       0x20 e:/Workspace/resistance_band/reistance_band_v0_1/resistance_band/LIB\libCH57xBLE.a(rfend.o)
 .text.RFEND_GetDACREF_TUNE
                0x0000000000000000       0x12 e:/Workspace/resistance_band/reistance_band_v0_1/resistance_band/LIB\libCH57xBLE.a(rfend.o)
 .text.RFEND_SetSensitivity
                0x0000000000000000       0x9a e:/Workspace/resistance_band/reistance_band_v0_1/resistance_band/LIB\libCH57xBLE.a(rfend.o)
 .text.RFEND_SetAdcMode
                0x0000000000000000        0xa e:/Workspace/resistance_band/reistance_band_v0_1/resistance_band/LIB\libCH57xBLE.a(rfend.o)
 .text.RFEND_TXCtuneSet
                0x0000000000000000       0x7e e:/Workspace/resistance_band/reistance_band_v0_1/resistance_band/LIB\libCH57xBLE.a(rfend.o)
 .text.RFEND_TXCtuneGet
                0x0000000000000000       0x70 e:/Workspace/resistance_band/reistance_band_v0_1/resistance_band/LIB\libCH57xBLE.a(rfend.o)
 .text          0x0000000000000000        0x0 e:/Workspace/resistance_band/reistance_band_v0_1/resistance_band/LIB\libCH57xBLE.a(api_c.o)
 .data          0x0000000000000000        0x0 e:/Workspace/resistance_band/reistance_band_v0_1/resistance_band/LIB\libCH57xBLE.a(api_c.o)
 .bss           0x0000000000000000        0x0 e:/Workspace/resistance_band/reistance_band_v0_1/resistance_band/LIB\libCH57xBLE.a(api_c.o)
 .text.dtmRx    0x0000000000000000       0x52 e:/Workspace/resistance_band/reistance_band_v0_1/resistance_band/LIB\libCH57xBLE.a(api_c.o)
 .text.API_ReadRemoteVersionInfoCmd
                0x0000000000000000       0x42 e:/Workspace/resistance_band/reistance_band_v0_1/resistance_band/LIB\libCH57xBLE.a(api_c.o)
 .text.API_SetEventMaskCmd
                0x0000000000000000       0x38 e:/Workspace/resistance_band/reistance_band_v0_1/resistance_band/LIB\libCH57xBLE.a(api_c.o)
 .text.API_ResetCmd
                0x0000000000000000       0x2e e:/Workspace/resistance_band/reistance_band_v0_1/resistance_band/LIB\libCH57xBLE.a(api_c.o)
 .text.API_ReadTransmitPowerLevelCmd
                0x0000000000000000       0x3e e:/Workspace/resistance_band/reistance_band_v0_1/resistance_band/LIB\libCH57xBLE.a(api_c.o)
 .text.API_SetControllerToHostFlowCtrlCmd
                0x0000000000000000       0x4a e:/Workspace/resistance_band/reistance_band_v0_1/resistance_band/LIB\libCH57xBLE.a(api_c.o)
 .text.API_HostBufferSizeCmd
                0x0000000000000000       0x2c e:/Workspace/resistance_band/reistance_band_v0_1/resistance_band/LIB\libCH57xBLE.a(api_c.o)
 .text.API_SetEventMaskPage2Cmd
                0x0000000000000000       0x38 e:/Workspace/resistance_band/reistance_band_v0_1/resistance_band/LIB\libCH57xBLE.a(api_c.o)
 .text.API_ReadAuthPayloadTimeoutCmd
                0x0000000000000000       0x40 e:/Workspace/resistance_band/reistance_band_v0_1/resistance_band/LIB\libCH57xBLE.a(api_c.o)
 .text.API_WriteAuthPayloadTimeoutCmd
                0x0000000000000000       0x3c e:/Workspace/resistance_band/reistance_band_v0_1/resistance_band/LIB\libCH57xBLE.a(api_c.o)
 .text.API_ReadLocalVersionInfoCmd
                0x0000000000000000       0x2e e:/Workspace/resistance_band/reistance_band_v0_1/resistance_band/LIB\libCH57xBLE.a(api_c.o)
 .text.API_ReadLocalSupportedCommandsCmd
                0x0000000000000000       0x5a e:/Workspace/resistance_band/reistance_band_v0_1/resistance_band/LIB\libCH57xBLE.a(api_c.o)
 .text.API_ReadLocalSupportedFeaturesCmd
                0x0000000000000000       0x2e e:/Workspace/resistance_band/reistance_band_v0_1/resistance_band/LIB\libCH57xBLE.a(api_c.o)
 .text.API_ReadReadBufferSizeCmd
                0x0000000000000000       0x3a e:/Workspace/resistance_band/reistance_band_v0_1/resistance_band/LIB\libCH57xBLE.a(api_c.o)
 .text.API_ReadRssiCmd
                0x0000000000000000       0x40 e:/Workspace/resistance_band/reistance_band_v0_1/resistance_band/LIB\libCH57xBLE.a(api_c.o)
 .text.API_LE_SetEventMaskCmd
                0x0000000000000000       0x36 e:/Workspace/resistance_band/reistance_band_v0_1/resistance_band/LIB\libCH57xBLE.a(api_c.o)
 .text.API_LE_ReadLocalSupportedFeaturesCmd
                0x0000000000000000       0x2e e:/Workspace/resistance_band/reistance_band_v0_1/resistance_band/LIB\libCH57xBLE.a(api_c.o)
 .text.API_LE_ReadAdvChanTxPowerCmd
                0x0000000000000000       0x2e e:/Workspace/resistance_band/reistance_band_v0_1/resistance_band/LIB\libCH57xBLE.a(api_c.o)
 .text.API_LE_SetScanParamCmd
                0x0000000000000000       0x2c e:/Workspace/resistance_band/reistance_band_v0_1/resistance_band/LIB\libCH57xBLE.a(api_c.o)
 .text.API_LE_CreateConnCmd
                0x0000000000000000       0x3e e:/Workspace/resistance_band/reistance_band_v0_1/resistance_band/LIB\libCH57xBLE.a(api_c.o)
 .text.API_LE_ReadWhiteListSizeCmd
                0x0000000000000000       0x2e e:/Workspace/resistance_band/reistance_band_v0_1/resistance_band/LIB\libCH57xBLE.a(api_c.o)
 .text.API_LE_RemoveWhiteListCmd
                0x0000000000000000       0x2c e:/Workspace/resistance_band/reistance_band_v0_1/resistance_band/LIB\libCH57xBLE.a(api_c.o)
 .text.API_LE_SetHostChanClassificationCmd
                0x0000000000000000       0x2c e:/Workspace/resistance_band/reistance_band_v0_1/resistance_band/LIB\libCH57xBLE.a(api_c.o)
 .text.API_LE_ReadChannelMapCmd
                0x0000000000000000       0x46 e:/Workspace/resistance_band/reistance_band_v0_1/resistance_band/LIB\libCH57xBLE.a(api_c.o)
 .text.API_LE_ReadRemoteUsedFeaturesCmd
                0x0000000000000000       0x42 e:/Workspace/resistance_band/reistance_band_v0_1/resistance_band/LIB\libCH57xBLE.a(api_c.o)
 .text.API_LE_EncryptCmd
                0x0000000000000000       0x2c e:/Workspace/resistance_band/reistance_band_v0_1/resistance_band/LIB\libCH57xBLE.a(api_c.o)
 .text.API_LE_ReadSupportedStatesCmd
                0x0000000000000000       0x2e e:/Workspace/resistance_band/reistance_band_v0_1/resistance_band/LIB\libCH57xBLE.a(api_c.o)
 .text.API_LE_ReceiverTestCmd
                0x0000000000000000       0x4c e:/Workspace/resistance_band/reistance_band_v0_1/resistance_band/LIB\libCH57xBLE.a(api_c.o)
 .text.API_LE_TransmitterTestCmd
                0x0000000000000000       0xa2 e:/Workspace/resistance_band/reistance_band_v0_1/resistance_band/LIB\libCH57xBLE.a(api_c.o)
 .text.API_LE_TestEndCmd
                0x0000000000000000       0x3e e:/Workspace/resistance_band/reistance_band_v0_1/resistance_band/LIB\libCH57xBLE.a(api_c.o)
 .text.API_MB_SetTxPowerCmd
                0x0000000000000000       0x2c e:/Workspace/resistance_band/reistance_band_v0_1/resistance_band/LIB\libCH57xBLE.a(api_c.o)
 .text.API_MB_TuneXT32MCmd
                0x0000000000000000        0x4 e:/Workspace/resistance_band/reistance_band_v0_1/resistance_band/LIB\libCH57xBLE.a(api_c.o)
 .text.API_MB_SingleCarrierCmd
                0x0000000000000000       0x2c e:/Workspace/resistance_band/reistance_band_v0_1/resistance_band/LIB\libCH57xBLE.a(api_c.o)
 .text.API_MB_WriteRegisterCmd
                0x0000000000000000       0x2a e:/Workspace/resistance_band/reistance_band_v0_1/resistance_band/LIB\libCH57xBLE.a(api_c.o)
 .text.API_MB_ReadRegisterCmd
                0x0000000000000000       0x58 e:/Workspace/resistance_band/reistance_band_v0_1/resistance_band/LIB\libCH57xBLE.a(api_c.o)
 .text.API_LE_SetDataLengthCmd
                0x0000000000000000       0x3a e:/Workspace/resistance_band/reistance_band_v0_1/resistance_band/LIB\libCH57xBLE.a(api_c.o)
 .text.API_LE_ReadSuggestedDefaultDataLength
                0x0000000000000000       0x30 e:/Workspace/resistance_band/reistance_band_v0_1/resistance_band/LIB\libCH57xBLE.a(api_c.o)
 .text.API_LE_WriteSuggestedDefaultDataLength
                0x0000000000000000       0x2e e:/Workspace/resistance_band/reistance_band_v0_1/resistance_band/LIB\libCH57xBLE.a(api_c.o)
 .text.API_LE_ReadLocalPublicKeyCmd
                0x0000000000000000        0x4 e:/Workspace/resistance_band/reistance_band_v0_1/resistance_band/LIB\libCH57xBLE.a(api_c.o)
 .text.API_LE_GenerateDHKeyCmd
                0x0000000000000000        0x4 e:/Workspace/resistance_band/reistance_band_v0_1/resistance_band/LIB\libCH57xBLE.a(api_c.o)
 .text.API_LE_RemoveDeviceFromResolvingList
                0x0000000000000000       0x2e e:/Workspace/resistance_band/reistance_band_v0_1/resistance_band/LIB\libCH57xBLE.a(api_c.o)
 .text.API_LE_ReadResolvingListSizeCmd
                0x0000000000000000       0x30 e:/Workspace/resistance_band/reistance_band_v0_1/resistance_band/LIB\libCH57xBLE.a(api_c.o)
 .text.API_LE_ReadPeerResolvableAddressCmd
                0x0000000000000000       0x30 e:/Workspace/resistance_band/reistance_band_v0_1/resistance_band/LIB\libCH57xBLE.a(api_c.o)
 .text.API_LE_ReadLocalResolvableAddressCmd
                0x0000000000000000       0x30 e:/Workspace/resistance_band/reistance_band_v0_1/resistance_band/LIB\libCH57xBLE.a(api_c.o)
 .text.API_LE_ReadMaximumDataLengthCmd
                0x0000000000000000       0x64 e:/Workspace/resistance_band/reistance_band_v0_1/resistance_band/LIB\libCH57xBLE.a(api_c.o)
 .text.API_GetConnectNumeber
                0x0000000000000000        0xa e:/Workspace/resistance_band/reistance_band_v0_1/resistance_band/LIB\libCH57xBLE.a(api_c.o)
 .text          0x0000000000000000        0x0 e:/Workspace/resistance_band/reistance_band_v0_1/resistance_band/LIB\libCH57xBLE.a(ctl_input.o)
 .data          0x0000000000000000        0x0 e:/Workspace/resistance_band/reistance_band_v0_1/resistance_band/LIB\libCH57xBLE.a(ctl_input.o)
 .bss           0x0000000000000000        0x0 e:/Workspace/resistance_band/reistance_band_v0_1/resistance_band/LIB\libCH57xBLE.a(ctl_input.o)
 .text.LL_ReceiverTest
                0x0000000000000000       0x5e e:/Workspace/resistance_band/reistance_band_v0_1/resistance_band/LIB\libCH57xBLE.a(ctl_input.o)
 .text.LL_TestEnd
                0x0000000000000000       0x84 e:/Workspace/resistance_band/reistance_band_v0_1/resistance_band/LIB\libCH57xBLE.a(ctl_input.o)
 .text.LL_SetTxPowerLevel
                0x0000000000000000       0xb4 e:/Workspace/resistance_band/reistance_band_v0_1/resistance_band/LIB\libCH57xBLE.a(ctl_input.o)
 .text.LL_SingleChannel
                0x0000000000000000       0x9e e:/Workspace/resistance_band/reistance_band_v0_1/resistance_band/LIB\libCH57xBLE.a(ctl_input.o)
 .text.LL_ReadRemoteVersionInfo
                0x0000000000000000       0x6c e:/Workspace/resistance_band/reistance_band_v0_1/resistance_band/LIB\libCH57xBLE.a(ctl_input.o)
 .text.LL_Reset
                0x0000000000000000       0x7e e:/Workspace/resistance_band/reistance_band_v0_1/resistance_band/LIB\libCH57xBLE.a(ctl_input.o)
 .text.LL_ReadTxPowerLevel
                0x0000000000000000       0x44 e:/Workspace/resistance_band/reistance_band_v0_1/resistance_band/LIB\libCH57xBLE.a(ctl_input.o)
 .text.LL_SetControllerToHostFlowCtrl
                0x0000000000000000       0x18 e:/Workspace/resistance_band/reistance_band_v0_1/resistance_band/LIB\libCH57xBLE.a(ctl_input.o)
 .text.LL_ReadAuthPayloadTimeout
                0x0000000000000000       0x2c e:/Workspace/resistance_band/reistance_band_v0_1/resistance_band/LIB\libCH57xBLE.a(ctl_input.o)
 .text.LL_WriteAuthPayloadTimeout
                0x0000000000000000       0x6a e:/Workspace/resistance_band/reistance_band_v0_1/resistance_band/LIB\libCH57xBLE.a(ctl_input.o)
 .text.LL_ReadLocalVersionInfo
                0x0000000000000000       0x52 e:/Workspace/resistance_band/reistance_band_v0_1/resistance_band/LIB\libCH57xBLE.a(ctl_input.o)
 .text.LL_ReadLocalSupportedCommands
                0x0000000000000000       0x20 e:/Workspace/resistance_band/reistance_band_v0_1/resistance_band/LIB\libCH57xBLE.a(ctl_input.o)
 .text.LL_ReadLocalSupportedFeatures
                0x0000000000000000       0x1e e:/Workspace/resistance_band/reistance_band_v0_1/resistance_band/LIB\libCH57xBLE.a(ctl_input.o)
 .text.LL_ReadRssi
                0x0000000000000000       0x26 e:/Workspace/resistance_band/reistance_band_v0_1/resistance_band/LIB\libCH57xBLE.a(ctl_input.o)
 .text.LL_LE_ReadLocalSupportedFeatures
                0x0000000000000000        0x8 e:/Workspace/resistance_band/reistance_band_v0_1/resistance_band/LIB\libCH57xBLE.a(ctl_input.o)
 .text.LL_ReadAdvChanTxPower
                0x0000000000000000       0x16 e:/Workspace/resistance_band/reistance_band_v0_1/resistance_band/LIB\libCH57xBLE.a(ctl_input.o)
 .text.LL_SetScanParam
                0x0000000000000000       0x70 e:/Workspace/resistance_band/reistance_band_v0_1/resistance_band/LIB\libCH57xBLE.a(ctl_input.o)
 .text.LL_CreateConn
                0x0000000000000000      0x1e6 e:/Workspace/resistance_band/reistance_band_v0_1/resistance_band/LIB\libCH57xBLE.a(ctl_input.o)
 .text.LL_ReadSuggestedDefaultDataLength
                0x0000000000000000       0x30 e:/Workspace/resistance_band/reistance_band_v0_1/resistance_band/LIB\libCH57xBLE.a(ctl_input.o)
 .text.LL_WriteSuggestedDefaultDataLength
                0x0000000000000000       0x14 e:/Workspace/resistance_band/reistance_band_v0_1/resistance_band/LIB\libCH57xBLE.a(ctl_input.o)
 .text.LL_SetDataLength
                0x0000000000000000       0x80 e:/Workspace/resistance_band/reistance_band_v0_1/resistance_band/LIB\libCH57xBLE.a(ctl_input.o)
 .text.LL_ReadSupportedStates
                0x0000000000000000       0x4e e:/Workspace/resistance_band/reistance_band_v0_1/resistance_band/LIB\libCH57xBLE.a(ctl_input.o)
 .text.LL_RemoveWhiteListDevice
                0x0000000000000000       0x76 e:/Workspace/resistance_band/reistance_band_v0_1/resistance_band/LIB\libCH57xBLE.a(ctl_input.o)
 .text.LL_ReadWlSize
                0x0000000000000000       0x10 e:/Workspace/resistance_band/reistance_band_v0_1/resistance_band/LIB\libCH57xBLE.a(ctl_input.o)
 .text.LL_SetHostChanClassification
                0x0000000000000000       0x46 e:/Workspace/resistance_band/reistance_band_v0_1/resistance_band/LIB\libCH57xBLE.a(ctl_input.o)
 .text.LL_ReadChanMap
                0x0000000000000000       0x32 e:/Workspace/resistance_band/reistance_band_v0_1/resistance_band/LIB\libCH57xBLE.a(ctl_input.o)
 .text.LL_ReadRemoteUsedFeatures
                0x0000000000000000       0x32 e:/Workspace/resistance_band/reistance_band_v0_1/resistance_band/LIB\libCH57xBLE.a(ctl_input.o)
 .text.LL_RemoveDeviceFromResolvingList
                0x0000000000000000       0x7a e:/Workspace/resistance_band/reistance_band_v0_1/resistance_band/LIB\libCH57xBLE.a(ctl_input.o)
 .text.LL_ReadResolvingListSize
                0x0000000000000000       0x10 e:/Workspace/resistance_band/reistance_band_v0_1/resistance_band/LIB\libCH57xBLE.a(ctl_input.o)
 .text.LL_ReadPeerResolvableAddress
                0x0000000000000000       0x44 e:/Workspace/resistance_band/reistance_band_v0_1/resistance_band/LIB\libCH57xBLE.a(ctl_input.o)
 .text.LL_ReadLocalResolvableAddress
                0x0000000000000000       0x44 e:/Workspace/resistance_band/reistance_band_v0_1/resistance_band/LIB\libCH57xBLE.a(ctl_input.o)
 .rodata.supportedCmdsTable
                0x0000000000000000       0x40 e:/Workspace/resistance_band/reistance_band_v0_1/resistance_band/LIB\libCH57xBLE.a(ctl_input.o)
 .text          0x0000000000000000        0x0 e:/Workspace/resistance_band/reistance_band_v0_1/resistance_band/LIB\libCH57xBLE.a(ctl_output.o)
 .data          0x0000000000000000        0x0 e:/Workspace/resistance_band/reistance_band_v0_1/resistance_band/LIB\libCH57xBLE.a(ctl_output.o)
 .bss           0x0000000000000000        0x0 e:/Workspace/resistance_band/reistance_band_v0_1/resistance_band/LIB\libCH57xBLE.a(ctl_output.o)
 .text.HCI_SetEventMask
                0x0000000000000000        0x2 e:/Workspace/resistance_band/reistance_band_v0_1/resistance_band/LIB\libCH57xBLE.a(ctl_output.o)
 .text.HCI_SetEventMaskPage2
                0x0000000000000000        0x2 e:/Workspace/resistance_band/reistance_band_v0_1/resistance_band/LIB\libCH57xBLE.a(ctl_output.o)
 .text.HCI_SetLeEventMask
                0x0000000000000000       0x14 e:/Workspace/resistance_band/reistance_band_v0_1/resistance_band/LIB\libCH57xBLE.a(ctl_output.o)
 .text.HCI_LE_AdvertisingReportCback
                0x0000000000000000        0xc e:/Workspace/resistance_band/reistance_band_v0_1/resistance_band/LIB\libCH57xBLE.a(ctl_output.o)
 .text.HCI_LE_ReadLocalPublicKeyCompleteCback
                0x0000000000000000        0x8 e:/Workspace/resistance_band/reistance_band_v0_1/resistance_band/LIB\libCH57xBLE.a(ctl_output.o)
 .text.HCI_LE_GenerateDHKeyCompleteCback
                0x0000000000000000        0x8 e:/Workspace/resistance_band/reistance_band_v0_1/resistance_band/LIB\libCH57xBLE.a(ctl_output.o)
 .text.HCI_LE_DirectAdvertisingReportCback
                0x0000000000000000        0xc e:/Workspace/resistance_band/reistance_band_v0_1/resistance_band/LIB\libCH57xBLE.a(ctl_output.o)
 .text.HCI_HardwareErrorCback
                0x0000000000000000        0x8 e:/Workspace/resistance_band/reistance_band_v0_1/resistance_band/LIB\libCH57xBLE.a(ctl_output.o)
 .text          0x0000000000000000        0x0 e:/Workspace/resistance_band/reistance_band_v0_1/resistance_band/LIB\libCH57xBLE.a(gapbondmgr.o)
 .data          0x0000000000000000        0x0 e:/Workspace/resistance_band/reistance_band_v0_1/resistance_band/LIB\libCH57xBLE.a(gapbondmgr.o)
 .bss           0x0000000000000000        0x0 e:/Workspace/resistance_band/reistance_band_v0_1/resistance_band/LIB\libCH57xBLE.a(gapbondmgr.o)
 .text.GAPBondMgr_CentralRegister
                0x0000000000000000       0x46 e:/Workspace/resistance_band/reistance_band_v0_1/resistance_band/LIB\libCH57xBLE.a(gapbondmgr.o)
 .text.GAPBondMgr_PasscodeRsp
                0x0000000000000000       0x4a e:/Workspace/resistance_band/reistance_band_v0_1/resistance_band/LIB\libCH57xBLE.a(gapbondmgr.o)
 .text.GAPBondMgr_CheckNVLen
                0x0000000000000000       0x3a e:/Workspace/resistance_band/reistance_band_v0_1/resistance_band/LIB\libCH57xBLE.a(gapbondmgr.o)
 .rodata.GAPBondMgr_CheckNVLen
                0x0000000000000000       0x18 e:/Workspace/resistance_band/reistance_band_v0_1/resistance_band/LIB\libCH57xBLE.a(gapbondmgr.o)
 .text          0x0000000000000000        0x0 e:/Workspace/resistance_band/reistance_band_v0_1/resistance_band/LIB\libCH57xBLE.a(peripheral.o)
 .data          0x0000000000000000        0x0 e:/Workspace/resistance_band/reistance_band_v0_1/resistance_band/LIB\libCH57xBLE.a(peripheral.o)
 .bss           0x0000000000000000        0x0 e:/Workspace/resistance_band/reistance_band_v0_1/resistance_band/LIB\libCH57xBLE.a(peripheral.o)
 .text.GAPRole_PeripheralLinkNum
                0x0000000000000000        0x8 e:/Workspace/resistance_band/reistance_band_v0_1/resistance_band/LIB\libCH57xBLE.a(peripheral.o)
 .text          0x0000000000000000        0x0 e:/Workspace/resistance_band/reistance_band_v0_1/resistance_band/LIB\libCH57xBLE.a(role.o)
 .data          0x0000000000000000        0x0 e:/Workspace/resistance_band/reistance_band_v0_1/resistance_band/LIB\libCH57xBLE.a(role.o)
 .bss           0x0000000000000000        0x0 e:/Workspace/resistance_band/reistance_band_v0_1/resistance_band/LIB\libCH57xBLE.a(role.o)
 .text.GAPRole_RegisterCentralTaskID
                0x0000000000000000       0x2e e:/Workspace/resistance_band/reistance_band_v0_1/resistance_band/LIB\libCH57xBLE.a(role.o)
 .text.GAPRole_ReadRssiCmd
                0x0000000000000000        0x8 e:/Workspace/resistance_band/reistance_band_v0_1/resistance_band/LIB\libCH57xBLE.a(role.o)
 .text.GAPRole_TerminateLink
                0x0000000000000000       0x2c e:/Workspace/resistance_band/reistance_band_v0_1/resistance_band/LIB\libCH57xBLE.a(role.o)
 .text.GAPRole_ObserverInit
                0x0000000000000000       0xa8 e:/Workspace/resistance_band/reistance_band_v0_1/resistance_band/LIB\libCH57xBLE.a(role.o)
 .text.GAPRole_BroadcasterInit
                0x0000000000000000       0xa8 e:/Workspace/resistance_band/reistance_band_v0_1/resistance_band/LIB\libCH57xBLE.a(role.o)
 .text.GAPRole_CentralInit
                0x0000000000000000       0xbe e:/Workspace/resistance_band/reistance_band_v0_1/resistance_band/LIB\libCH57xBLE.a(role.o)
 .text          0x0000000000000000        0x0 e:/Workspace/resistance_band/reistance_band_v0_1/resistance_band/LIB\libCH57xBLE.a(memory.o)
 .data          0x0000000000000000        0x0 e:/Workspace/resistance_band/reistance_band_v0_1/resistance_band/LIB\libCH57xBLE.a(memory.o)
 .bss           0x0000000000000000        0x0 e:/Workspace/resistance_band/reistance_band_v0_1/resistance_band/LIB\libCH57xBLE.a(memory.o)
 .text.tmos_memory_getlen
                0x0000000000000000       0x2c e:/Workspace/resistance_band/reistance_band_v0_1/resistance_band/LIB\libCH57xBLE.a(memory.o)
 .text.tmos_memory_get_max_block_len
                0x0000000000000000       0x30 e:/Workspace/resistance_band/reistance_band_v0_1/resistance_band/LIB\libCH57xBLE.a(memory.o)
 .text          0x0000000000000000        0x0 e:/Workspace/resistance_band/reistance_band_v0_1/resistance_band/LIB\libCH57xBLE.a(att.o)
 .data          0x0000000000000000        0x0 e:/Workspace/resistance_band/reistance_band_v0_1/resistance_band/LIB\libCH57xBLE.a(att.o)
 .bss           0x0000000000000000        0x0 e:/Workspace/resistance_band/reistance_band_v0_1/resistance_band/LIB\libCH57xBLE.a(att.o)
 .text.ATT_ConvertUUIDto16
                0x0000000000000000       0x5c e:/Workspace/resistance_band/reistance_band_v0_1/resistance_band/LIB\libCH57xBLE.a(att.o)
 .text.ATT_RegisterClient
                0x0000000000000000        0xa e:/Workspace/resistance_band/reistance_band_v0_1/resistance_band/LIB\libCH57xBLE.a(att.o)
 .text.ATT_ParseErrorRsp
                0x0000000000000000       0x2e e:/Workspace/resistance_band/reistance_band_v0_1/resistance_band/LIB\libCH57xBLE.a(att.o)
 .text.ATT_HandleValueCfm
                0x0000000000000000       0x36 e:/Workspace/resistance_band/reistance_band_v0_1/resistance_band/LIB\libCH57xBLE.a(att.o)
 .text          0x0000000000000000        0x0 e:/Workspace/resistance_band/reistance_band_v0_1/resistance_band/LIB\libCH57xBLE.a(att_client.o)
 .data          0x0000000000000000        0x0 e:/Workspace/resistance_band/reistance_band_v0_1/resistance_band/LIB\libCH57xBLE.a(att_client.o)
 .bss           0x0000000000000000        0x0 e:/Workspace/resistance_band/reistance_band_v0_1/resistance_band/LIB\libCH57xBLE.a(att_client.o)
 .text.ATT_BuildExchangeMTUReq
                0x0000000000000000       0x16 e:/Workspace/resistance_band/reistance_band_v0_1/resistance_band/LIB\libCH57xBLE.a(att_client.o)
 .text.ATT_BuildFindInfoReq
                0x0000000000000000       0x28 e:/Workspace/resistance_band/reistance_band_v0_1/resistance_band/LIB\libCH57xBLE.a(att_client.o)
 .text.ATT_BuildFindByTypeValueReq
                0x0000000000000000       0x40 e:/Workspace/resistance_band/reistance_band_v0_1/resistance_band/LIB\libCH57xBLE.a(att_client.o)
 .text.ATT_BuildReadReq
                0x0000000000000000       0x16 e:/Workspace/resistance_band/reistance_band_v0_1/resistance_band/LIB\libCH57xBLE.a(att_client.o)
 .text.ATT_BuildReadBlobReq
                0x0000000000000000       0x28 e:/Workspace/resistance_band/reistance_band_v0_1/resistance_band/LIB\libCH57xBLE.a(att_client.o)
 .text.ATT_BuildReadMultiReq
                0x0000000000000000        0xc e:/Workspace/resistance_band/reistance_band_v0_1/resistance_band/LIB\libCH57xBLE.a(att_client.o)
 .text.ATT_BuildWriteReq
                0x0000000000000000       0x1e e:/Workspace/resistance_band/reistance_band_v0_1/resistance_band/LIB\libCH57xBLE.a(att_client.o)
 .text.ATT_BuildPrepareWriteReq
                0x0000000000000000       0x30 e:/Workspace/resistance_band/reistance_band_v0_1/resistance_band/LIB\libCH57xBLE.a(att_client.o)
 .text.ATT_BuildExecuteWriteReq
                0x0000000000000000        0xc e:/Workspace/resistance_band/reistance_band_v0_1/resistance_band/LIB\libCH57xBLE.a(att_client.o)
 .text.ATT_BuildReadByTypeReq
                0x0000000000000000       0x4a e:/Workspace/resistance_band/reistance_band_v0_1/resistance_band/LIB\libCH57xBLE.a(att_client.o)
 .text.ATT_ParseExchangeMTURsp
                0x0000000000000000       0x1e e:/Workspace/resistance_band/reistance_band_v0_1/resistance_band/LIB\libCH57xBLE.a(att_client.o)
 .text.ATT_ExchangeMTUReq
                0x0000000000000000       0x50 e:/Workspace/resistance_band/reistance_band_v0_1/resistance_band/LIB\libCH57xBLE.a(att_client.o)
 .text.ATT_ParseFindInfoRsp
                0x0000000000000000       0x48 e:/Workspace/resistance_band/reistance_band_v0_1/resistance_band/LIB\libCH57xBLE.a(att_client.o)
 .text.ATT_FindInfoReq
                0x0000000000000000       0x16 e:/Workspace/resistance_band/reistance_band_v0_1/resistance_band/LIB\libCH57xBLE.a(att_client.o)
 .text.ATT_ParseFindByTypeValueRsp
                0x0000000000000000       0x1c e:/Workspace/resistance_band/reistance_band_v0_1/resistance_band/LIB\libCH57xBLE.a(att_client.o)
 .text.ATT_FindByTypeValueReq
                0x0000000000000000       0x48 e:/Workspace/resistance_band/reistance_band_v0_1/resistance_band/LIB\libCH57xBLE.a(att_client.o)
 .text.ATT_ParseReadByTypeRsp
                0x0000000000000000       0x32 e:/Workspace/resistance_band/reistance_band_v0_1/resistance_band/LIB\libCH57xBLE.a(att_client.o)
 .text.ATT_ReadByTypeReq
                0x0000000000000000       0x2a e:/Workspace/resistance_band/reistance_band_v0_1/resistance_band/LIB\libCH57xBLE.a(att_client.o)
 .text.ATT_ParseReadRsp
                0x0000000000000000        0xe e:/Workspace/resistance_band/reistance_band_v0_1/resistance_band/LIB\libCH57xBLE.a(att_client.o)
 .text.ATT_ReadReq
                0x0000000000000000       0x16 e:/Workspace/resistance_band/reistance_band_v0_1/resistance_band/LIB\libCH57xBLE.a(att_client.o)
 .text.ATT_ParseReadBlobRsp
                0x0000000000000000        0xe e:/Workspace/resistance_band/reistance_band_v0_1/resistance_band/LIB\libCH57xBLE.a(att_client.o)
 .text.ATT_ReadBlobReq
                0x0000000000000000       0x16 e:/Workspace/resistance_band/reistance_band_v0_1/resistance_band/LIB\libCH57xBLE.a(att_client.o)
 .text.ATT_ParseReadMultiRsp
                0x0000000000000000        0xe e:/Workspace/resistance_band/reistance_band_v0_1/resistance_band/LIB\libCH57xBLE.a(att_client.o)
 .text.ATT_ReadMultiReq
                0x0000000000000000       0x4e e:/Workspace/resistance_band/reistance_band_v0_1/resistance_band/LIB\libCH57xBLE.a(att_client.o)
 .text.ATT_ParseReadByGrpTypeRsp
                0x0000000000000000       0x34 e:/Workspace/resistance_band/reistance_band_v0_1/resistance_band/LIB\libCH57xBLE.a(att_client.o)
 .text.ATT_ReadByGrpTypeReq
                0x0000000000000000       0x2a e:/Workspace/resistance_band/reistance_band_v0_1/resistance_band/LIB\libCH57xBLE.a(att_client.o)
 .text.ATT_ParseWriteRsp
                0x0000000000000000        0xa e:/Workspace/resistance_band/reistance_band_v0_1/resistance_band/LIB\libCH57xBLE.a(att_client.o)
 .text.ATT_WriteReq
                0x0000000000000000       0x78 e:/Workspace/resistance_band/reistance_band_v0_1/resistance_band/LIB\libCH57xBLE.a(att_client.o)
 .text.ATT_ParsePrepareWriteRsp
                0x0000000000000000       0x44 e:/Workspace/resistance_band/reistance_band_v0_1/resistance_band/LIB\libCH57xBLE.a(att_client.o)
 .text.ATT_PrepareWriteReq
                0x0000000000000000       0x38 e:/Workspace/resistance_band/reistance_band_v0_1/resistance_band/LIB\libCH57xBLE.a(att_client.o)
 .text.ATT_ParseExecuteWriteRsp
                0x0000000000000000        0xa e:/Workspace/resistance_band/reistance_band_v0_1/resistance_band/LIB\libCH57xBLE.a(att_client.o)
 .text.ATT_ExecuteWriteReq
                0x0000000000000000       0x16 e:/Workspace/resistance_band/reistance_band_v0_1/resistance_band/LIB\libCH57xBLE.a(att_client.o)
 .text.ATT_ParseHandleValueInd
                0x0000000000000000       0x34 e:/Workspace/resistance_band/reistance_band_v0_1/resistance_band/LIB\libCH57xBLE.a(att_client.o)
 .text.ATT_HandleValueConfirmation
                0x0000000000000000       0x10 e:/Workspace/resistance_band/reistance_band_v0_1/resistance_band/LIB\libCH57xBLE.a(att_client.o)
 .comment       0x0000000000000000       0x34 e:/Workspace/resistance_band/reistance_band_v0_1/resistance_band/LIB\libCH57xBLE.a(att_client.o)
 .text          0x0000000000000000        0x0 e:/Workspace/resistance_band/reistance_band_v0_1/resistance_band/LIB\libCH57xBLE.a(att_server.o)
 .data          0x0000000000000000        0x0 e:/Workspace/resistance_band/reistance_band_v0_1/resistance_band/LIB\libCH57xBLE.a(att_server.o)
 .bss           0x0000000000000000        0x0 e:/Workspace/resistance_band/reistance_band_v0_1/resistance_band/LIB\libCH57xBLE.a(att_server.o)
 .text.ATT_ParseHandleValueCfm
                0x0000000000000000        0xa e:/Workspace/resistance_band/reistance_band_v0_1/resistance_band/LIB\libCH57xBLE.a(att_server.o)
 .text          0x0000000000000000        0x0 e:/Workspace/resistance_band/reistance_band_v0_1/resistance_band/LIB\libCH57xBLE.a(ll.o)
 .data          0x0000000000000000        0x0 e:/Workspace/resistance_band/reistance_band_v0_1/resistance_band/LIB\libCH57xBLE.a(ll.o)
 .bss           0x0000000000000000        0x0 e:/Workspace/resistance_band/reistance_band_v0_1/resistance_band/LIB\libCH57xBLE.a(ll.o)
 .text          0x0000000000000000        0x0 e:/Workspace/resistance_band/reistance_band_v0_1/resistance_band/LIB\libCH57xBLE.a(ll_advertise.o)
 .data          0x0000000000000000        0x0 e:/Workspace/resistance_band/reistance_band_v0_1/resistance_band/LIB\libCH57xBLE.a(ll_advertise.o)
 .bss           0x0000000000000000        0x0 e:/Workspace/resistance_band/reistance_band_v0_1/resistance_band/LIB\libCH57xBLE.a(ll_advertise.o)
 .text.LL_AdvertiseShut
                0x0000000000000000       0x2c e:/Workspace/resistance_band/reistance_band_v0_1/resistance_band/LIB\libCH57xBLE.a(ll_advertise.o)
 .text.LL_AdvertiseEventRegister
                0x0000000000000000        0xa e:/Workspace/resistance_band/reistance_band_v0_1/resistance_band/LIB\libCH57xBLE.a(ll_advertise.o)
 .text          0x0000000000000000        0x0 e:/Workspace/resistance_band/reistance_band_v0_1/resistance_band/LIB\libCH57xBLE.a(ll_initiate.o)
 .data          0x0000000000000000        0x0 e:/Workspace/resistance_band/reistance_band_v0_1/resistance_band/LIB\libCH57xBLE.a(ll_initiate.o)
 .bss           0x0000000000000000        0x0 e:/Workspace/resistance_band/reistance_band_v0_1/resistance_band/LIB\libCH57xBLE.a(ll_initiate.o)
 .text.llInitiateStart
                0x0000000000000000       0x86 e:/Workspace/resistance_band/reistance_band_v0_1/resistance_band/LIB\libCH57xBLE.a(ll_initiate.o)
 .text.llInitiateTraverseaChannel
                0x0000000000000000       0xea e:/Workspace/resistance_band/reistance_band_v0_1/resistance_band/LIB\libCH57xBLE.a(ll_initiate.o)
 .text.llInitiateSet
                0x0000000000000000      0x188 e:/Workspace/resistance_band/reistance_band_v0_1/resistance_band/LIB\libCH57xBLE.a(ll_initiate.o)
 .text.llInitiateCreateCore
                0x0000000000000000       0x72 e:/Workspace/resistance_band/reistance_band_v0_1/resistance_band/LIB\libCH57xBLE.a(ll_initiate.o)
 .text.ll_initiate_filter
                0x0000000000000000      0x192 e:/Workspace/resistance_band/reistance_band_v0_1/resistance_band/LIB\libCH57xBLE.a(ll_initiate.o)
 .text.ll_initiate_process
                0x0000000000000000      0x518 e:/Workspace/resistance_band/reistance_band_v0_1/resistance_band/LIB\libCH57xBLE.a(ll_initiate.o)
 .text.LL_InitiateShut
                0x0000000000000000       0xa6 e:/Workspace/resistance_band/reistance_band_v0_1/resistance_band/LIB\libCH57xBLE.a(ll_initiate.o)
 .text.LL_InitiateEnable
                0x0000000000000000       0x22 e:/Workspace/resistance_band/reistance_band_v0_1/resistance_band/LIB\libCH57xBLE.a(ll_initiate.o)
 .text          0x0000000000000000        0x0 e:/Workspace/resistance_band/reistance_band_v0_1/resistance_band/LIB\libCH57xBLE.a(ll_resolvinglist.o)
 .data          0x0000000000000000        0x0 e:/Workspace/resistance_band/reistance_band_v0_1/resistance_band/LIB\libCH57xBLE.a(ll_resolvinglist.o)
 .bss           0x0000000000000000        0x0 e:/Workspace/resistance_band/reistance_band_v0_1/resistance_band/LIB\libCH57xBLE.a(ll_resolvinglist.o)
 .text.LL_ResolvinglistRemove
                0x0000000000000000       0xae e:/Workspace/resistance_band/reistance_band_v0_1/resistance_band/LIB\libCH57xBLE.a(ll_resolvinglist.o)
 .text.LL_ResolvinglistLocalRpaAddressGetIrk
                0x0000000000000000       0x40 e:/Workspace/resistance_band/reistance_band_v0_1/resistance_band/LIB\libCH57xBLE.a(ll_resolvinglist.o)
 .text.LL_ResolvinglistCheckPeerResolution
                0x0000000000000000       0x62 e:/Workspace/resistance_band/reistance_band_v0_1/resistance_band/LIB\libCH57xBLE.a(ll_resolvinglist.o)
 .text.LL_ResolvinglistCheckLocalResolution
                0x0000000000000000       0x62 e:/Workspace/resistance_band/reistance_band_v0_1/resistance_band/LIB\libCH57xBLE.a(ll_resolvinglist.o)
 .text          0x0000000000000000        0x0 e:/Workspace/resistance_band/reistance_band_v0_1/resistance_band/LIB\libCH57xBLE.a(broadcaster.o)
 .data          0x0000000000000000        0x0 e:/Workspace/resistance_band/reistance_band_v0_1/resistance_band/LIB\libCH57xBLE.a(broadcaster.o)
 .bss           0x0000000000000000        0x0 e:/Workspace/resistance_band/reistance_band_v0_1/resistance_band/LIB\libCH57xBLE.a(broadcaster.o)
 .text.GAPRole_BroadcasterProcessEvent
                0x0000000000000000      0x1e6 e:/Workspace/resistance_band/reistance_band_v0_1/resistance_band/LIB\libCH57xBLE.a(broadcaster.o)
 .text.GAPRole_BroadcasterStartDevice
                0x0000000000000000       0x46 e:/Workspace/resistance_band/reistance_band_v0_1/resistance_band/LIB\libCH57xBLE.a(broadcaster.o)
 .text.GAPRole_BroadcasterSetCB
                0x0000000000000000        0xa e:/Workspace/resistance_band/reistance_band_v0_1/resistance_band/LIB\libCH57xBLE.a(broadcaster.o)
 .text.GAPRole_BroadcasterEnable
                0x0000000000000000       0x86 e:/Workspace/resistance_band/reistance_band_v0_1/resistance_band/LIB\libCH57xBLE.a(broadcaster.o)
 .text          0x0000000000000000        0x0 e:/Workspace/resistance_band/reistance_band_v0_1/resistance_band/LIB\libCH57xBLE.a(central.o)
 .data          0x0000000000000000        0x0 e:/Workspace/resistance_band/reistance_band_v0_1/resistance_band/LIB\libCH57xBLE.a(central.o)
 .bss           0x0000000000000000        0x0 e:/Workspace/resistance_band/reistance_band_v0_1/resistance_band/LIB\libCH57xBLE.a(central.o)
 .text.GAPRole_CentralProcessEvent
                0x0000000000000000      0x20e e:/Workspace/resistance_band/reistance_band_v0_1/resistance_band/LIB\libCH57xBLE.a(central.o)
 .text.GAPRole_CentralStartDevice
                0x0000000000000000       0x76 e:/Workspace/resistance_band/reistance_band_v0_1/resistance_band/LIB\libCH57xBLE.a(central.o)
 .text.GAPRole_CentralEstablishLink
                0x0000000000000000       0x3e e:/Workspace/resistance_band/reistance_band_v0_1/resistance_band/LIB\libCH57xBLE.a(central.o)
 .text.GAPRole_UpdateLink
                0x0000000000000000        0xc e:/Workspace/resistance_band/reistance_band_v0_1/resistance_band/LIB\libCH57xBLE.a(central.o)
 .text.GAPRole_CentralStartDiscovery
                0x0000000000000000       0x30 e:/Workspace/resistance_band/reistance_band_v0_1/resistance_band/LIB\libCH57xBLE.a(central.o)
 .text.GAPRole_CentralCancelDiscovery
                0x0000000000000000       0x10 e:/Workspace/resistance_band/reistance_band_v0_1/resistance_band/LIB\libCH57xBLE.a(central.o)
 .text.GAPRole_CentralEnable
                0x0000000000000000       0xe0 e:/Workspace/resistance_band/reistance_band_v0_1/resistance_band/LIB\libCH57xBLE.a(central.o)
 .sbss.gapCentralRoleTaskId
                0x0000000000000000        0x1 e:/Workspace/resistance_band/reistance_band_v0_1/resistance_band/LIB\libCH57xBLE.a(central.o)
 .sbss.pGapCentralRoleCB
                0x0000000000000000        0x4 e:/Workspace/resistance_band/reistance_band_v0_1/resistance_band/LIB\libCH57xBLE.a(central.o)
 .comment       0x0000000000000000       0x34 e:/Workspace/resistance_band/reistance_band_v0_1/resistance_band/LIB\libCH57xBLE.a(central.o)
 .text          0x0000000000000000        0x0 e:/Workspace/resistance_band/reistance_band_v0_1/resistance_band/LIB\libCH57xBLE.a(observer.o)
 .data          0x0000000000000000        0x0 e:/Workspace/resistance_band/reistance_band_v0_1/resistance_band/LIB\libCH57xBLE.a(observer.o)
 .bss           0x0000000000000000        0x0 e:/Workspace/resistance_band/reistance_band_v0_1/resistance_band/LIB\libCH57xBLE.a(observer.o)
 .text.GAPRole_ObserverProcessEvent
                0x0000000000000000       0x86 e:/Workspace/resistance_band/reistance_band_v0_1/resistance_band/LIB\libCH57xBLE.a(observer.o)
 .text.GAPRole_ObserverStartDevice
                0x0000000000000000       0x2a e:/Workspace/resistance_band/reistance_band_v0_1/resistance_band/LIB\libCH57xBLE.a(observer.o)
 .text.GAPRole_ObserverStartDiscovery
                0x0000000000000000       0x30 e:/Workspace/resistance_band/reistance_band_v0_1/resistance_band/LIB\libCH57xBLE.a(observer.o)
 .text.GAPRole_ObserverCancelDiscovery
                0x0000000000000000       0x10 e:/Workspace/resistance_band/reistance_band_v0_1/resistance_band/LIB\libCH57xBLE.a(observer.o)
 .text.GAPRole_ObserverEnable
                0x0000000000000000       0x5a e:/Workspace/resistance_band/reistance_band_v0_1/resistance_band/LIB\libCH57xBLE.a(observer.o)
 .sbss.pGapObserverRoleCB
                0x0000000000000000        0x4 e:/Workspace/resistance_band/reistance_band_v0_1/resistance_band/LIB\libCH57xBLE.a(observer.o)
 .comment       0x0000000000000000       0x34 e:/Workspace/resistance_band/reistance_band_v0_1/resistance_band/LIB\libCH57xBLE.a(observer.o)
 .text          0x0000000000000000        0x0 e:/Workspace/resistance_band/reistance_band_v0_1/resistance_band/LIB\libCH57xBLE.a(ll_address.o)
 .data          0x0000000000000000        0x0 e:/Workspace/resistance_band/reistance_band_v0_1/resistance_band/LIB\libCH57xBLE.a(ll_address.o)
 .bss           0x0000000000000000        0x0 e:/Workspace/resistance_band/reistance_band_v0_1/resistance_band/LIB\libCH57xBLE.a(ll_address.o)
 .text.LL_AddrCreateOwnAddress
                0x0000000000000000        0x2 e:/Workspace/resistance_band/reistance_band_v0_1/resistance_band/LIB\libCH57xBLE.a(ll_address.o)
 .text          0x0000000000000000        0x0 d:/mounriver/mounriver_studio2/resources/app/resources/win32/components/wch/toolchain/risc-v embedded gcc/bin/../lib/gcc/riscv-none-embed/8.2.0/rv32imac/ilp32\libgcc.a(_lshrdi3.o)
 .data          0x0000000000000000        0x0 d:/mounriver/mounriver_studio2/resources/app/resources/win32/components/wch/toolchain/risc-v embedded gcc/bin/../lib/gcc/riscv-none-embed/8.2.0/rv32imac/ilp32\libgcc.a(_lshrdi3.o)
 .bss           0x0000000000000000        0x0 d:/mounriver/mounriver_studio2/resources/app/resources/win32/components/wch/toolchain/risc-v embedded gcc/bin/../lib/gcc/riscv-none-embed/8.2.0/rv32imac/ilp32\libgcc.a(_lshrdi3.o)
 .text          0x0000000000000000        0x0 d:/mounriver/mounriver_studio2/resources/app/resources/win32/components/wch/toolchain/risc-v embedded gcc/bin/../lib/gcc/riscv-none-embed/8.2.0/rv32imac/ilp32\libgcc.a(_ashrdi3.o)
 .data          0x0000000000000000        0x0 d:/mounriver/mounriver_studio2/resources/app/resources/win32/components/wch/toolchain/risc-v embedded gcc/bin/../lib/gcc/riscv-none-embed/8.2.0/rv32imac/ilp32\libgcc.a(_ashrdi3.o)
 .bss           0x0000000000000000        0x0 d:/mounriver/mounriver_studio2/resources/app/resources/win32/components/wch/toolchain/risc-v embedded gcc/bin/../lib/gcc/riscv-none-embed/8.2.0/rv32imac/ilp32\libgcc.a(_ashrdi3.o)
 .text.__ashrdi3
                0x0000000000000000       0x2e d:/mounriver/mounriver_studio2/resources/app/resources/win32/components/wch/toolchain/risc-v embedded gcc/bin/../lib/gcc/riscv-none-embed/8.2.0/rv32imac/ilp32\libgcc.a(_ashrdi3.o)
 .debug_frame   0x0000000000000000       0x20 d:/mounriver/mounriver_studio2/resources/app/resources/win32/components/wch/toolchain/risc-v embedded gcc/bin/../lib/gcc/riscv-none-embed/8.2.0/rv32imac/ilp32\libgcc.a(_ashrdi3.o)
 .text          0x0000000000000000        0x0 d:/mounriver/mounriver_studio2/resources/app/resources/win32/components/wch/toolchain/risc-v embedded gcc/bin/../lib/gcc/riscv-none-embed/8.2.0/rv32imac/ilp32\libgcc.a(_divdi3.o)
 .data          0x0000000000000000        0x0 d:/mounriver/mounriver_studio2/resources/app/resources/win32/components/wch/toolchain/risc-v embedded gcc/bin/../lib/gcc/riscv-none-embed/8.2.0/rv32imac/ilp32\libgcc.a(_divdi3.o)
 .bss           0x0000000000000000        0x0 d:/mounriver/mounriver_studio2/resources/app/resources/win32/components/wch/toolchain/risc-v embedded gcc/bin/../lib/gcc/riscv-none-embed/8.2.0/rv32imac/ilp32\libgcc.a(_divdi3.o)
 .text.__divdi3
                0x0000000000000000      0x3d8 d:/mounriver/mounriver_studio2/resources/app/resources/win32/components/wch/toolchain/risc-v embedded gcc/bin/../lib/gcc/riscv-none-embed/8.2.0/rv32imac/ilp32\libgcc.a(_divdi3.o)
 .eh_frame      0x0000000000000000       0x28 d:/mounriver/mounriver_studio2/resources/app/resources/win32/components/wch/toolchain/risc-v embedded gcc/bin/../lib/gcc/riscv-none-embed/8.2.0/rv32imac/ilp32\libgcc.a(_divdi3.o)
 .text          0x0000000000000000        0x0 d:/mounriver/mounriver_studio2/resources/app/resources/win32/components/wch/toolchain/risc-v embedded gcc/bin/../lib/gcc/riscv-none-embed/8.2.0/rv32imac/ilp32\libgcc.a(_udivdi3.o)
 .data          0x0000000000000000        0x0 d:/mounriver/mounriver_studio2/resources/app/resources/win32/components/wch/toolchain/risc-v embedded gcc/bin/../lib/gcc/riscv-none-embed/8.2.0/rv32imac/ilp32\libgcc.a(_udivdi3.o)
 .bss           0x0000000000000000        0x0 d:/mounriver/mounriver_studio2/resources/app/resources/win32/components/wch/toolchain/risc-v embedded gcc/bin/../lib/gcc/riscv-none-embed/8.2.0/rv32imac/ilp32\libgcc.a(_udivdi3.o)
 .eh_frame      0x0000000000000000       0x28 d:/mounriver/mounriver_studio2/resources/app/resources/win32/components/wch/toolchain/risc-v embedded gcc/bin/../lib/gcc/riscv-none-embed/8.2.0/rv32imac/ilp32\libgcc.a(_udivdi3.o)
 .text          0x0000000000000000        0x0 d:/mounriver/mounriver_studio2/resources/app/resources/win32/components/wch/toolchain/risc-v embedded gcc/bin/../lib/gcc/riscv-none-embed/8.2.0/rv32imac/ilp32\libgcc.a(muldf3.o)
 .data          0x0000000000000000        0x0 d:/mounriver/mounriver_studio2/resources/app/resources/win32/components/wch/toolchain/risc-v embedded gcc/bin/../lib/gcc/riscv-none-embed/8.2.0/rv32imac/ilp32\libgcc.a(muldf3.o)
 .bss           0x0000000000000000        0x0 d:/mounriver/mounriver_studio2/resources/app/resources/win32/components/wch/toolchain/risc-v embedded gcc/bin/../lib/gcc/riscv-none-embed/8.2.0/rv32imac/ilp32\libgcc.a(muldf3.o)
 .text          0x0000000000000000        0x0 d:/mounriver/mounriver_studio2/resources/app/resources/win32/components/wch/toolchain/risc-v embedded gcc/bin/../lib/gcc/riscv-none-embed/8.2.0/rv32imac/ilp32\libgcc.a(floatsidf.o)
 .data          0x0000000000000000        0x0 d:/mounriver/mounriver_studio2/resources/app/resources/win32/components/wch/toolchain/risc-v embedded gcc/bin/../lib/gcc/riscv-none-embed/8.2.0/rv32imac/ilp32\libgcc.a(floatsidf.o)
 .bss           0x0000000000000000        0x0 d:/mounriver/mounriver_studio2/resources/app/resources/win32/components/wch/toolchain/risc-v embedded gcc/bin/../lib/gcc/riscv-none-embed/8.2.0/rv32imac/ilp32\libgcc.a(floatsidf.o)
 .text          0x0000000000000000        0x0 d:/mounriver/mounriver_studio2/resources/app/resources/win32/components/wch/toolchain/risc-v embedded gcc/bin/../lib/gcc/riscv-none-embed/8.2.0/rv32imac/ilp32\libgcc.a(mulsf3.o)
 .data          0x0000000000000000        0x0 d:/mounriver/mounriver_studio2/resources/app/resources/win32/components/wch/toolchain/risc-v embedded gcc/bin/../lib/gcc/riscv-none-embed/8.2.0/rv32imac/ilp32\libgcc.a(mulsf3.o)
 .bss           0x0000000000000000        0x0 d:/mounriver/mounriver_studio2/resources/app/resources/win32/components/wch/toolchain/risc-v embedded gcc/bin/../lib/gcc/riscv-none-embed/8.2.0/rv32imac/ilp32\libgcc.a(mulsf3.o)
 .text          0x0000000000000000        0x0 d:/mounriver/mounriver_studio2/resources/app/resources/win32/components/wch/toolchain/risc-v embedded gcc/bin/../lib/gcc/riscv-none-embed/8.2.0/rv32imac/ilp32\libgcc.a(fixsfsi.o)
 .data          0x0000000000000000        0x0 d:/mounriver/mounriver_studio2/resources/app/resources/win32/components/wch/toolchain/risc-v embedded gcc/bin/../lib/gcc/riscv-none-embed/8.2.0/rv32imac/ilp32\libgcc.a(fixsfsi.o)
 .bss           0x0000000000000000        0x0 d:/mounriver/mounriver_studio2/resources/app/resources/win32/components/wch/toolchain/risc-v embedded gcc/bin/../lib/gcc/riscv-none-embed/8.2.0/rv32imac/ilp32\libgcc.a(fixsfsi.o)
 .text          0x0000000000000000        0x0 d:/mounriver/mounriver_studio2/resources/app/resources/win32/components/wch/toolchain/risc-v embedded gcc/bin/../lib/gcc/riscv-none-embed/8.2.0/rv32imac/ilp32\libgcc.a(floatsisf.o)
 .data          0x0000000000000000        0x0 d:/mounriver/mounriver_studio2/resources/app/resources/win32/components/wch/toolchain/risc-v embedded gcc/bin/../lib/gcc/riscv-none-embed/8.2.0/rv32imac/ilp32\libgcc.a(floatsisf.o)
 .bss           0x0000000000000000        0x0 d:/mounriver/mounriver_studio2/resources/app/resources/win32/components/wch/toolchain/risc-v embedded gcc/bin/../lib/gcc/riscv-none-embed/8.2.0/rv32imac/ilp32\libgcc.a(floatsisf.o)
 .text          0x0000000000000000        0x0 d:/mounriver/mounriver_studio2/resources/app/resources/win32/components/wch/toolchain/risc-v embedded gcc/bin/../lib/gcc/riscv-none-embed/8.2.0/rv32imac/ilp32\libgcc.a(truncdfsf2.o)
 .data          0x0000000000000000        0x0 d:/mounriver/mounriver_studio2/resources/app/resources/win32/components/wch/toolchain/risc-v embedded gcc/bin/../lib/gcc/riscv-none-embed/8.2.0/rv32imac/ilp32\libgcc.a(truncdfsf2.o)
 .bss           0x0000000000000000        0x0 d:/mounriver/mounriver_studio2/resources/app/resources/win32/components/wch/toolchain/risc-v embedded gcc/bin/../lib/gcc/riscv-none-embed/8.2.0/rv32imac/ilp32\libgcc.a(truncdfsf2.o)
 .text          0x0000000000000000        0x0 d:/mounriver/mounriver_studio2/resources/app/resources/win32/components/wch/toolchain/risc-v embedded gcc/bin/../lib/gcc/riscv-none-embed/8.2.0/rv32imac/ilp32\libgcc.a(_clz.o)
 .data          0x0000000000000000        0x0 d:/mounriver/mounriver_studio2/resources/app/resources/win32/components/wch/toolchain/risc-v embedded gcc/bin/../lib/gcc/riscv-none-embed/8.2.0/rv32imac/ilp32\libgcc.a(_clz.o)
 .bss           0x0000000000000000        0x0 d:/mounriver/mounriver_studio2/resources/app/resources/win32/components/wch/toolchain/risc-v embedded gcc/bin/../lib/gcc/riscv-none-embed/8.2.0/rv32imac/ilp32\libgcc.a(_clz.o)
 .text          0x0000000000000000        0x0 d:/mounriver/mounriver_studio2/resources/app/resources/win32/components/wch/toolchain/risc-v embedded gcc/bin/../lib/gcc/riscv-none-embed/8.2.0/rv32imac/ilp32\libgcc.a(_clzsi2.o)
 .data          0x0000000000000000        0x0 d:/mounriver/mounriver_studio2/resources/app/resources/win32/components/wch/toolchain/risc-v embedded gcc/bin/../lib/gcc/riscv-none-embed/8.2.0/rv32imac/ilp32\libgcc.a(_clzsi2.o)
 .bss           0x0000000000000000        0x0 d:/mounriver/mounriver_studio2/resources/app/resources/win32/components/wch/toolchain/risc-v embedded gcc/bin/../lib/gcc/riscv-none-embed/8.2.0/rv32imac/ilp32\libgcc.a(_clzsi2.o)
 .text          0x0000000000000000        0x0 d:/mounriver/mounriver_studio2/resources/app/resources/win32/components/wch/toolchain/risc-v embedded gcc/bin/../lib/gcc/riscv-none-embed/8.2.0/../../../../riscv-none-embed/lib/rv32imac/ilp32\libg_nano.a(lib_a-memcpy.o)
 .data          0x0000000000000000        0x0 d:/mounriver/mounriver_studio2/resources/app/resources/win32/components/wch/toolchain/risc-v embedded gcc/bin/../lib/gcc/riscv-none-embed/8.2.0/../../../../riscv-none-embed/lib/rv32imac/ilp32\libg_nano.a(lib_a-memcpy.o)
 .bss           0x0000000000000000        0x0 d:/mounriver/mounriver_studio2/resources/app/resources/win32/components/wch/toolchain/risc-v embedded gcc/bin/../lib/gcc/riscv-none-embed/8.2.0/../../../../riscv-none-embed/lib/rv32imac/ilp32\libg_nano.a(lib_a-memcpy.o)

Memory Configuration

Name             Origin             Length             Attributes
FLASH            0x0000000000000000 0x0000000000070000 xr
RAM              0x0000000020003800 0x0000000000004800 xrw
*default*        0x0000000000000000 0xffffffffffffffff

Linker script and memory map

LOAD ./StdPeriphDriver/CH57x_adc.o
LOAD ./StdPeriphDriver/CH57x_clk.o
LOAD ./StdPeriphDriver/CH57x_flash.o
LOAD ./StdPeriphDriver/CH57x_gpio.o
LOAD ./StdPeriphDriver/CH57x_pwr.o
LOAD ./StdPeriphDriver/CH57x_sys.o
LOAD ./StdPeriphDriver/CH57x_uart1.o
LOAD ./Startup/startup_CH573.o
LOAD ./RVMSIS/core_riscv.o
LOAD ./Profile/battservice.o
LOAD ./Profile/devinfoservice.o
LOAD ./Profile/resbandservice.o
LOAD ./HAL/AS5600.o
LOAD ./HAL/LED.o
LOAD ./HAL/MCU.o
LOAD ./HAL/RTC.o
LOAD ./HAL/SLEEP.o
LOAD ./APP/resband.o
LOAD ./APP/resband_main.o
LOAD e:/Workspace/resistance_band/reistance_band_v0_1/SRC/StdPeriphDriver\libISP573.a
LOAD e:/Workspace/resistance_band/reistance_band_v0_1/resistance_band/LIB\libCH57xBLE.a
LOAD d:/mounriver/mounriver_studio2/resources/app/resources/win32/components/wch/toolchain/risc-v embedded gcc/bin/../lib/gcc/riscv-none-embed/8.2.0/rv32imac/ilp32\libgcc.a
LOAD d:/mounriver/mounriver_studio2/resources/app/resources/win32/components/wch/toolchain/risc-v embedded gcc/bin/../lib/gcc/riscv-none-embed/8.2.0/../../../../riscv-none-embed/lib/rv32imac/ilp32\libg_nano.a
LOAD d:/mounriver/mounriver_studio2/resources/app/resources/win32/components/wch/toolchain/risc-v embedded gcc/bin/../lib/gcc/riscv-none-embed/8.2.0/../../../../riscv-none-embed/lib/rv32imac/ilp32\libc_nano.a
LOAD d:/mounriver/mounriver_studio2/resources/app/resources/win32/components/wch/toolchain/risc-v embedded gcc/bin/../lib/gcc/riscv-none-embed/8.2.0/rv32imac/ilp32\libgcc.a
START GROUP
LOAD d:/mounriver/mounriver_studio2/resources/app/resources/win32/components/wch/toolchain/risc-v embedded gcc/bin/../lib/gcc/riscv-none-embed/8.2.0/rv32imac/ilp32\libgcc.a
LOAD d:/mounriver/mounriver_studio2/resources/app/resources/win32/components/wch/toolchain/risc-v embedded gcc/bin/../lib/gcc/riscv-none-embed/8.2.0/../../../../riscv-none-embed/lib/rv32imac/ilp32\libc_nano.a
LOAD d:/mounriver/mounriver_studio2/resources/app/resources/win32/components/wch/toolchain/risc-v embedded gcc/bin/../lib/gcc/riscv-none-embed/8.2.0/../../../../riscv-none-embed/lib/rv32imac/ilp32\libnosys.a
END GROUP
START GROUP
LOAD d:/mounriver/mounriver_studio2/resources/app/resources/win32/components/wch/toolchain/risc-v embedded gcc/bin/../lib/gcc/riscv-none-embed/8.2.0/rv32imac/ilp32\libgcc.a
LOAD d:/mounriver/mounriver_studio2/resources/app/resources/win32/components/wch/toolchain/risc-v embedded gcc/bin/../lib/gcc/riscv-none-embed/8.2.0/../../../../riscv-none-embed/lib/rv32imac/ilp32\libc_nano.a
LOAD d:/mounriver/mounriver_studio2/resources/app/resources/win32/components/wch/toolchain/risc-v embedded gcc/bin/../lib/gcc/riscv-none-embed/8.2.0/../../../../riscv-none-embed/lib/rv32imac/ilp32\libnosys.a
END GROUP
                0x0000000000000200                __stack_size = 0x200
                [!provide]                        PROVIDE (_stack_size = __stack_size)

.init           0x0000000000000000        0x4
                0x0000000000000000                _sinit = .
                0x0000000000000000                . = ALIGN (0x4)
 *(SORT_NONE(.init))
 .init          0x0000000000000000        0x4 ./Startup/startup_CH573.o
                0x0000000000000000                _start
                0x0000000000000004                . = ALIGN (0x4)
                0x0000000000000004                _einit = .

.highcodelalign
                0x0000000000000004        0x0
                0x0000000000000004                . = ALIGN (0x4)
                0x0000000000000004                PROVIDE (_highcode_lma = .)

.highcode       0x0000000020003800     0x11c4 load address 0x0000000000000004
                0x0000000020003800                . = ALIGN (0x4)
                0x0000000020003800                PROVIDE (_highcode_vma_start = .)
 *(.vector)
 .vector        0x0000000020003800       0x90 ./Startup/startup_CH573.o
 *(SORT_NONE(.vector_handler))
 .vector_handler
                0x0000000020003890       0x2c ./Startup/startup_CH573.o
                0x0000000020003890                NMI_Handler
                0x0000000020003894                SysTick_Handler
                0x0000000020003896                SW_Handler
                0x0000000020003898                TMR0_IRQHandler
                0x000000002000389a                GPIOA_IRQHandler
                0x000000002000389c                GPIOB_IRQHandler
                0x000000002000389e                SPI0_IRQHandler
                0x00000000200038a0                BB_IRQHandler
                0x00000000200038a2                LLE_IRQHandler
                0x00000000200038a4                USB_IRQHandler
                0x00000000200038a6                TMR1_IRQHandler
                0x00000000200038a8                TMR2_IRQHandler
                0x00000000200038aa                UART0_IRQHandler
                0x00000000200038ac                UART1_IRQHandler
                0x00000000200038b0                ADC_IRQHandler
                0x00000000200038b2                PWMX_IRQHandler
                0x00000000200038b4                TMR3_IRQHandler
                0x00000000200038b6                UART2_IRQHandler
                0x00000000200038b8                UART3_IRQHandler
                0x00000000200038ba                WDOG_BAT_IRQHandler
 *(.highcode)
 .highcode      0x00000000200038bc       0x4e ./StdPeriphDriver/CH57x_clk.o
                0x00000000200038bc                Get_Calibration_Cnt_RAM
 .highcode      0x000000002000390a      0x1d0 ./StdPeriphDriver/CH57x_sys.o
                0x000000002000390a                SetSysClock
                0x0000000020003a22                SYS_ResetExecute
                0x0000000020003a5e                HardFault_Handler
                0x0000000020003aa4                mDelayuS
                0x0000000020003ab2                mDelaymS
 .highcode      0x0000000020003ada       0x16 ./HAL/RTC.o
                0x0000000020003ada                RTC_IRQHandler
 .highcode      0x0000000020003af0        0x8 ./APP/resband_main.o
                0x0000000020003af0                Main_Circulation
 .highcode      0x0000000020003af8      0x3fa e:/Workspace/resistance_band/reistance_band_v0_1/SRC/StdPeriphDriver\libISP573.a(ISP573.o)
                0x0000000020003af8                FLASH_ROM_BEG
                0x0000000020003b08                FLASH_ROM_END
                0x0000000020003b16                FLASH_ROM_IN
                0x0000000020003b24                FLASH_ROM_OUT
                0x0000000020003b32                FLASH_ROM_ADDR
                0x0000000020003b7a                FLASH_ROM_WAIT
                0x0000000020003bb2                FLASH_EEPROM_CMD
 .highcode      0x0000000020003ef2      0x230 e:/Workspace/resistance_band/reistance_band_v0_1/resistance_band/LIB\libCH57xBLE.a(tmos.o)
                0x0000000020003f0e                tmos_memcpy
                0x0000000020003f2e                tmos_memcpy_word
                0x0000000020003f4a                TMOS_SystemProcess
 .highcode      0x0000000020004122       0xc2 e:/Workspace/resistance_band/reistance_band_v0_1/resistance_band/LIB\libCH57xBLE.a(tmos_hw.o)
                0x0000000020004122                BLE_GetHSEClock
                0x0000000020004160                RTC_Get32KClock
                0x0000000020004178                SYS_GetTickCount
 .highcode      0x00000000200041e4      0x138 e:/Workspace/resistance_band/reistance_band_v0_1/resistance_band/LIB\libCH57xBLE.a(ll_connect.o)
                0x00000000200041e4                ll_connect_process_data
                0x0000000020004232                ll_connect_event_continue
 .highcode      0x000000002000431c      0x1c4 e:/Workspace/resistance_band/reistance_band_v0_1/resistance_band/LIB\libCH57xBLE.a(bb.o)
                0x000000002000431c                BB_IRQLibHandler
                0x0000000020004496                BB_IRQLibFunction
 .highcode      0x00000000200044e0      0x156 e:/Workspace/resistance_band/reistance_band_v0_1/resistance_band/LIB\libCH57xBLE.a(ip.o)
                0x00000000200044e0                ll_tx_wait_finish
                0x000000002000450c                ll_tx_wait_tx_dma_finish
                0x0000000020004546                ll_rx_wait_finish
                0x000000002000457c                ll_rx_wait_tx_dma_finish
                0x00000000200045ac                ble_ll_chkcrc
 .highcode      0x0000000020004636      0x1a4 e:/Workspace/resistance_band/reistance_band_v0_1/resistance_band/LIB\libCH57xBLE.a(lle.o)
                0x0000000020004636                LLE_IRQLibHandler
                0x0000000020004790                LLE_IRQLibFunction
 .highcode      0x00000000200047da       0x82 e:/Workspace/resistance_band/reistance_band_v0_1/resistance_band/LIB\libCH57xBLE.a(rf_fh.o)
                0x00000000200047da                RF_HopGetChannel
 .highcode      0x000000002000485c       0x2c e:/Workspace/resistance_band/reistance_band_v0_1/resistance_band/LIB\libCH57xBLE.a(rfend.o)
                0x000000002000485c                RFEND_WaitTune
 .highcode      0x0000000020004888      0x13a e:/Workspace/resistance_band/reistance_band_v0_1/resistance_band/LIB\libCH57xBLE.a(memory.o)
                0x0000000020004888                tmos_memory_allocate
                0x0000000020004922                tmos_memory_free
 *(.highcode.*)
                0x00000000200049c4                . = ALIGN (0x4)
 *fill*         0x00000000200049c2        0x2 
                0x00000000200049c4                PROVIDE (_highcode_vma_end = .)

.text           0x00000000000011c8    0x1b630
                0x00000000000011c8                . = ALIGN (0x4)
 *(SORT_NONE(.handle_reset))
 .handle_reset  0x00000000000011c8       0xce ./Startup/startup_CH573.o
                0x00000000000011c8                handle_reset
 *(.text)
 *(.text.*)
 .text.ADC_InterTSSampInit
                0x0000000000001296       0x28 ./StdPeriphDriver/CH57x_adc.o
                0x0000000000001296                ADC_InterTSSampInit
 .text.Calibration_LSI_FLASH
                0x00000000000012be      0x290 ./StdPeriphDriver/CH57x_clk.o
                0x00000000000012be                Calibration_LSI_FLASH
 .text.Calibration_LSI_RAM
                0x000000000000154e      0x246 ./StdPeriphDriver/CH57x_clk.o
                0x000000000000154e                Calibration_LSI_RAM
 .text.RTC_InitTime
                0x0000000000001794      0x138 ./StdPeriphDriver/CH57x_clk.o
                0x0000000000001794                RTC_InitTime
 .text.GPIOA_ModeCfg
                0x00000000000018cc       0xa6 ./StdPeriphDriver/CH57x_gpio.o
                0x00000000000018cc                GPIOA_ModeCfg
 .text.SYS_GetSysTickCnt
                0x0000000000001972        0xa ./StdPeriphDriver/CH57x_sys.o
                0x0000000000001972                SYS_GetSysTickCnt
 .text.battMeasure
                0x000000000000197c       0x7c ./Profile/battservice.o
 .text.battWriteAttrCB
                0x00000000000019f8       0x5e ./Profile/battservice.o
 .text.battReadAttrCB
                0x0000000000001a56       0x7e ./Profile/battservice.o
 .text.battNotifyCB
                0x0000000000001ad4       0x76 ./Profile/battservice.o
 .text.Batt_AddService
                0x0000000000001b4a       0x2c ./Profile/battservice.o
                0x0000000000001b4a                Batt_AddService
 .text.Batt_Register
                0x0000000000001b76        0x6 ./Profile/battservice.o
                0x0000000000001b76                Batt_Register
 .text.Batt_SetParameter
                0x0000000000001b7c       0x3a ./Profile/battservice.o
                0x0000000000001b7c                Batt_SetParameter
 .text.Batt_MeasLevel
                0x0000000000001bb6       0x2e ./Profile/battservice.o
                0x0000000000001bb6                Batt_MeasLevel
 .text.Batt_HandleConnStatusCB
                0x0000000000001be4       0x3e ./Profile/battservice.o
                0x0000000000001be4                Batt_HandleConnStatusCB
 .text.devInfo_ReadAttrCB
                0x0000000000001c22      0x196 ./Profile/devinfoservice.o
 .text.DevInfo_AddService
                0x0000000000001db8       0x18 ./Profile/devinfoservice.o
                0x0000000000001db8                DevInfo_AddService
 .text.DevInfo_SetParameter
                0x0000000000001dd0       0x24 ./Profile/devinfoservice.o
                0x0000000000001dd0                DevInfo_SetParameter
 .text.resBand_ReadAttrCB
                0x0000000000001df4       0x36 ./Profile/resbandservice.o
 .text.resBand_WriteAttrCB
                0x0000000000001e2a       0x92 ./Profile/resbandservice.o
 .text.ResBand_AddService
                0x0000000000001ebc       0x40 ./Profile/resbandservice.o
                0x0000000000001ebc                ResBand_AddService
 .text.ResBand_Register
                0x0000000000001efc        0x6 ./Profile/resbandservice.o
                0x0000000000001efc                ResBand_Register
 .text.ResBand_SetParameter
                0x0000000000001f02       0x1a ./Profile/resbandservice.o
                0x0000000000001f02                ResBand_SetParameter
 .text.ResBand_MeasNotify
                0x0000000000001f1c       0x46 ./Profile/resbandservice.o
                0x0000000000001f1c                ResBand_MeasNotify
 .text.ResBand_HandleConnStatusCB
                0x0000000000001f62       0x3e ./Profile/resbandservice.o
                0x0000000000001f62                ResBand_HandleConnStatusCB
 .text.IIC_Start
                0x0000000000001fa0       0x64 ./HAL/AS5600.o
                0x0000000000001fa0                IIC_Start
 .text.IIC_Stop
                0x0000000000002004       0x64 ./HAL/AS5600.o
                0x0000000000002004                IIC_Stop
 .text.IIC_Wait_Ack
                0x0000000000002068       0x66 ./HAL/AS5600.o
                0x0000000000002068                IIC_Wait_Ack
 .text.IIC_Ack  0x00000000000020ce       0x5e ./HAL/AS5600.o
                0x00000000000020ce                IIC_Ack
 .text.IIC_NAck
                0x000000000000212c       0x5e ./HAL/AS5600.o
                0x000000000000212c                IIC_NAck
 .text.IIC_Send_Byte
                0x000000000000218a       0xaa ./HAL/AS5600.o
                0x000000000000218a                IIC_Send_Byte
 .text.IIC_Read_Byte
                0x0000000000002234       0x8a ./HAL/AS5600.o
                0x0000000000002234                IIC_Read_Byte
 .text.AS5600_ReadOneByte
                0x00000000000022be       0x36 ./HAL/AS5600.o
                0x00000000000022be                AS5600_ReadOneByte
 .text.AS5600_ReadTwoByte
                0x00000000000022f4       0x22 ./HAL/AS5600.o
                0x00000000000022f4                AS5600_ReadTwoByte
 .text.HalLedBlink.part.2
                0x0000000000002316       0x9c ./HAL/LED.o
 .text.HalLedOnOff
                0x00000000000023b2       0x4c ./HAL/LED.o
                0x00000000000023b2                HalLedOnOff
 .text.HalLedSet.part.1
                0x00000000000023fe       0x56 ./HAL/LED.o
 .text.HalLedBlink
                0x0000000000002454       0x1c ./HAL/LED.o
                0x0000000000002454                HalLedBlink
 .text.HalLedSet
                0x0000000000002470       0x44 ./HAL/LED.o
                0x0000000000002470                HalLedSet
 .text.HAL_LedInit
                0x00000000000024b4       0x32 ./HAL/LED.o
                0x00000000000024b4                HAL_LedInit
 .text.HalLedUpdate
                0x00000000000024e6      0x16c ./HAL/LED.o
                0x00000000000024e6                HalLedUpdate
 .text.Lib_Calibration_LSI
                0x0000000000002652       0x30 ./HAL/MCU.o
                0x0000000000002652                Lib_Calibration_LSI
 .text.Lib_Read_Flash
                0x0000000000002682       0x1c ./HAL/MCU.o
                0x0000000000002682                Lib_Read_Flash
 .text.Lib_Write_Flash
                0x000000000000269e       0x40 ./HAL/MCU.o
                0x000000000000269e                Lib_Write_Flash
 .text.HAL_GetInterTempValue
                0x00000000000026de       0x72 ./HAL/MCU.o
                0x00000000000026de                HAL_GetInterTempValue
 .text.HAL_ProcessEvent
                0x0000000000002750       0x76 ./HAL/MCU.o
                0x0000000000002750                HAL_ProcessEvent
 .text.CH57X_BLEInit
                0x00000000000027c6      0x112 ./HAL/MCU.o
                0x00000000000027c6                CH57X_BLEInit
 .text.HAL_Init
                0x00000000000028d8       0x36 ./HAL/MCU.o
                0x00000000000028d8                HAL_Init
 .text.HAL_TimeInit
                0x000000000000290e       0x66 ./HAL/RTC.o
                0x000000000000290e                HAL_TimeInit
 .text.ResBandGapStateCB
                0x0000000000002974      0x128 ./APP/resband.o
 .text.resBandBattCB
                0x0000000000002a9c       0x34 ./APP/resband.o
 .text.resBandCB
                0x0000000000002ad0       0x64 ./APP/resband.o
 .text.ResBand_ProcessEvent
                0x0000000000002b34      0x162 ./APP/resband.o
                0x0000000000002b34                ResBand_ProcessEvent
 .text.ResBand_Init
                0x0000000000002c96      0x128 ./APP/resband.o
                0x0000000000002c96                ResBand_Init
 .text.startup.main
                0x0000000000002dbe       0x6a ./APP/resband_main.o
                0x0000000000002dbe                main
 .text.tmos_msg_enqueue
                0x0000000000002e28       0x1e e:/Workspace/resistance_band/reistance_band_v0_1/resistance_band/LIB\libCH57xBLE.a(message.o)
                0x0000000000002e28                tmos_msg_enqueue
 .text.tmos_msg_deallocate
                0x0000000000002e46       0x2c e:/Workspace/resistance_band/reistance_band_v0_1/resistance_band/LIB\libCH57xBLE.a(message.o)
                0x0000000000002e46                tmos_msg_deallocate
 .text.tmos_msg_allocate
                0x0000000000002e72       0x3e e:/Workspace/resistance_band/reistance_band_v0_1/resistance_band/LIB\libCH57xBLE.a(message.o)
                0x0000000000002e72                tmos_msg_allocate
 .text.tmos_msg_receive
                0x0000000000002eb0       0x68 e:/Workspace/resistance_band/reistance_band_v0_1/resistance_band/LIB\libCH57xBLE.a(message.o)
                0x0000000000002eb0                tmos_msg_receive
 .text.tmos_msg_send
                0x0000000000002f18       0x56 e:/Workspace/resistance_band/reistance_band_v0_1/resistance_band/LIB\libCH57xBLE.a(message.o)
                0x0000000000002f18                tmos_msg_send
 .text.tmos_msg_init
                0x0000000000002f6e        0x6 e:/Workspace/resistance_band/reistance_band_v0_1/resistance_band/LIB\libCH57xBLE.a(message.o)
                0x0000000000002f6e                tmos_msg_init
 .text.tmosFindTask
                0x0000000000002f74       0x20 e:/Workspace/resistance_band/reistance_band_v0_1/resistance_band/LIB\libCH57xBLE.a(tmos.o)
 .text.TMOS_CbTimerProcessEvent
                0x0000000000002f94       0x7c e:/Workspace/resistance_band/reistance_band_v0_1/resistance_band/LIB\libCH57xBLE.a(tmos.o)
                0x0000000000002f94                TMOS_CbTimerProcessEvent
 .text.tmos_rand
                0x0000000000003010       0x54 e:/Workspace/resistance_band/reistance_band_v0_1/resistance_band/LIB\libCH57xBLE.a(tmos.o)
                0x0000000000003010                tmos_rand
 .text.tmos_query_sleep_time
                0x0000000000003064      0x178 e:/Workspace/resistance_band/reistance_band_v0_1/resistance_band/LIB\libCH57xBLE.a(tmos.o)
                0x0000000000003064                tmos_query_sleep_time
 .text.tmos_memset
                0x00000000000031dc       0x12 e:/Workspace/resistance_band/reistance_band_v0_1/resistance_band/LIB\libCH57xBLE.a(tmos.o)
                0x00000000000031dc                tmos_memset
 .text.tmos_strlen
                0x00000000000031ee       0x14 e:/Workspace/resistance_band/reistance_band_v0_1/resistance_band/LIB\libCH57xBLE.a(tmos.o)
                0x00000000000031ee                tmos_strlen
 .text.tmos_memdup
                0x0000000000003202       0x3c e:/Workspace/resistance_band/reistance_band_v0_1/resistance_band/LIB\libCH57xBLE.a(tmos.o)
                0x0000000000003202                tmos_memdup
 .text.tmos_memcmp
                0x000000000000323e       0x24 e:/Workspace/resistance_band/reistance_band_v0_1/resistance_band/LIB\libCH57xBLE.a(tmos.o)
                0x000000000000323e                tmos_memcmp
 .text.tmos_revmemcpy
                0x0000000000003262       0x1c e:/Workspace/resistance_band/reistance_band_v0_1/resistance_band/LIB\libCH57xBLE.a(tmos.o)
                0x0000000000003262                tmos_revmemcpy
 .text.tmos_isbufset
                0x000000000000327e       0x1e e:/Workspace/resistance_band/reistance_band_v0_1/resistance_band/LIB\libCH57xBLE.a(tmos.o)
                0x000000000000327e                tmos_isbufset
 .text.TMOS_GetSystemClock
                0x000000000000329c        0xc e:/Workspace/resistance_band/reistance_band_v0_1/resistance_band/LIB\libCH57xBLE.a(tmos.o)
                0x000000000000329c                TMOS_GetSystemClock
 .text.tmos_set_event
                0x00000000000032a8       0x2a e:/Workspace/resistance_band/reistance_band_v0_1/resistance_band/LIB\libCH57xBLE.a(tmos.o)
                0x00000000000032a8                tmos_set_event
 .text.tmos_query_system_time
                0x00000000000032d2       0xce e:/Workspace/resistance_band/reistance_band_v0_1/resistance_band/LIB\libCH57xBLE.a(tmos.o)
                0x00000000000032d2                tmos_query_system_time
 .text.tmos_clear_event
                0x00000000000033a0       0x2e e:/Workspace/resistance_band/reistance_band_v0_1/resistance_band/LIB\libCH57xBLE.a(tmos.o)
                0x00000000000033a0                tmos_clear_event
 .text.tmos_start_task
                0x00000000000033ce       0x8e e:/Workspace/resistance_band/reistance_band_v0_1/resistance_band/LIB\libCH57xBLE.a(tmos.o)
                0x00000000000033ce                tmos_start_task
 .text.tmos_start_callback_task
                0x000000000000345c       0xac e:/Workspace/resistance_band/reistance_band_v0_1/resistance_band/LIB\libCH57xBLE.a(tmos.o)
                0x000000000000345c                tmos_start_callback_task
 .text.tmos_start_reload_task
                0x0000000000003508       0x30 e:/Workspace/resistance_band/reistance_band_v0_1/resistance_band/LIB\libCH57xBLE.a(tmos.o)
                0x0000000000003508                tmos_start_reload_task
 .text.tmos_stop_task
                0x0000000000003538       0x42 e:/Workspace/resistance_band/reistance_band_v0_1/resistance_band/LIB\libCH57xBLE.a(tmos.o)
                0x0000000000003538                tmos_stop_task
 .text.tmos_stop_callback_task
                0x000000000000357a       0x5c e:/Workspace/resistance_band/reistance_band_v0_1/resistance_band/LIB\libCH57xBLE.a(tmos.o)
                0x000000000000357a                tmos_stop_callback_task
 .text.tmos_get_task_timer
                0x00000000000035d6       0x16 e:/Workspace/resistance_band/reistance_band_v0_1/resistance_band/LIB\libCH57xBLE.a(tmos.o)
                0x00000000000035d6                tmos_get_task_timer
 .text.tmos_update_callback_timer
                0x00000000000035ec       0x62 e:/Workspace/resistance_band/reistance_band_v0_1/resistance_band/LIB\libCH57xBLE.a(tmos.o)
                0x00000000000035ec                tmos_update_callback_timer
 .text.TMOS_Set32KTuneValue
                0x000000000000364e        0xa e:/Workspace/resistance_band/reistance_band_v0_1/resistance_band/LIB\libCH57xBLE.a(tmos.o)
                0x000000000000364e                TMOS_Set32KTuneValue
 .text.TMOS_TimerRegister
                0x0000000000003658       0x1a e:/Workspace/resistance_band/reistance_band_v0_1/resistance_band/LIB\libCH57xBLE.a(tmos.o)
                0x0000000000003658                TMOS_TimerRegister
 .text.TMOS_ProcessRegister
                0x0000000000003672       0x16 e:/Workspace/resistance_band/reistance_band_v0_1/resistance_band/LIB\libCH57xBLE.a(tmos.o)
                0x0000000000003672                TMOS_ProcessRegister
 .text.TMOS_Init
                0x0000000000003688       0xea e:/Workspace/resistance_band/reistance_band_v0_1/resistance_band/LIB\libCH57xBLE.a(tmos.o)
                0x0000000000003688                TMOS_Init
 .text.TMOS_ProcessEventRegister
                0x0000000000003772       0x38 e:/Workspace/resistance_band/reistance_band_v0_1/resistance_band/LIB\libCH57xBLE.a(tmos.o)
                0x0000000000003772                TMOS_ProcessEventRegister
 .text.BLE_LibInit
                0x00000000000037aa      0x1aa e:/Workspace/resistance_band/reistance_band_v0_1/resistance_band/LIB\libCH57xBLE.a(tmos.o)
                0x00000000000037aa                BLE_LibInit
 .text.ble_ll_common_rand8
                0x0000000000003954       0x24 e:/Workspace/resistance_band/reistance_band_v0_1/resistance_band/LIB\libCH57xBLE.a(tmos_hw.o)
                0x0000000000003954                ble_ll_common_rand8
 .text.ble_ll_common_rand16
                0x0000000000003978       0x24 e:/Workspace/resistance_band/reistance_band_v0_1/resistance_band/LIB\libCH57xBLE.a(tmos_hw.o)
                0x0000000000003978                ble_ll_common_rand16
 .text.ble_ll_common_rand32
                0x000000000000399c       0x20 e:/Workspace/resistance_band/reistance_band_v0_1/resistance_band/LIB\libCH57xBLE.a(tmos_hw.o)
                0x000000000000399c                ble_ll_common_rand32
 .text.ll_hw_temp_sample
                0x00000000000039bc       0xc0 e:/Workspace/resistance_band/reistance_band_v0_1/resistance_band/LIB\libCH57xBLE.a(tmos_hw.o)
                0x00000000000039bc                ll_hw_temp_sample
 .text.TMOS_TimerInit
                0x0000000000003a7c       0x5c e:/Workspace/resistance_band/reistance_band_v0_1/resistance_band/LIB\libCH57xBLE.a(tmos_hw.o)
                0x0000000000003a7c                TMOS_TimerInit
 .text.tmos_snv_init
                0x0000000000003ad8       0xbc e:/Workspace/resistance_band/reistance_band_v0_1/resistance_band/LIB\libCH57xBLE.a(tmos_snv.o)
                0x0000000000003ad8                tmos_snv_init
 .text.tmos_snv_clear
                0x0000000000003b94       0xae e:/Workspace/resistance_band/reistance_band_v0_1/resistance_band/LIB\libCH57xBLE.a(tmos_snv.o)
                0x0000000000003b94                tmos_snv_clear
 .text.tmos_snv_read
                0x0000000000003c42      0x292 e:/Workspace/resistance_band/reistance_band_v0_1/resistance_band/LIB\libCH57xBLE.a(tmos_snv.o)
                0x0000000000003c42                tmos_snv_read
 .text.tmos_snv_notify
                0x0000000000003ed4       0x5a e:/Workspace/resistance_band/reistance_band_v0_1/resistance_band/LIB\libCH57xBLE.a(tmos_snv.o)
                0x0000000000003ed4                tmos_snv_notify
 .text.tmos_snv_write
                0x0000000000003f2e      0x2ce e:/Workspace/resistance_band/reistance_band_v0_1/resistance_band/LIB\libCH57xBLE.a(tmos_snv.o)
                0x0000000000003f2e                tmos_snv_write
 .text.tmos_snv_compact
                0x00000000000041fc        0x4 e:/Workspace/resistance_band/reistance_band_v0_1/resistance_band/LIB\libCH57xBLE.a(tmos_snv.o)
                0x00000000000041fc                tmos_snv_compact
 .text.disconnectNext
                0x0000000000004200       0x22 e:/Workspace/resistance_band/reistance_band_v0_1/resistance_band/LIB\libCH57xBLE.a(gap.o)
 .text.GAP_ParamInit
                0x0000000000004222       0x88 e:/Workspace/resistance_band/reistance_band_v0_1/resistance_band/LIB\libCH57xBLE.a(gap.o)
                0x0000000000004222                GAP_ParamInit
 .text.sendTerminateEvent
                0x00000000000042aa       0x58 e:/Workspace/resistance_band/reistance_band_v0_1/resistance_band/LIB\libCH57xBLE.a(gap.o)
                0x00000000000042aa                sendTerminateEvent
 .text.gapRegisterCentral
                0x0000000000004302        0x6 e:/Workspace/resistance_band/reistance_band_v0_1/resistance_band/LIB\libCH57xBLE.a(gap.o)
                0x0000000000004302                gapRegisterCentral
 .text.gapRegisterCentralConn
                0x0000000000004308        0x6 e:/Workspace/resistance_band/reistance_band_v0_1/resistance_band/LIB\libCH57xBLE.a(gap.o)
                0x0000000000004308                gapRegisterCentralConn
 .text.gapRegisterPeripheral
                0x000000000000430e        0x6 e:/Workspace/resistance_band/reistance_band_v0_1/resistance_band/LIB\libCH57xBLE.a(gap.o)
                0x000000000000430e                gapRegisterPeripheral
 .text.gapRegisterPeripheralConn
                0x0000000000004314        0x6 e:/Workspace/resistance_band/reistance_band_v0_1/resistance_band/LIB\libCH57xBLE.a(gap.o)
                0x0000000000004314                gapRegisterPeripheralConn
 .text.smGenerateRandBuf
                0x000000000000431a       0x56 e:/Workspace/resistance_band/reistance_band_v0_1/resistance_band/LIB\libCH57xBLE.a(gap.o)
                0x000000000000431a                smGenerateRandBuf
 .text.gapL2capConnParamUpdateReq
                0x0000000000004370       0x32 e:/Workspace/resistance_band/reistance_band_v0_1/resistance_band/LIB\libCH57xBLE.a(gap.o)
                0x0000000000004370                gapL2capConnParamUpdateReq
 .text.gapValidADType
                0x00000000000043a2       0x16 e:/Workspace/resistance_band/reistance_band_v0_1/resistance_band/LIB\libCH57xBLE.a(gap.o)
                0x00000000000043a2                gapValidADType
 .text.gapFindADType
                0x00000000000043b8       0x8e e:/Workspace/resistance_band/reistance_band_v0_1/resistance_band/LIB\libCH57xBLE.a(gap.o)
                0x00000000000043b8                gapFindADType
 .text.GAP_SecParamsInit
                0x0000000000004446       0x9a e:/Workspace/resistance_band/reistance_band_v0_1/resistance_band/LIB\libCH57xBLE.a(gap.o)
                0x0000000000004446                GAP_SecParamsInit
 .text.GAP_ParamsInit
                0x00000000000044e0       0x48 e:/Workspace/resistance_band/reistance_band_v0_1/resistance_band/LIB\libCH57xBLE.a(gap.o)
                0x00000000000044e0                GAP_ParamsInit
 .text.gapAddAddrAdj
                0x0000000000004528       0x48 e:/Workspace/resistance_band/reistance_band_v0_1/resistance_band/LIB\libCH57xBLE.a(gap.o)
                0x0000000000004528                gapAddAddrAdj
 .text.gapDetermineAddrType
                0x0000000000004570       0x28 e:/Workspace/resistance_band/reistance_band_v0_1/resistance_band/LIB\libCH57xBLE.a(gap.o)
                0x0000000000004570                gapDetermineAddrType
 .text.gapFreeAuthLink
                0x0000000000004598       0x4a e:/Workspace/resistance_band/reistance_band_v0_1/resistance_band/LIB\libCH57xBLE.a(gap.o)
                0x0000000000004598                gapFreeAuthLink
 .text.gapGetDevAddress
                0x00000000000045e2       0x24 e:/Workspace/resistance_band/reistance_band_v0_1/resistance_band/LIB\libCH57xBLE.a(gap.o)
                0x00000000000045e2                gapGetDevAddress
 .text.gapGetDevAddressMode
                0x0000000000004606        0xa e:/Workspace/resistance_band/reistance_band_v0_1/resistance_band/LIB\libCH57xBLE.a(gap.o)
                0x0000000000004606                gapGetDevAddressMode
 .text.gapGetIRK
                0x0000000000004610        0xc e:/Workspace/resistance_band/reistance_band_v0_1/resistance_band/LIB\libCH57xBLE.a(gap.o)
                0x0000000000004610                gapGetIRK
 .text.gapGetSRK
                0x000000000000461c        0xc e:/Workspace/resistance_band/reistance_band_v0_1/resistance_band/LIB\libCH57xBLE.a(gap.o)
                0x000000000000461c                gapGetSRK
 .text.gapGetSignCounter
                0x0000000000004628        0xe e:/Workspace/resistance_band/reistance_band_v0_1/resistance_band/LIB\libCH57xBLE.a(gap.o)
                0x0000000000004628                gapGetSignCounter
 .text.gapIncSignCounter
                0x0000000000004636       0x28 e:/Workspace/resistance_band/reistance_band_v0_1/resistance_band/LIB\libCH57xBLE.a(gap.o)
                0x0000000000004636                gapIncSignCounter
 .text.gapProcessConnEvt
                0x000000000000465e       0x48 e:/Workspace/resistance_band/reistance_band_v0_1/resistance_band/LIB\libCH57xBLE.a(gap.o)
                0x000000000000465e                gapProcessConnEvt
 .text.gapProcessDisconnectCompleteEvt
                0x00000000000046a6       0xa8 e:/Workspace/resistance_band/reistance_band_v0_1/resistance_band/LIB\libCH57xBLE.a(gap.o)
                0x00000000000046a6                gapProcessDisconnectCompleteEvt
 .text.sendAuthEvent
                0x000000000000474e      0x11a e:/Workspace/resistance_band/reistance_band_v0_1/resistance_band/LIB\libCH57xBLE.a(gap.o)
                0x000000000000474e                sendAuthEvent
 .text.gapSendBondCompleteEvent
                0x0000000000004868       0x70 e:/Workspace/resistance_band/reistance_band_v0_1/resistance_band/LIB\libCH57xBLE.a(gap.o)
                0x0000000000004868                gapSendBondCompleteEvent
 .text.gapSendPairingReqEvent
                0x00000000000048d8       0x92 e:/Workspace/resistance_band/reistance_band_v0_1/resistance_band/LIB\libCH57xBLE.a(gap.o)
                0x00000000000048d8                gapSendPairingReqEvent
 .text.gapSendSlaveSecurityReqEvent
                0x000000000000496a       0x68 e:/Workspace/resistance_band/reistance_band_v0_1/resistance_band/LIB\libCH57xBLE.a(gap.o)
                0x000000000000496a                gapSendSlaveSecurityReqEvent
 .text.gapSendDeviceInitDoneEvent
                0x00000000000049d2       0x88 e:/Workspace/resistance_band/reistance_band_v0_1/resistance_band/LIB\libCH57xBLE.a(gap.o)
                0x00000000000049d2                gapSendDeviceInitDoneEvent
 .text.gapSendLinkUpdateEvent
                0x0000000000004a5a       0x84 e:/Workspace/resistance_band/reistance_band_v0_1/resistance_band/LIB\libCH57xBLE.a(gap.o)
                0x0000000000004a5a                gapSendLinkUpdateEvent
 .text.gapSendEstLinkEvent
                0x0000000000004ade       0xb8 e:/Workspace/resistance_band/reistance_band_v0_1/resistance_band/LIB\libCH57xBLE.a(gap.o)
                0x0000000000004ade                gapSendEstLinkEvent
 .text.gapProcessNewAddr
                0x0000000000004b96       0x3e e:/Workspace/resistance_band/reistance_band_v0_1/resistance_band/LIB\libCH57xBLE.a(gap.o)
                0x0000000000004b96                gapProcessNewAddr
 .text.gapProcessRandomAddrComplete
                0x0000000000004bd4       0xb6 e:/Workspace/resistance_band/reistance_band_v0_1/resistance_band/LIB\libCH57xBLE.a(gap.o)
                0x0000000000004bd4                gapProcessRandomAddrComplete
 .text.GAP_Authenticate
                0x0000000000004c8a       0xd2 e:/Workspace/resistance_band/reistance_band_v0_1/resistance_band/LIB\libCH57xBLE.a(gap.o)
                0x0000000000004c8a                GAP_Authenticate
 .text.GAP_Bond
                0x0000000000004d5c       0xa2 e:/Workspace/resistance_band/reistance_band_v0_1/resistance_band/LIB\libCH57xBLE.a(gap.o)
                0x0000000000004d5c                GAP_Bond
 .text.GAP_GetParamValue
                0x0000000000004dfe       0x1e e:/Workspace/resistance_band/reistance_band_v0_1/resistance_band/LIB\libCH57xBLE.a(gap.o)
                0x0000000000004dfe                GAP_GetParamValue
 .text.GAP_PasscodeUpdate
                0x0000000000004e1c       0x50 e:/Workspace/resistance_band/reistance_band_v0_1/resistance_band/LIB\libCH57xBLE.a(gap.o)
                0x0000000000004e1c                GAP_PasscodeUpdate
 .text.GAP_RegisterForMsgs
                0x0000000000004e6c        0x6 e:/Workspace/resistance_band/reistance_band_v0_1/resistance_band/LIB\libCH57xBLE.a(gap.o)
                0x0000000000004e6c                GAP_RegisterForMsgs
 .text.GAP_ResolvePrivateAddr
                0x0000000000004e72        0x4 e:/Workspace/resistance_band/reistance_band_v0_1/resistance_band/LIB\libCH57xBLE.a(gap.o)
                0x0000000000004e72                GAP_ResolvePrivateAddr
 .text.gapPairingCompleteCB
                0x0000000000004e76      0x188 e:/Workspace/resistance_band/reistance_band_v0_1/resistance_band/LIB\libCH57xBLE.a(gap.o)
                0x0000000000004e76                gapPairingCompleteCB
 .text.gapPasskeyNeededCB
                0x0000000000004ffe       0x8e e:/Workspace/resistance_band/reistance_band_v0_1/resistance_band/LIB\libCH57xBLE.a(gap.o)
                0x0000000000004ffe                gapPasskeyNeededCB
 .text.gapFreeEstLink
                0x000000000000508c       0x20 e:/Workspace/resistance_band/reistance_band_v0_1/resistance_band/LIB\libCH57xBLE.a(gap.o)
                0x000000000000508c                gapFreeEstLink
 .text.gapUpdateConnSignCounter
                0x00000000000050ac       0x7a e:/Workspace/resistance_band/reistance_band_v0_1/resistance_band/LIB\libCH57xBLE.a(gap.o)
                0x00000000000050ac                gapUpdateConnSignCounter
 .text.GAP_SendSlaveSecurityRequest
                0x0000000000005126       0x4c e:/Workspace/resistance_band/reistance_band_v0_1/resistance_band/LIB\libCH57xBLE.a(gap.o)
                0x0000000000005126                GAP_SendSlaveSecurityRequest
 .text.GAP_Signable
                0x0000000000005172       0x66 e:/Workspace/resistance_band/reistance_band_v0_1/resistance_band/LIB\libCH57xBLE.a(gap.o)
                0x0000000000005172                GAP_Signable
 .text.GAP_TerminateAuth
                0x00000000000051d8       0x2a e:/Workspace/resistance_band/reistance_band_v0_1/resistance_band/LIB\libCH57xBLE.a(gap.o)
                0x00000000000051d8                GAP_TerminateAuth
 .text.GAP_NumActiveConnections
                0x0000000000005202        0x4 e:/Workspace/resistance_band/reistance_band_v0_1/resistance_band/LIB\libCH57xBLE.a(gap.o)
                0x0000000000005202                GAP_NumActiveConnections
 .text.GAP_TerminateLinkReq
                0x0000000000005206       0x8e e:/Workspace/resistance_band/reistance_band_v0_1/resistance_band/LIB\libCH57xBLE.a(gap.o)
                0x0000000000005206                GAP_TerminateLinkReq
 .text.GAP_SetParamValue
                0x0000000000005294       0x4a e:/Workspace/resistance_band/reistance_band_v0_1/resistance_band/LIB\libCH57xBLE.a(gap.o)
                0x0000000000005294                GAP_SetParamValue
 .text.GAP_Init
                0x00000000000052de       0x44 e:/Workspace/resistance_band/reistance_band_v0_1/resistance_band/LIB\libCH57xBLE.a(gap.o)
                0x00000000000052de                GAP_Init
 .text.GAP_ProcessEvent
                0x0000000000005322      0x57e e:/Workspace/resistance_band/reistance_band_v0_1/resistance_band/LIB\libCH57xBLE.a(gap.o)
                0x0000000000005322                GAP_ProcessEvent
 .text.gapSendScanEnable
                0x00000000000058a0       0x1e e:/Workspace/resistance_band/reistance_band_v0_1/resistance_band/LIB\libCH57xBLE.a(gap_central.o)
 .text.gapCentProcessConnEvt
                0x00000000000058be      0x154 e:/Workspace/resistance_band/reistance_band_v0_1/resistance_band/LIB\libCH57xBLE.a(gap_central.o)
                0x00000000000058be                gapCentProcessConnEvt
 .text.gapCancelLinkReq
                0x0000000000005a12       0x38 e:/Workspace/resistance_band/reistance_band_v0_1/resistance_band/LIB\libCH57xBLE.a(gap_central.o)
                0x0000000000005a12                gapCancelLinkReq
 .text.GAP_CentralParamInit
                0x0000000000005a4a       0x4c e:/Workspace/resistance_band/reistance_band_v0_1/resistance_band/LIB\libCH57xBLE.a(gap_central.o)
                0x0000000000005a4a                GAP_CentralParamInit
 .text.gapProcessAdvertDevInfo
                0x0000000000005a96      0x23a e:/Workspace/resistance_band/reistance_band_v0_1/resistance_band/LIB\libCH57xBLE.a(gap_central.o)
                0x0000000000005a96                gapProcessAdvertDevInfo
 .text.gapFreeScanRecs
                0x0000000000005cd0       0xa2 e:/Workspace/resistance_band/reistance_band_v0_1/resistance_band/LIB\libCH57xBLE.a(gap_central.o)
                0x0000000000005cd0                gapFreeScanRecs
 .text.gapSendDevDiscEvent
                0x0000000000005d72      0x124 e:/Workspace/resistance_band/reistance_band_v0_1/resistance_band/LIB\libCH57xBLE.a(gap_central.o)
                0x0000000000005d72                gapSendDevDiscEvent
 .text.gapSetScanParamStatus.part.2
                0x0000000000005e96       0x40 e:/Workspace/resistance_band/reistance_band_v0_1/resistance_band/LIB\libCH57xBLE.a(gap_central.o)
 .text.gapCentProcessHCICmdEvt
                0x0000000000005ed6       0x3c e:/Workspace/resistance_band/reistance_band_v0_1/resistance_band/LIB\libCH57xBLE.a(gap_central.o)
                0x0000000000005ed6                gapCentProcessHCICmdEvt
 .text.gapProcessScanningEvt
                0x0000000000005f12      0x110 e:/Workspace/resistance_band/reistance_band_v0_1/resistance_band/LIB\libCH57xBLE.a(gap_central.o)
                0x0000000000005f12                gapProcessScanningEvt
 .text.gapProcessScanningDirectEvt
                0x0000000000006022       0xfe e:/Workspace/resistance_band/reistance_band_v0_1/resistance_band/LIB\libCH57xBLE.a(gap_central.o)
                0x0000000000006022                gapProcessScanningDirectEvt
 .text.GAP_CentConnRegister
                0x0000000000006120       0x12 e:/Workspace/resistance_band/reistance_band_v0_1/resistance_band/LIB\libCH57xBLE.a(gap_central.o)
                0x0000000000006120                GAP_CentConnRegister
 .text.GAP_CentDevMgrInit
                0x0000000000006132       0x94 e:/Workspace/resistance_band/reistance_band_v0_1/resistance_band/LIB\libCH57xBLE.a(gap_central.o)
                0x0000000000006132                GAP_CentDevMgrInit
 .text.gapFreeAdvertState
                0x00000000000061c6       0x20 e:/Workspace/resistance_band/reistance_band_v0_1/resistance_band/LIB\libCH57xBLE.a(gap_peripheral.o)
 .text.gapPeriProcessConnEvt
                0x00000000000061e6       0xbc e:/Workspace/resistance_band/reistance_band_v0_1/resistance_band/LIB\libCH57xBLE.a(gap_peripheral.o)
 .text.gapSetAdvParams
                0x00000000000062a2       0x7e e:/Workspace/resistance_band/reistance_band_v0_1/resistance_band/LIB\libCH57xBLE.a(gap_peripheral.o)
 .text.GAP_PeripheralParamInit
                0x0000000000006320       0x4a e:/Workspace/resistance_band/reistance_band_v0_1/resistance_band/LIB\libCH57xBLE.a(gap_peripheral.o)
                0x0000000000006320                GAP_PeripheralParamInit
 .text.gapSendMakeDiscEvent
                0x000000000000636a       0x50 e:/Workspace/resistance_band/reistance_band_v0_1/resistance_band/LIB\libCH57xBLE.a(gap_peripheral.o)
                0x000000000000636a                gapSendMakeDiscEvent
 .text.gapPeriProcessHCICmdCompleteEvt
                0x00000000000063ba      0x192 e:/Workspace/resistance_band/reistance_band_v0_1/resistance_band/LIB\libCH57xBLE.a(gap_peripheral.o)
 .text.GAP_MakeDiscoverable
                0x000000000000654c       0xf0 e:/Workspace/resistance_band/reistance_band_v0_1/resistance_band/LIB\libCH57xBLE.a(gap_peripheral.o)
                0x000000000000654c                GAP_MakeDiscoverable
 .text.GAP_EndDiscoverable
                0x000000000000663c       0x5c e:/Workspace/resistance_band/reistance_band_v0_1/resistance_band/LIB\libCH57xBLE.a(gap_peripheral.o)
                0x000000000000663c                GAP_EndDiscoverable
 .text.gapProcessAdvertisingEvt
                0x0000000000006698       0x8e e:/Workspace/resistance_band/reistance_band_v0_1/resistance_band/LIB\libCH57xBLE.a(gap_peripheral.o)
 .text.GAP_UpdateAdvertisingData
                0x0000000000006726       0xb8 e:/Workspace/resistance_band/reistance_band_v0_1/resistance_band/LIB\libCH57xBLE.a(gap_peripheral.o)
                0x0000000000006726                GAP_UpdateAdvertisingData
 .text.GAP_PeriConnRegister
                0x00000000000067de       0x2a e:/Workspace/resistance_band/reistance_band_v0_1/resistance_band/LIB\libCH57xBLE.a(gap_peripheral.o)
                0x00000000000067de                GAP_PeriConnRegister
 .text.GAP_PeriDevMgrInit
                0x0000000000006808       0xbc e:/Workspace/resistance_band/reistance_band_v0_1/resistance_band/LIB\libCH57xBLE.a(gap_peripheral.o)
                0x0000000000006808                GAP_PeriDevMgrInit
 .text.ggs_SetAttrWPermit
                0x00000000000068c4       0x68 e:/Workspace/resistance_band/reistance_band_v0_1/resistance_band/LIB\libCH57xBLE.a(gapgattserver.o)
 .text.ggs_ReadAttrCB
                0x000000000000692c      0x152 e:/Workspace/resistance_band/reistance_band_v0_1/resistance_band/LIB\libCH57xBLE.a(gapgattserver.o)
 .text.ggs_WriteAttrCB
                0x0000000000006a7e      0x154 e:/Workspace/resistance_band/reistance_band_v0_1/resistance_band/LIB\libCH57xBLE.a(gapgattserver.o)
 .text.GGS_ParamInit
                0x0000000000006bd2      0x23a e:/Workspace/resistance_band/reistance_band_v0_1/resistance_band/LIB\libCH57xBLE.a(gapgattserver.o)
                0x0000000000006bd2                GGS_ParamInit
 .text.GGS_SetParameter
                0x0000000000006e0c       0xde e:/Workspace/resistance_band/reistance_band_v0_1/resistance_band/LIB\libCH57xBLE.a(gapgattserver.o)
                0x0000000000006e0c                GGS_SetParameter
 .text.GGS_AddService
                0x0000000000006eea       0x2c e:/Workspace/resistance_band/reistance_band_v0_1/resistance_band/LIB\libCH57xBLE.a(gapgattserver.o)
                0x0000000000006eea                GGS_AddService
 .text.GAP_DeviceInit
                0x0000000000006f16       0xd8 e:/Workspace/resistance_band/reistance_band_v0_1/resistance_band/LIB\libCH57xBLE.a(gapgattserver.o)
                0x0000000000006f16                GAP_DeviceInit
 .text.gattGetPayload
                0x0000000000006fee       0x7e e:/Workspace/resistance_band/reistance_band_v0_1/resistance_band/LIB\libCH57xBLE.a(gatt.o)
                0x0000000000006fee                gattGetPayload
 .text.gattNotifyEvent
                0x000000000000706c       0x80 e:/Workspace/resistance_band/reistance_band_v0_1/resistance_band/LIB\libCH57xBLE.a(gatt.o)
                0x000000000000706c                gattNotifyEvent
 .text.gattSendFlowCtrlEvt
                0x00000000000070ec       0x4a e:/Workspace/resistance_band/reistance_band_v0_1/resistance_band/LIB\libCH57xBLE.a(gatt.o)
                0x00000000000070ec                gattSendFlowCtrlEvt
 .text.gattStartTimer
                0x0000000000007136        0xc e:/Workspace/resistance_band/reistance_band_v0_1/resistance_band/LIB\libCH57xBLE.a(gatt.o)
                0x0000000000007136                gattStartTimer
 .text.gattStopTimer
                0x0000000000007142       0x32 e:/Workspace/resistance_band/reistance_band_v0_1/resistance_band/LIB\libCH57xBLE.a(gatt.o)
                0x0000000000007142                gattStopTimer
 .text.GATT_AppCompletedMsg
                0x0000000000007174       0x30 e:/Workspace/resistance_band/reistance_band_v0_1/resistance_band/LIB\libCH57xBLE.a(gatt.o)
                0x0000000000007174                GATT_AppCompletedMsg
 .text.GATT_NotifyEvent
                0x00000000000071a4       0x4e e:/Workspace/resistance_band/reistance_band_v0_1/resistance_band/LIB\libCH57xBLE.a(gatt.o)
                0x00000000000071a4                GATT_NotifyEvent
 .text.gattRegisterServer
                0x00000000000071f2        0x6 e:/Workspace/resistance_band/reistance_band_v0_1/resistance_band/LIB\libCH57xBLE.a(gatt.o)
                0x00000000000071f2                gattRegisterServer
 .text.GATT_UpdateMTU
                0x00000000000071f8       0x5c e:/Workspace/resistance_band/reistance_band_v0_1/resistance_band/LIB\libCH57xBLE.a(gatt.o)
                0x00000000000071f8                GATT_UpdateMTU
 .text.GATT_bm_alloc
                0x0000000000007254       0xea e:/Workspace/resistance_band/reistance_band_v0_1/resistance_band/LIB\libCH57xBLE.a(gatt.o)
                0x0000000000007254                GATT_bm_alloc
 .text.GATT_ServiceChangedInd
                0x000000000000733e       0x94 e:/Workspace/resistance_band/reistance_band_v0_1/resistance_band/LIB\libCH57xBLE.a(gatt.o)
                0x000000000000733e                GATT_ServiceChangedInd
 .text.GATT_bm_free
                0x00000000000073d2       0x1c e:/Workspace/resistance_band/reistance_band_v0_1/resistance_band/LIB\libCH57xBLE.a(gatt.o)
                0x00000000000073d2                GATT_bm_free
 .text.GATT_RegisterForPeriMsgs
                0x00000000000073ee        0x6 e:/Workspace/resistance_band/reistance_band_v0_1/resistance_band/LIB\libCH57xBLE.a(gatt.o)
                0x00000000000073ee                GATT_RegisterForPeriMsgs
 .text.GATT_Init
                0x00000000000073f4       0x30 e:/Workspace/resistance_band/reistance_band_v0_1/resistance_band/LIB\libCH57xBLE.a(gatt.o)
                0x00000000000073f4                GATT_Init
 .text.GATT_ProcessEvent
                0x0000000000007424      0x136 e:/Workspace/resistance_band/reistance_band_v0_1/resistance_band/LIB\libCH57xBLE.a(gatt.o)
                0x0000000000007424                GATT_ProcessEvent
 .text.gattProcessExchangeMTUReq
                0x000000000000755a        0x4 e:/Workspace/resistance_band/reistance_band_v0_1/resistance_band/LIB\libCH57xBLE.a(gattservapp.o)
 .text.gattServApp_FindCharCfgItem
                0x000000000000755e       0x20 e:/Workspace/resistance_band/reistance_band_v0_1/resistance_band/LIB\libCH57xBLE.a(gattservapp.o)
 .text.gattServerHandleTimerCB
                0x000000000000757e       0x3c e:/Workspace/resistance_band/reistance_band_v0_1/resistance_band/LIB\libCH57xBLE.a(gattservapp.o)
 .text.GATTServApp_InitCharCfg.part.12
                0x00000000000075ba       0x1c e:/Workspace/resistance_band/reistance_band_v0_1/resistance_band/LIB\libCH57xBLE.a(gattservapp.o)
 .text.gattProcessExecuteWriteReq
                0x00000000000075d6        0x4 e:/Workspace/resistance_band/reistance_band_v0_1/resistance_band/LIB\libCH57xBLE.a(gattservapp.o)
 .text.GATTServApp_ParamInit
                0x00000000000075da       0xd6 e:/Workspace/resistance_band/reistance_band_v0_1/resistance_band/LIB\libCH57xBLE.a(gattservapp.o)
                0x00000000000075da                GATTServApp_ParamInit
 .text.GATTServApp_ReadCharCfg
                0x00000000000076b0       0x18 e:/Workspace/resistance_band/reistance_band_v0_1/resistance_band/LIB\libCH57xBLE.a(gattservapp.o)
                0x00000000000076b0                GATTServApp_ReadCharCfg
 .text.GATTServApp_WriteCharCfg
                0x00000000000076c8       0x3c e:/Workspace/resistance_band/reistance_band_v0_1/resistance_band/LIB\libCH57xBLE.a(gattservapp.o)
                0x00000000000076c8                GATTServApp_WriteCharCfg
 .text.GATTServApp_ProcessCCCWriteReq
                0x0000000000007704       0x60 e:/Workspace/resistance_band/reistance_band_v0_1/resistance_band/LIB\libCH57xBLE.a(gattservapp.o)
                0x0000000000007704                GATTServApp_ProcessCCCWriteReq
 .text.gattServApp_WriteAttrCB
                0x0000000000007764       0x34 e:/Workspace/resistance_band/reistance_band_v0_1/resistance_band/LIB\libCH57xBLE.a(gattservapp.o)
                0x0000000000007764                gattServApp_WriteAttrCB
 .text.GATTServApp_SendCCCUpdatedEvent
                0x0000000000007798       0x5e e:/Workspace/resistance_band/reistance_band_v0_1/resistance_band/LIB\libCH57xBLE.a(gattservapp.o)
                0x0000000000007798                GATTServApp_SendCCCUpdatedEvent
 .text.GATTServApp_SendServiceChangedInd
                0x00000000000077f6       0x36 e:/Workspace/resistance_band/reistance_band_v0_1/resistance_band/LIB\libCH57xBLE.a(gattservapp.o)
                0x00000000000077f6                GATTServApp_SendServiceChangedInd
 .text.gattServApp_ClearPrepareWriteQ
                0x000000000000782c       0x4c e:/Workspace/resistance_band/reistance_band_v0_1/resistance_band/LIB\libCH57xBLE.a(gattservapp.o)
                0x000000000000782c                gattServApp_ClearPrepareWriteQ
 .text.gattServApp_FindPrepareWriteQ
                0x0000000000007878       0x2c e:/Workspace/resistance_band/reistance_band_v0_1/resistance_band/LIB\libCH57xBLE.a(gattservapp.o)
                0x0000000000007878                gattServApp_FindPrepareWriteQ
 .text.gattServApp_FindServiceCBs
                0x00000000000078a4       0x18 e:/Workspace/resistance_band/reistance_band_v0_1/resistance_band/LIB\libCH57xBLE.a(gattservapp.o)
                0x00000000000078a4                gattServApp_FindServiceCBs
 .text.gattServApp_FindAuthorizeAttrCB
                0x00000000000078bc       0x16 e:/Workspace/resistance_band/reistance_band_v0_1/resistance_band/LIB\libCH57xBLE.a(gattservapp.o)
                0x00000000000078bc                gattServApp_FindAuthorizeAttrCB
 .text.gattServApp_IsWriteLong
                0x00000000000078d2       0xe6 e:/Workspace/resistance_band/reistance_band_v0_1/resistance_band/LIB\libCH57xBLE.a(gattservapp.o)
                0x00000000000078d2                gattServApp_IsWriteLong
 .text.gattFindService
                0x00000000000079b8       0x1c e:/Workspace/resistance_band/reistance_band_v0_1/resistance_band/LIB\libCH57xBLE.a(gattservapp.o)
                0x00000000000079b8                gattFindService
 .text.GATT_ServiceNumAttrs
                0x00000000000079d4       0x18 e:/Workspace/resistance_band/reistance_band_v0_1/resistance_band/LIB\libCH57xBLE.a(gattservapp.o)
                0x00000000000079d4                GATT_ServiceNumAttrs
 .text.GATT_ServiceEncKeySize
                0x00000000000079ec       0x18 e:/Workspace/resistance_band/reistance_band_v0_1/resistance_band/LIB\libCH57xBLE.a(gattservapp.o)
                0x00000000000079ec                GATT_ServiceEncKeySize
 .text.GATT_VerifyWritePermissions.part.7
                0x0000000000007a04       0x2e e:/Workspace/resistance_band/reistance_band_v0_1/resistance_band/LIB\libCH57xBLE.a(gattservapp.o)
 .text.gattResetServerInfo
                0x0000000000007a32       0x1c e:/Workspace/resistance_band/reistance_band_v0_1/resistance_band/LIB\libCH57xBLE.a(gattservapp.o)
                0x0000000000007a32                gattResetServerInfo
 .text.gattFindServerInfo
                0x0000000000007a4e       0x28 e:/Workspace/resistance_band/reistance_band_v0_1/resistance_band/LIB\libCH57xBLE.a(gattservapp.o)
                0x0000000000007a4e                gattFindServerInfo
 .text.gattServerHandleConnStatusCB
                0x0000000000007a76       0x98 e:/Workspace/resistance_band/reistance_band_v0_1/resistance_band/LIB\libCH57xBLE.a(gattservapp.o)
                0x0000000000007a76                gattServerHandleConnStatusCB
 .text.gattServerProcessMsgCB
                0x0000000000007b0e      0x1c0 e:/Workspace/resistance_band/reistance_band_v0_1/resistance_band/LIB\libCH57xBLE.a(gattservapp.o)
                0x0000000000007b0e                gattServerProcessMsgCB
 .text.gattServerNotifyTxCB
                0x0000000000007cce       0x28 e:/Workspace/resistance_band/reistance_band_v0_1/resistance_band/LIB\libCH57xBLE.a(gattservapp.o)
 .text.GATT_FindHandle
                0x0000000000007cf6       0x4a e:/Workspace/resistance_band/reistance_band_v0_1/resistance_band/LIB\libCH57xBLE.a(gattservapp.o)
                0x0000000000007cf6                GATT_FindHandle
 .text.GATTServApp_WriteAttr
                0x0000000000007d40       0xa8 e:/Workspace/resistance_band/reistance_band_v0_1/resistance_band/LIB\libCH57xBLE.a(gattservapp.o)
                0x0000000000007d40                GATTServApp_WriteAttr
 .text.gattServApp_ProcessExecuteWriteReq
                0x0000000000007de8      0x100 e:/Workspace/resistance_band/reistance_band_v0_1/resistance_band/LIB\libCH57xBLE.a(gattservapp.o)
                0x0000000000007de8                gattServApp_ProcessExecuteWriteReq
 .text.GATTServApp_UpdateCharCfg
                0x0000000000007ee8       0x1e e:/Workspace/resistance_band/reistance_band_v0_1/resistance_band/LIB\libCH57xBLE.a(gattservapp.o)
                0x0000000000007ee8                GATTServApp_UpdateCharCfg
 .text.gattServApp_ProcessPrepareWriteReq
                0x0000000000007f06      0x10e e:/Workspace/resistance_band/reistance_band_v0_1/resistance_band/LIB\libCH57xBLE.a(gattservapp.o)
                0x0000000000007f06                gattServApp_ProcessPrepareWriteReq
 .text.gattServApp_ProcessWriteReq
                0x0000000000008014       0xb0 e:/Workspace/resistance_band/reistance_band_v0_1/resistance_band/LIB\libCH57xBLE.a(gattservapp.o)
                0x0000000000008014                gattServApp_ProcessWriteReq
 .text.GATT_Indication
                0x00000000000080c4       0xa4 e:/Workspace/resistance_band/reistance_band_v0_1/resistance_band/LIB\libCH57xBLE.a(gattservapp.o)
                0x00000000000080c4                GATT_Indication
 .text.GATT_FindHandleUUID
                0x0000000000008168       0x94 e:/Workspace/resistance_band/reistance_band_v0_1/resistance_band/LIB\libCH57xBLE.a(gattservapp.o)
                0x0000000000008168                GATT_FindHandleUUID
 .text.gattProcessReadByGrpTypeReq
                0x00000000000081fc       0x60 e:/Workspace/resistance_band/reistance_band_v0_1/resistance_band/LIB\libCH57xBLE.a(gattservapp.o)
 .text.gattProcessReadByTypeReq
                0x000000000000825c       0x34 e:/Workspace/resistance_band/reistance_band_v0_1/resistance_band/LIB\libCH57xBLE.a(gattservapp.o)
 .text.gattProcessFindByTypeValueReq
                0x0000000000008290       0x34 e:/Workspace/resistance_band/reistance_band_v0_1/resistance_band/LIB\libCH57xBLE.a(gattservapp.o)
 .text.gattProcessFindInfoReq
                0x00000000000082c4      0x1aa e:/Workspace/resistance_band/reistance_band_v0_1/resistance_band/LIB\libCH57xBLE.a(gattservapp.o)
 .text.GATT_Notification
                0x000000000000846e       0x70 e:/Workspace/resistance_band/reistance_band_v0_1/resistance_band/LIB\libCH57xBLE.a(gattservapp.o)
                0x000000000000846e                GATT_Notification
 .text.GATT_VerifyWritePermissions
                0x00000000000084de       0x6a e:/Workspace/resistance_band/reistance_band_v0_1/resistance_band/LIB\libCH57xBLE.a(gattservapp.o)
                0x00000000000084de                GATT_VerifyWritePermissions
 .text.gattProcessWriteReq
                0x0000000000008548       0x36 e:/Workspace/resistance_band/reistance_band_v0_1/resistance_band/LIB\libCH57xBLE.a(gattservapp.o)
 .text.GATT_VerifyPrepareWritePermissions
                0x000000000000857e       0x56 e:/Workspace/resistance_band/reistance_band_v0_1/resistance_band/LIB\libCH57xBLE.a(gattservapp.o)
                0x000000000000857e                GATT_VerifyPrepareWritePermissions
 .text.gattProcessPrepareWriteReq
                0x00000000000085d4       0x36 e:/Workspace/resistance_band/reistance_band_v0_1/resistance_band/LIB\libCH57xBLE.a(gattservapp.o)
 .text.GATT_FindNextAttr
                0x000000000000860a       0xc2 e:/Workspace/resistance_band/reistance_band_v0_1/resistance_band/LIB\libCH57xBLE.a(gattservapp.o)
                0x000000000000860a                GATT_FindNextAttr
 .text.GATTServApp_ReadAttr
                0x00000000000086cc      0x2e2 e:/Workspace/resistance_band/reistance_band_v0_1/resistance_band/LIB\libCH57xBLE.a(gattservapp.o)
                0x00000000000086cc                GATTServApp_ReadAttr
 .text.gattServApp_ProcessReadMultiReq
                0x00000000000089ae      0x16e e:/Workspace/resistance_band/reistance_band_v0_1/resistance_band/LIB\libCH57xBLE.a(gattservapp.o)
                0x00000000000089ae                gattServApp_ProcessReadMultiReq
 .text.gattServApp_ProcessFindByTypeValueReq
                0x0000000000008b1c      0x19c e:/Workspace/resistance_band/reistance_band_v0_1/resistance_band/LIB\libCH57xBLE.a(gattservapp.o)
                0x0000000000008b1c                gattServApp_ProcessFindByTypeValueReq
 .text.GATT_VerifyReadPermissions
                0x0000000000008cb8       0x68 e:/Workspace/resistance_band/reistance_band_v0_1/resistance_band/LIB\libCH57xBLE.a(gattservapp.o)
                0x0000000000008cb8                GATT_VerifyReadPermissions
 .text.gattProcessReadMultiReq
                0x0000000000008d20       0xae e:/Workspace/resistance_band/reistance_band_v0_1/resistance_band/LIB\libCH57xBLE.a(gattservapp.o)
 .text.gattProcessReadReq
                0x0000000000008dce       0x30 e:/Workspace/resistance_band/reistance_band_v0_1/resistance_band/LIB\libCH57xBLE.a(gattservapp.o)
 .text.gattServApp_ProcessReadByGrpTypeReq
                0x0000000000008dfe      0x21c e:/Workspace/resistance_band/reistance_band_v0_1/resistance_band/LIB\libCH57xBLE.a(gattservapp.o)
                0x0000000000008dfe                gattServApp_ProcessReadByGrpTypeReq
 .text.gattServApp_ProcessReadByTypeReq
                0x000000000000901a      0x1ae e:/Workspace/resistance_band/reistance_band_v0_1/resistance_band/LIB\libCH57xBLE.a(gattservapp.o)
                0x000000000000901a                gattServApp_ProcessReadByTypeReq
 .text.GATT_RegisterService
                0x00000000000091c8       0xfc e:/Workspace/resistance_band/reistance_band_v0_1/resistance_band/LIB\libCH57xBLE.a(gattservapp.o)
                0x00000000000091c8                GATT_RegisterService
 .text.GATTServApp_RegisterService
                0x00000000000092c4       0x8a e:/Workspace/resistance_band/reistance_band_v0_1/resistance_band/LIB\libCH57xBLE.a(gattservapp.o)
                0x00000000000092c4                GATTServApp_RegisterService
 .text.GATTServApp_AddService
                0x000000000000934e       0x2c e:/Workspace/resistance_band/reistance_band_v0_1/resistance_band/LIB\libCH57xBLE.a(gattservapp.o)
                0x000000000000934e                GATTServApp_AddService
 .text.GATTServApp_RegisterForMsg
                0x000000000000937a        0x6 e:/Workspace/resistance_band/reistance_band_v0_1/resistance_band/LIB\libCH57xBLE.a(gattservapp.o)
                0x000000000000937a                GATTServApp_RegisterForMsg
 .text.GATTServApp_InitCharCfg
                0x0000000000009380       0x28 e:/Workspace/resistance_band/reistance_band_v0_1/resistance_band/LIB\libCH57xBLE.a(gattservapp.o)
                0x0000000000009380                GATTServApp_InitCharCfg
 .text.gattServApp_HandleConnStatusCB
                0x00000000000093a8       0x74 e:/Workspace/resistance_band/reistance_band_v0_1/resistance_band/LIB\libCH57xBLE.a(gattservapp.o)
                0x00000000000093a8                gattServApp_HandleConnStatusCB
 .text.GATT_InitServer
                0x000000000000941c       0xf6 e:/Workspace/resistance_band/reistance_band_v0_1/resistance_band/LIB\libCH57xBLE.a(gattservapp.o)
                0x000000000000941c                GATT_InitServer
 .text.GATTServApp_Init
                0x0000000000009512       0x34 e:/Workspace/resistance_band/reistance_band_v0_1/resistance_band/LIB\libCH57xBLE.a(gattservapp.o)
                0x0000000000009512                GATTServApp_Init
 .text.GATTServApp_ProcessEvent
                0x0000000000009546      0x366 e:/Workspace/resistance_band/reistance_band_v0_1/resistance_band/LIB\libCH57xBLE.a(gattservapp.o)
                0x0000000000009546                GATTServApp_ProcessEvent
 .text.l2capAllocConnChannel
                0x00000000000098ac       0xd8 e:/Workspace/resistance_band/reistance_band_v0_1/resistance_band/LIB\libCH57xBLE.a(l2cap.o)
                0x00000000000098ac                l2capAllocConnChannel
 .text.l2capFindLocalCID
                0x0000000000009984       0x2c e:/Workspace/resistance_band/reistance_band_v0_1/resistance_band/LIB\libCH57xBLE.a(l2cap.o)
                0x0000000000009984                l2capFindLocalCID
 .text.l2capFindLocalId
                0x00000000000099b0       0x30 e:/Workspace/resistance_band/reistance_band_v0_1/resistance_band/LIB\libCH57xBLE.a(l2cap.o)
                0x00000000000099b0                l2capFindLocalId
 .text.l2capFindPsm
                0x00000000000099e0       0x2c e:/Workspace/resistance_band/reistance_band_v0_1/resistance_band/LIB\libCH57xBLE.a(l2cap.o)
                0x00000000000099e0                l2capFindPsm
 .text.l2capFindRemoteCID
                0x0000000000009a0c       0x3c e:/Workspace/resistance_band/reistance_band_v0_1/resistance_band/LIB\libCH57xBLE.a(l2cap.o)
                0x0000000000009a0c                l2capFindRemoteCID
 .text.l2capFreeChannel
                0x0000000000009a48       0x4a e:/Workspace/resistance_band/reistance_band_v0_1/resistance_band/LIB\libCH57xBLE.a(l2cap.o)
                0x0000000000009a48                l2capFreeChannel
 .text.l2capDisconnectChannel
                0x0000000000009a92       0x28 e:/Workspace/resistance_band/reistance_band_v0_1/resistance_band/LIB\libCH57xBLE.a(l2cap.o)
                0x0000000000009a92                l2capDisconnectChannel
 .text.l2capHandleTimerCB
                0x0000000000009aba       0x2c e:/Workspace/resistance_band/reistance_band_v0_1/resistance_band/LIB\libCH57xBLE.a(l2cap.o)
                0x0000000000009aba                l2capHandleTimerCB
 .text.l2capFreePendingPkt
                0x0000000000009ae6       0x58 e:/Workspace/resistance_band/reistance_band_v0_1/resistance_band/LIB\libCH57xBLE.a(l2cap.o)
                0x0000000000009ae6                l2capFreePendingPkt
 .text.l2capGetCoChannelInfo
                0x0000000000009b3e       0x7e e:/Workspace/resistance_band/reistance_band_v0_1/resistance_band/LIB\libCH57xBLE.a(l2cap.o)
                0x0000000000009b3e                l2capGetCoChannelInfo
 .text.l2capNumActiveChannnels
                0x0000000000009bbc       0x44 e:/Workspace/resistance_band/reistance_band_v0_1/resistance_band/LIB\libCH57xBLE.a(l2cap.o)
                0x0000000000009bbc                l2capNumActiveChannnels
 .text.l2capStartTimer
                0x0000000000009c00       0x1a e:/Workspace/resistance_band/reistance_band_v0_1/resistance_band/LIB\libCH57xBLE.a(l2cap.o)
                0x0000000000009c00                l2capStartTimer
 .text.l2capStopTimer
                0x0000000000009c1a       0x1e e:/Workspace/resistance_band/reistance_band_v0_1/resistance_band/LIB\libCH57xBLE.a(l2cap.o)
                0x0000000000009c1a                l2capStopTimer
 .text.l2capDisconnectAllChannels
                0x0000000000009c38       0xdc e:/Workspace/resistance_band/reistance_band_v0_1/resistance_band/LIB\libCH57xBLE.a(l2cap.o)
                0x0000000000009c38                l2capDisconnectAllChannels
 .text.l2capHandleConnStatusCB
                0x0000000000009d14       0x3c e:/Workspace/resistance_band/reistance_band_v0_1/resistance_band/LIB\libCH57xBLE.a(l2cap.o)
                0x0000000000009d14                l2capHandleConnStatusCB
 .text.l2capHandleRxError
                0x0000000000009d50        0x6 e:/Workspace/resistance_band/reistance_band_v0_1/resistance_band/LIB\libCH57xBLE.a(l2cap.o)
                0x0000000000009d50                l2capHandleRxError
 .text.L2CAP_GetMTU
                0x0000000000009d56        0x6 e:/Workspace/resistance_band/reistance_band_v0_1/resistance_band/LIB\libCH57xBLE.a(l2cap.o)
                0x0000000000009d56                L2CAP_GetMTU
 .text.L2CAP_HostNumCompletedPkts
                0x0000000000009d5c       0x28 e:/Workspace/resistance_band/reistance_band_v0_1/resistance_band/LIB\libCH57xBLE.a(l2cap.o)
                0x0000000000009d5c                L2CAP_HostNumCompletedPkts
 .text.L2CAP_ParseConnectReq
                0x0000000000009d84       0x5e e:/Workspace/resistance_band/reistance_band_v0_1/resistance_band/LIB\libCH57xBLE.a(l2cap.o)
                0x0000000000009d84                L2CAP_ParseConnectReq
 .text.L2CAP_ParseFlowCtrlCredit
                0x0000000000009de2       0x2e e:/Workspace/resistance_band/reistance_band_v0_1/resistance_band/LIB\libCH57xBLE.a(l2cap.o)
                0x0000000000009de2                L2CAP_ParseFlowCtrlCredit
 .text.L2CAP_RegisterApp
                0x0000000000009e10       0x30 e:/Workspace/resistance_band/reistance_band_v0_1/resistance_band/LIB\libCH57xBLE.a(l2cap.o)
                0x0000000000009e10                L2CAP_RegisterApp
 .text.L2CAP_SetBufSize
                0x0000000000009e40       0x1e e:/Workspace/resistance_band/reistance_band_v0_1/resistance_band/LIB\libCH57xBLE.a(l2cap.o)
                0x0000000000009e40                L2CAP_SetBufSize
 .text.L2CAP_bm_alloc
                0x0000000000009e5e       0x30 e:/Workspace/resistance_band/reistance_band_v0_1/resistance_band/LIB\libCH57xBLE.a(l2cap.o)
                0x0000000000009e5e                L2CAP_bm_alloc
 .text.L2CAP_Init
                0x0000000000009e8e      0x12e e:/Workspace/resistance_band/reistance_band_v0_1/resistance_band/LIB\libCH57xBLE.a(l2cap.o)
                0x0000000000009e8e                L2CAP_Init
 .text.L2CAP_ProcessEvent
                0x0000000000009fbc       0xc8 e:/Workspace/resistance_band/reistance_band_v0_1/resistance_band/LIB\libCH57xBLE.a(l2cap.o)
                0x0000000000009fbc                L2CAP_ProcessEvent
 .text.l2capParseCmdReject
                0x000000000000a084       0x5e e:/Workspace/resistance_band/reistance_band_v0_1/resistance_band/LIB\libCH57xBLE.a(l2cap_input.o)
                0x000000000000a084                l2capParseCmdReject
 .text.l2capParseDisconnectReq
                0x000000000000a0e2       0x2e e:/Workspace/resistance_band/reistance_band_v0_1/resistance_band/LIB\libCH57xBLE.a(l2cap_input.o)
                0x000000000000a0e2                l2capParseDisconnectReq
 .text.l2capParseDisconnectRsp
                0x000000000000a110       0x2e e:/Workspace/resistance_band/reistance_band_v0_1/resistance_band/LIB\libCH57xBLE.a(l2cap_input.o)
                0x000000000000a110                l2capParseDisconnectRsp
 .text.L2CAP_ParseParamUpdateReq
                0x000000000000a13e       0x4e e:/Workspace/resistance_band/reistance_band_v0_1/resistance_band/LIB\libCH57xBLE.a(l2cap_input.o)
                0x000000000000a13e                L2CAP_ParseParamUpdateReq
 .text.l2capParseParamUpdateRsp
                0x000000000000a18c       0x1e e:/Workspace/resistance_band/reistance_band_v0_1/resistance_band/LIB\libCH57xBLE.a(l2cap_input.o)
                0x000000000000a18c                l2capParseParamUpdateRsp
 .text.l2capProcessConnectReq
                0x000000000000a1aa       0xfc e:/Workspace/resistance_band/reistance_band_v0_1/resistance_band/LIB\libCH57xBLE.a(l2cap_input.o)
                0x000000000000a1aa                l2capProcessConnectReq
 .text.l2capParseConnectRsp
                0x000000000000a2a6       0x5e e:/Workspace/resistance_band/reistance_band_v0_1/resistance_band/LIB\libCH57xBLE.a(l2cap_input.o)
                0x000000000000a2a6                l2capParseConnectRsp
 .text.l2capParseSignalHdr
                0x000000000000a304       0x22 e:/Workspace/resistance_band/reistance_band_v0_1/resistance_band/LIB\libCH57xBLE.a(l2cap_input.o)
                0x000000000000a304                l2capParseSignalHdr
 .text.l2capParsePacket
                0x000000000000a326       0x8c e:/Workspace/resistance_band/reistance_band_v0_1/resistance_band/LIB\libCH57xBLE.a(l2cap_input.o)
                0x000000000000a326                l2capParsePacket
 .text.l2capProcessReq
                0x000000000000a3b2      0x15a e:/Workspace/resistance_band/reistance_band_v0_1/resistance_band/LIB\libCH57xBLE.a(l2cap_input.o)
                0x000000000000a3b2                l2capProcessReq
 .text.l2capProcessRsp
                0x000000000000a50c      0x150 e:/Workspace/resistance_band/reistance_band_v0_1/resistance_band/LIB\libCH57xBLE.a(l2cap_input.o)
                0x000000000000a50c                l2capProcessRsp
 .text.l2capProcessRxData
                0x000000000000a65c       0xf8 e:/Workspace/resistance_band/reistance_band_v0_1/resistance_band/LIB\libCH57xBLE.a(l2cap_input.o)
                0x000000000000a65c                l2capProcessRxData
 .text.l2capNotifyData
                0x000000000000a754       0x5a e:/Workspace/resistance_band/reistance_band_v0_1/resistance_band/LIB\libCH57xBLE.a(l2cap_output.o)
                0x000000000000a754                l2capNotifyData
 .text.l2capNotifySignal
                0x000000000000a7ae       0x76 e:/Workspace/resistance_band/reistance_band_v0_1/resistance_band/LIB\libCH57xBLE.a(l2cap_output.o)
                0x000000000000a7ae                l2capNotifySignal
 .text.l2capNotifyCreditEvt
                0x000000000000a824       0x9c e:/Workspace/resistance_band/reistance_band_v0_1/resistance_band/LIB\libCH57xBLE.a(l2cap_output.o)
                0x000000000000a824                l2capNotifyCreditEvt
 .text.l2capNotifyChannelEstEvt
                0x000000000000a8c0       0x58 e:/Workspace/resistance_band/reistance_band_v0_1/resistance_band/LIB\libCH57xBLE.a(l2cap_output.o)
                0x000000000000a8c0                l2capNotifyChannelEstEvt
 .text.l2capNotifyChannelTermEvt
                0x000000000000a918       0x3e e:/Workspace/resistance_band/reistance_band_v0_1/resistance_band/LIB\libCH57xBLE.a(l2cap_output.o)
                0x000000000000a918                l2capNotifyChannelTermEvt
 .text.l2capNotifyEvent
                0x000000000000a956       0x66 e:/Workspace/resistance_band/reistance_band_v0_1/resistance_band/LIB\libCH57xBLE.a(l2cap_output.o)
                0x000000000000a956                l2capNotifyEvent
 .text.l2capStoreFCPkt
                0x000000000000a9bc       0x32 e:/Workspace/resistance_band/reistance_band_v0_1/resistance_band/LIB\libCH57xBLE.a(l2cap_output.o)
                0x000000000000a9bc                l2capStoreFCPkt
 .text.l2capFreeTxSDU
                0x000000000000a9ee       0x9a e:/Workspace/resistance_band/reistance_band_v0_1/resistance_band/LIB\libCH57xBLE.a(l2cap_output.o)
                0x000000000000a9ee                l2capFreeTxSDU
 .text.l2capReassembleSegment
                0x000000000000aa88      0x174 e:/Workspace/resistance_band/reistance_band_v0_1/resistance_band/LIB\libCH57xBLE.a(l2cap_output.o)
                0x000000000000aa88                l2capReassembleSegment
 .text.l2capEncapSendData
                0x000000000000abfc       0xec e:/Workspace/resistance_band/reistance_band_v0_1/resistance_band/LIB\libCH57xBLE.a(l2cap_output.o)
                0x000000000000abfc                l2capEncapSendData
 .text.l2capSendFCPkt.part.3
                0x000000000000ace8       0x70 e:/Workspace/resistance_band/reistance_band_v0_1/resistance_band/LIB\libCH57xBLE.a(l2cap_output.o)
 .text.l2capSendSegment
                0x000000000000ad58      0x108 e:/Workspace/resistance_band/reistance_band_v0_1/resistance_band/LIB\libCH57xBLE.a(l2cap_output.o)
                0x000000000000ad58                l2capSendSegment
 .text.l2capSendNextSegment
                0x000000000000ae60       0xb4 e:/Workspace/resistance_band/reistance_band_v0_1/resistance_band/LIB\libCH57xBLE.a(l2cap_output.o)
                0x000000000000ae60                l2capSendNextSegment
 .text.l2capSendPkt
                0x000000000000af14       0x3a e:/Workspace/resistance_band/reistance_band_v0_1/resistance_band/LIB\libCH57xBLE.a(l2cap_output.o)
                0x000000000000af14                l2capSendPkt
 .text.L2CAP_SendData
                0x000000000000af4e       0x82 e:/Workspace/resistance_band/reistance_band_v0_1/resistance_band/LIB\libCH57xBLE.a(l2cap_output.o)
                0x000000000000af4e                L2CAP_SendData
 .text.l2capSendCmd
                0x000000000000afd0       0x8a e:/Workspace/resistance_band/reistance_band_v0_1/resistance_band/LIB\libCH57xBLE.a(l2cap_output.o)
                0x000000000000afd0                l2capSendCmd
 .text.l2capSendReq
                0x000000000000b05a       0xbc e:/Workspace/resistance_band/reistance_band_v0_1/resistance_band/LIB\libCH57xBLE.a(l2cap_output.o)
                0x000000000000b05a                l2capSendReq
 .text.l2capBuildDisconnectReq
                0x000000000000b116       0x28 e:/Workspace/resistance_band/reistance_band_v0_1/resistance_band/LIB\libCH57xBLE.a(l2cap_sdu.o)
 .text.l2capBuildParamUpdateReq
                0x000000000000b13e       0x4c e:/Workspace/resistance_band/reistance_band_v0_1/resistance_band/LIB\libCH57xBLE.a(l2cap_sdu.o)
 .text.l2capBuildParamUpdateRsp
                0x000000000000b18a       0x16 e:/Workspace/resistance_band/reistance_band_v0_1/resistance_band/LIB\libCH57xBLE.a(l2cap_sdu.o)
 .text.l2capBuildConnectRsp
                0x000000000000b1a0       0x5e e:/Workspace/resistance_band/reistance_band_v0_1/resistance_band/LIB\libCH57xBLE.a(l2cap_sdu.o)
 .text.l2capBuildCmdReject
                0x000000000000b1fe       0x62 e:/Workspace/resistance_band/reistance_band_v0_1/resistance_band/LIB\libCH57xBLE.a(l2cap_sdu.o)
                0x000000000000b1fe                l2capBuildCmdReject
 .text.l2capBuildDisconnectRsp
                0x000000000000b260       0x28 e:/Workspace/resistance_band/reistance_band_v0_1/resistance_band/LIB\libCH57xBLE.a(l2cap_sdu.o)
                0x000000000000b260                l2capBuildDisconnectRsp
 .text.l2capSendConnectRsp
                0x000000000000b288       0xa2 e:/Workspace/resistance_band/reistance_band_v0_1/resistance_band/LIB\libCH57xBLE.a(l2cap_sdu.o)
                0x000000000000b288                l2capSendConnectRsp
 .text.L2CAP_CmdReject
                0x000000000000b32a       0x12 e:/Workspace/resistance_band/reistance_band_v0_1/resistance_band/LIB\libCH57xBLE.a(l2cap_sdu.o)
                0x000000000000b32a                L2CAP_CmdReject
 .text.L2CAP_DisconnectReq
                0x000000000000b33c       0x2a e:/Workspace/resistance_band/reistance_band_v0_1/resistance_band/LIB\libCH57xBLE.a(l2cap_sdu.o)
                0x000000000000b33c                L2CAP_DisconnectReq
 .text.L2CAP_ConnParamUpdateReq
                0x000000000000b366       0x16 e:/Workspace/resistance_band/reistance_band_v0_1/resistance_band/LIB\libCH57xBLE.a(l2cap_sdu.o)
                0x000000000000b366                L2CAP_ConnParamUpdateReq
 .text.L2CAP_ConnParamUpdateRsp
                0x000000000000b37c       0x12 e:/Workspace/resistance_band/reistance_band_v0_1/resistance_band/LIB\libCH57xBLE.a(l2cap_sdu.o)
                0x000000000000b37c                L2CAP_ConnParamUpdateRsp
 .text.reportStatusChange
                0x000000000000b38e       0x3e e:/Workspace/resistance_band/reistance_band_v0_1/resistance_band/LIB\libCH57xBLE.a(linkdb.o)
 .text.linkDB_Init
                0x000000000000b3cc       0x88 e:/Workspace/resistance_band/reistance_band_v0_1/resistance_band/LIB\libCH57xBLE.a(linkdb.o)
                0x000000000000b3cc                linkDB_Init
 .text.linkDB_Find
                0x000000000000b454       0x2c e:/Workspace/resistance_band/reistance_band_v0_1/resistance_band/LIB\libCH57xBLE.a(linkdb.o)
                0x000000000000b454                linkDB_Find
 .text.linkDB_Authen
                0x000000000000b480       0x5c e:/Workspace/resistance_band/reistance_band_v0_1/resistance_band/LIB\libCH57xBLE.a(linkdb.o)
                0x000000000000b480                linkDB_Authen
 .text.linkDB_FindByAddr
                0x000000000000b4dc       0x76 e:/Workspace/resistance_band/reistance_band_v0_1/resistance_band/LIB\libCH57xBLE.a(linkdb.o)
                0x000000000000b4dc                linkDB_FindByAddr
 .text.linkDB_FindFirst
                0x000000000000b552       0x38 e:/Workspace/resistance_band/reistance_band_v0_1/resistance_band/LIB\libCH57xBLE.a(linkdb.o)
                0x000000000000b552                linkDB_FindFirst
 .text.linkDB_MTU
                0x000000000000b58a       0x18 e:/Workspace/resistance_band/reistance_band_v0_1/resistance_band/LIB\libCH57xBLE.a(linkdb.o)
                0x000000000000b58a                linkDB_MTU
 .text.linkDB_NumActive
                0x000000000000b5a2       0x2e e:/Workspace/resistance_band/reistance_band_v0_1/resistance_band/LIB\libCH57xBLE.a(linkdb.o)
                0x000000000000b5a2                linkDB_NumActive
 .text.linkDB_NumConns
                0x000000000000b5d0        0x6 e:/Workspace/resistance_band/reistance_band_v0_1/resistance_band/LIB\libCH57xBLE.a(linkdb.o)
                0x000000000000b5d0                linkDB_NumConns
 .text.linkDB_Register
                0x000000000000b5d6       0x28 e:/Workspace/resistance_band/reistance_band_v0_1/resistance_band/LIB\libCH57xBLE.a(linkdb.o)
                0x000000000000b5d6                linkDB_Register
 .text.linkDB_Remove
                0x000000000000b5fe       0x48 e:/Workspace/resistance_band/reistance_band_v0_1/resistance_band/LIB\libCH57xBLE.a(linkdb.o)
                0x000000000000b5fe                linkDB_Remove
 .text.linkDB_Role
                0x000000000000b646       0x18 e:/Workspace/resistance_band/reistance_band_v0_1/resistance_band/LIB\libCH57xBLE.a(linkdb.o)
                0x000000000000b646                linkDB_Role
 .text.linkDB_State
                0x000000000000b65e       0x30 e:/Workspace/resistance_band/reistance_band_v0_1/resistance_band/LIB\libCH57xBLE.a(linkdb.o)
                0x000000000000b65e                linkDB_State
 .text.linkDB_UpdateMTU
                0x000000000000b68e       0x28 e:/Workspace/resistance_band/reistance_band_v0_1/resistance_band/LIB\libCH57xBLE.a(linkdb.o)
                0x000000000000b68e                linkDB_UpdateMTU
 .text.linkDB_PerformFunc
                0x000000000000b6b6       0x52 e:/Workspace/resistance_band/reistance_band_v0_1/resistance_band/LIB\libCH57xBLE.a(linkdb.o)
                0x000000000000b6b6                linkDB_PerformFunc
 .text.linkDB_PeripheralLinkNum
                0x000000000000b708       0x3e e:/Workspace/resistance_band/reistance_band_v0_1/resistance_band/LIB\libCH57xBLE.a(linkdb.o)
                0x000000000000b708                linkDB_PeripheralLinkNum
 .text.linkDB_GetSMEvtID
                0x000000000000b746       0x58 e:/Workspace/resistance_band/reistance_band_v0_1/resistance_band/LIB\libCH57xBLE.a(linkdb.o)
                0x000000000000b746                linkDB_GetSMEvtID
 .text.linkDB_Add
                0x000000000000b79e       0xb2 e:/Workspace/resistance_band/reistance_band_v0_1/resistance_band/LIB\libCH57xBLE.a(linkdb.o)
                0x000000000000b79e                linkDB_Add
 .text.linkDB_GetHandleFromSMEvtID
                0x000000000000b850       0x32 e:/Workspace/resistance_band/reistance_band_v0_1/resistance_band/LIB\libCH57xBLE.a(linkdb.o)
                0x000000000000b850                linkDB_GetHandleFromSMEvtID
 .text.linkDB_GetPairingParam
                0x000000000000b882       0x54 e:/Workspace/resistance_band/reistance_band_v0_1/resistance_band/LIB\libCH57xBLE.a(linkdb.o)
                0x000000000000b882                linkDB_GetPairingParam
 .text.linkDB_NeedSendKey
                0x000000000000b8d6       0x42 e:/Workspace/resistance_band/reistance_band_v0_1/resistance_band/LIB\libCH57xBLE.a(linkdb.o)
                0x000000000000b8d6                linkDB_NeedSendKey
 .text.smpBuildPairingFailed
                0x000000000000b918       0x1a e:/Workspace/resistance_band/reistance_band_v0_1/resistance_band/LIB\libCH57xBLE.a(sm.o)
                0x000000000000b918                smpBuildPairingFailed
 .text.SM_StartEncryption
                0x000000000000b932       0x98 e:/Workspace/resistance_band/reistance_band_v0_1/resistance_band/LIB\libCH57xBLE.a(sm.o)
                0x000000000000b932                SM_StartEncryption
 .text.smpBuildEncInfo
                0x000000000000b9ca       0x30 e:/Workspace/resistance_band/reistance_band_v0_1/resistance_band/LIB\libCH57xBLE.a(sm.o)
                0x000000000000b9ca                smpBuildEncInfo
 .text.smpBuildIdentityAddrInfo
                0x000000000000b9fa       0x3a e:/Workspace/resistance_band/reistance_band_v0_1/resistance_band/LIB\libCH57xBLE.a(sm.o)
                0x000000000000b9fa                smpBuildIdentityAddrInfo
 .text.smpBuildIdentityInfo
                0x000000000000ba34       0x30 e:/Workspace/resistance_band/reistance_band_v0_1/resistance_band/LIB\libCH57xBLE.a(sm.o)
                0x000000000000ba34                smpBuildIdentityInfo
 .text.smpBuildMasterID
                0x000000000000ba64       0x44 e:/Workspace/resistance_band/reistance_band_v0_1/resistance_band/LIB\libCH57xBLE.a(sm.o)
                0x000000000000ba64                smpBuildMasterID
 .text.smpBuildPairingConfirm
                0x000000000000baa8       0x30 e:/Workspace/resistance_band/reistance_band_v0_1/resistance_band/LIB\libCH57xBLE.a(sm.o)
                0x000000000000baa8                smpBuildPairingConfirm
 .text.smpBuildPairingRandom
                0x000000000000bad8       0x30 e:/Workspace/resistance_band/reistance_band_v0_1/resistance_band/LIB\libCH57xBLE.a(sm.o)
                0x000000000000bad8                smpBuildPairingRandom
 .text.smpBuildSigningInfo
                0x000000000000bb08       0x30 e:/Workspace/resistance_band/reistance_band_v0_1/resistance_band/LIB\libCH57xBLE.a(sm.o)
                0x000000000000bb08                smpBuildSigningInfo
 .text.SM_ParamInit
                0x000000000000bb38       0x5a e:/Workspace/resistance_band/reistance_band_v0_1/resistance_band/LIB\libCH57xBLE.a(sm.o)
                0x000000000000bb38                SM_ParamInit
 .text.smDetermineKeySize
                0x000000000000bb92       0x20 e:/Workspace/resistance_band/reistance_band_v0_1/resistance_band/LIB\libCH57xBLE.a(sm.o)
                0x000000000000bb92                smDetermineKeySize
 .text.smProcessRandComplete
                0x000000000000bbb2       0x9e e:/Workspace/resistance_band/reistance_band_v0_1/resistance_band/LIB\libCH57xBLE.a(sm.o)
                0x000000000000bbb2                smProcessRandComplete
 .text.smSavePairInfo
                0x000000000000bc50      0x186 e:/Workspace/resistance_band/reistance_band_v0_1/resistance_band/LIB\libCH57xBLE.a(sm.o)
                0x000000000000bc50                smSavePairInfo
 .text.smSetPairingReqRsp
                0x000000000000bdd6       0x38 e:/Workspace/resistance_band/reistance_band_v0_1/resistance_band/LIB\libCH57xBLE.a(sm.o)
                0x000000000000bdd6                smSetPairingReqRsp
 .text.smStartEncryption
                0x000000000000be0e       0x16 e:/Workspace/resistance_band/reistance_band_v0_1/resistance_band/LIB\libCH57xBLE.a(sm.o)
                0x000000000000be0e                smStartEncryption
 .text.smStartRspTimer
                0x000000000000be24       0x36 e:/Workspace/resistance_band/reistance_band_v0_1/resistance_band/LIB\libCH57xBLE.a(sm.o)
                0x000000000000be24                smStartRspTimer
 .text.smSendSMMsg
                0x000000000000be5a       0x5c e:/Workspace/resistance_band/reistance_band_v0_1/resistance_band/LIB\libCH57xBLE.a(sm.o)
                0x000000000000be5a                smSendSMMsg
 .text.smGenerateConfirm
                0x000000000000beb6       0x34 e:/Workspace/resistance_band/reistance_band_v0_1/resistance_band/LIB\libCH57xBLE.a(sm.o)
                0x000000000000beb6                smGenerateConfirm
 .text.smGenerateRandMsg
                0x000000000000beea       0x34 e:/Workspace/resistance_band/reistance_band_v0_1/resistance_band/LIB\libCH57xBLE.a(sm.o)
                0x000000000000beea                smGenerateRandMsg
 .text.smPairingSendEncInfo
                0x000000000000bf1e       0x10 e:/Workspace/resistance_band/reistance_band_v0_1/resistance_band/LIB\libCH57xBLE.a(sm.o)
                0x000000000000bf1e                smPairingSendEncInfo
 .text.smPairingSendIdentityAddrInfo
                0x000000000000bf2e       0x38 e:/Workspace/resistance_band/reistance_band_v0_1/resistance_band/LIB\libCH57xBLE.a(sm.o)
                0x000000000000bf2e                smPairingSendIdentityAddrInfo
 .text.smPairingSendIdentityInfo
                0x000000000000bf66       0x10 e:/Workspace/resistance_band/reistance_band_v0_1/resistance_band/LIB\libCH57xBLE.a(sm.o)
                0x000000000000bf66                smPairingSendIdentityInfo
 .text.smPairingSendMasterID
                0x000000000000bf76       0x38 e:/Workspace/resistance_band/reistance_band_v0_1/resistance_band/LIB\libCH57xBLE.a(sm.o)
                0x000000000000bf76                smPairingSendMasterID
 .text.smPairingSendSingingInfo
                0x000000000000bfae       0x10 e:/Workspace/resistance_band/reistance_band_v0_1/resistance_band/LIB\libCH57xBLE.a(sm.o)
                0x000000000000bfae                smPairingSendSingingInfo
 .text.smInitiatorSendNextKeyInfo
                0x000000000000bfbe      0x1c2 e:/Workspace/resistance_band/reistance_band_v0_1/resistance_band/LIB\libCH57xBLE.a(sm.o)
                0x000000000000bfbe                smInitiatorSendNextKeyInfo
 .text.smResponderSendNextKeyInfo
                0x000000000000c180      0x216 e:/Workspace/resistance_band/reistance_band_v0_1/resistance_band/LIB\libCH57xBLE.a(sm.o)
                0x000000000000c180                smResponderSendNextKeyInfo
 .text.smGeneratePairingReqRsp
                0x000000000000c396       0x3e e:/Workspace/resistance_band/reistance_band_v0_1/resistance_band/LIB\libCH57xBLE.a(sm.o)
                0x000000000000c396                smGeneratePairingReqRsp
 .text.smStopRspTimer
                0x000000000000c3d4        0xa e:/Workspace/resistance_band/reistance_band_v0_1/resistance_band/LIB\libCH57xBLE.a(sm.o)
                0x000000000000c3d4                smStopRspTimer
 .text.smFreePairingParams
                0x000000000000c3de       0x68 e:/Workspace/resistance_band/reistance_band_v0_1/resistance_band/LIB\libCH57xBLE.a(sm.o)
                0x000000000000c3de                smFreePairingParams
 .text.smEndPairing
                0x000000000000c446       0x5c e:/Workspace/resistance_band/reistance_band_v0_1/resistance_band/LIB\libCH57xBLE.a(sm.o)
                0x000000000000c446                smEndPairing
 .text.setupInitiatorKeys
                0x000000000000c4a2       0x82 e:/Workspace/resistance_band/reistance_band_v0_1/resistance_band/LIB\libCH57xBLE.a(sm.o)
                0x000000000000c4a2                setupInitiatorKeys
 .text.smNextPairingState
                0x000000000000c524       0x56 e:/Workspace/resistance_band/reistance_band_v0_1/resistance_band/LIB\libCH57xBLE.a(sm.o)
                0x000000000000c524                smNextPairingState
 .text.smProcessEncryptChange
                0x000000000000c57a       0xde e:/Workspace/resistance_band/reistance_band_v0_1/resistance_band/LIB\libCH57xBLE.a(sm.o)
                0x000000000000c57a                smProcessEncryptChange
 .text.smSendFailAndEnd
                0x000000000000c658       0x38 e:/Workspace/resistance_band/reistance_band_v0_1/resistance_band/LIB\libCH57xBLE.a(sm.o)
                0x000000000000c658                smSendFailAndEnd
 .text.smProcessPairingReq
                0x000000000000c690       0x3c e:/Workspace/resistance_band/reistance_band_v0_1/resistance_band/LIB\libCH57xBLE.a(sm.o)
                0x000000000000c690                smProcessPairingReq
 .text.smLinkCheck
                0x000000000000c6cc       0x34 e:/Workspace/resistance_band/reistance_band_v0_1/resistance_band/LIB\libCH57xBLE.a(sm.o)
                0x000000000000c6cc                smLinkCheck
 .text.smTimedOut
                0x000000000000c700       0x20 e:/Workspace/resistance_band/reistance_band_v0_1/resistance_band/LIB\libCH57xBLE.a(sm.o)
                0x000000000000c700                smTimedOut
 .text.smUint8ToAuthReq
                0x000000000000c720        0x6 e:/Workspace/resistance_band/reistance_band_v0_1/resistance_band/LIB\libCH57xBLE.a(sm.o)
                0x000000000000c720                smUint8ToAuthReq
 .text.sm_ah    0x000000000000c726       0x80 e:/Workspace/resistance_band/reistance_band_v0_1/resistance_band/LIB\libCH57xBLE.a(sm.o)
                0x000000000000c726                sm_ah
 .text.sm_xor   0x000000000000c7a6       0x24 e:/Workspace/resistance_band/reistance_band_v0_1/resistance_band/LIB\libCH57xBLE.a(sm.o)
                0x000000000000c7a6                sm_xor
 .text.sm_c1new
                0x000000000000c7ca      0x11c e:/Workspace/resistance_band/reistance_band_v0_1/resistance_band/LIB\libCH57xBLE.a(sm.o)
                0x000000000000c7ca                sm_c1new
 .text.sm_s1    0x000000000000c8e6       0x86 e:/Workspace/resistance_band/reistance_band_v0_1/resistance_band/LIB\libCH57xBLE.a(sm.o)
                0x000000000000c8e6                sm_s1
 .text.smResponderProcessLTKReq
                0x000000000000c96c      0x1e6 e:/Workspace/resistance_band/reistance_band_v0_1/resistance_band/LIB\libCH57xBLE.a(sm.o)
                0x000000000000c96c                smResponderProcessLTKReq
 .text.xor_128  0x000000000000cb52       0x28 e:/Workspace/resistance_band/reistance_band_v0_1/resistance_band/LIB\libCH57xBLE.a(sm.o)
                0x000000000000cb52                xor_128
 .text.leftshift_onebit
                0x000000000000cb7a       0x2e e:/Workspace/resistance_band/reistance_band_v0_1/resistance_band/LIB\libCH57xBLE.a(sm.o)
                0x000000000000cb7a                leftshift_onebit
 .text.padding  0x000000000000cba8       0x38 e:/Workspace/resistance_band/reistance_band_v0_1/resistance_band/LIB\libCH57xBLE.a(sm.o)
                0x000000000000cba8                padding
 .text.generate_subkey
                0x000000000000cbe0       0xd0 e:/Workspace/resistance_band/reistance_band_v0_1/resistance_band/LIB\libCH57xBLE.a(sm.o)
                0x000000000000cbe0                generate_subkey
 .text.sm_CMAC  0x000000000000ccb0      0x16e e:/Workspace/resistance_band/reistance_band_v0_1/resistance_band/LIB\libCH57xBLE.a(sm.o)
                0x000000000000ccb0                sm_CMAC
 .text.smpBuildPairingReqRsp
                0x000000000000ce1e       0xc6 e:/Workspace/resistance_band/reistance_band_v0_1/resistance_band/LIB\libCH57xBLE.a(sm.o)
                0x000000000000ce1e                smpBuildPairingReqRsp
 .text.smpBuildPairingReq
                0x000000000000cee4        0xa e:/Workspace/resistance_band/reistance_band_v0_1/resistance_band/LIB\libCH57xBLE.a(sm.o)
                0x000000000000cee4                smpBuildPairingReq
 .text.smpBuildPairingRsp
                0x000000000000ceee        0xa e:/Workspace/resistance_band/reistance_band_v0_1/resistance_band/LIB\libCH57xBLE.a(sm.o)
                0x000000000000ceee                smpBuildPairingRsp
 .text.sm_c1    0x000000000000cef8       0xb4 e:/Workspace/resistance_band/reistance_band_v0_1/resistance_band/LIB\libCH57xBLE.a(sm.o)
                0x000000000000cef8                sm_c1
 .text.smpBuildSecurityReq
                0x000000000000cfac       0x1a e:/Workspace/resistance_band/reistance_band_v0_1/resistance_band/LIB\libCH57xBLE.a(sm.o)
                0x000000000000cfac                smpBuildSecurityReq
 .text.smpInitiatorProcessPairingRsp
                0x000000000000cfc6      0x116 e:/Workspace/resistance_band/reistance_band_v0_1/resistance_band/LIB\libCH57xBLE.a(sm.o)
                0x000000000000cfc6                smpInitiatorProcessPairingRsp
 .text.smpInitiatorProcessIncoming
                0x000000000000d0dc      0x23e e:/Workspace/resistance_band/reistance_band_v0_1/resistance_band/LIB\libCH57xBLE.a(sm.o)
                0x000000000000d0dc                smpInitiatorProcessIncoming
 .text.smpParseEncInfo
                0x000000000000d31a       0x2a e:/Workspace/resistance_band/reistance_band_v0_1/resistance_band/LIB\libCH57xBLE.a(sm.o)
                0x000000000000d31a                smpParseEncInfo
 .text.smpParseIdentityAddrInfo
                0x000000000000d344       0x34 e:/Workspace/resistance_band/reistance_band_v0_1/resistance_band/LIB\libCH57xBLE.a(sm.o)
                0x000000000000d344                smpParseIdentityAddrInfo
 .text.smpParseIdentityInfo
                0x000000000000d378       0x2a e:/Workspace/resistance_band/reistance_band_v0_1/resistance_band/LIB\libCH57xBLE.a(sm.o)
                0x000000000000d378                smpParseIdentityInfo
 .text.smpParseMasterID
                0x000000000000d3a2       0x3c e:/Workspace/resistance_band/reistance_band_v0_1/resistance_band/LIB\libCH57xBLE.a(sm.o)
                0x000000000000d3a2                smpParseMasterID
 .text.smpParsePairingConfirm
                0x000000000000d3de       0x2a e:/Workspace/resistance_band/reistance_band_v0_1/resistance_band/LIB\libCH57xBLE.a(sm.o)
                0x000000000000d3de                smpParsePairingConfirm
 .text.smpParsePairingFailed
                0x000000000000d408       0x22 e:/Workspace/resistance_band/reistance_band_v0_1/resistance_band/LIB\libCH57xBLE.a(sm.o)
                0x000000000000d408                smpParsePairingFailed
 .text.smpParsePairingRandom
                0x000000000000d42a       0x2a e:/Workspace/resistance_band/reistance_band_v0_1/resistance_band/LIB\libCH57xBLE.a(sm.o)
                0x000000000000d42a                smpParsePairingRandom
 .text.smpParsePairingReq
                0x000000000000d454      0x118 e:/Workspace/resistance_band/reistance_band_v0_1/resistance_band/LIB\libCH57xBLE.a(sm.o)
                0x000000000000d454                smpParsePairingReq
 .text.smpParseSigningInfo
                0x000000000000d56c       0x2a e:/Workspace/resistance_band/reistance_band_v0_1/resistance_band/LIB\libCH57xBLE.a(sm.o)
                0x000000000000d56c                smpParseSigningInfo
 .text.smProcessDataMsg
                0x000000000000d596       0xec e:/Workspace/resistance_band/reistance_band_v0_1/resistance_band/LIB\libCH57xBLE.a(sm.o)
                0x000000000000d596                smProcessDataMsg
 .text.smProcessTMOSMsg
                0x000000000000d682       0xd4 e:/Workspace/resistance_band/reistance_band_v0_1/resistance_band/LIB\libCH57xBLE.a(sm.o)
                0x000000000000d682                smProcessTMOSMsg
 .text.smpResponderProcessPairingReq
                0x000000000000d756       0xd6 e:/Workspace/resistance_band/reistance_band_v0_1/resistance_band/LIB\libCH57xBLE.a(sm.o)
                0x000000000000d756                smpResponderProcessPairingReq
 .text.smpResponderProcessIncoming
                0x000000000000d82c      0x24c e:/Workspace/resistance_band/reistance_band_v0_1/resistance_band/LIB\libCH57xBLE.a(sm.o)
                0x000000000000d82c                smpResponderProcessIncoming
 .text.SM_CalcRandomAddr
                0x000000000000da78       0x54 e:/Workspace/resistance_band/reistance_band_v0_1/resistance_band/LIB\libCH57xBLE.a(sm.o)
                0x000000000000da78                SM_CalcRandomAddr
 .text.SM_GenerateAuthenSig
                0x000000000000dacc       0xda e:/Workspace/resistance_band/reistance_band_v0_1/resistance_band/LIB\libCH57xBLE.a(sm.o)
                0x000000000000dacc                SM_GenerateAuthenSig
 .text.SM_Init  0x000000000000dba6       0x26 e:/Workspace/resistance_band/reistance_band_v0_1/resistance_band/LIB\libCH57xBLE.a(sm.o)
                0x000000000000dba6                SM_Init
 .text.SM_InitiatorInit
                0x000000000000dbcc       0x1a e:/Workspace/resistance_band/reistance_band_v0_1/resistance_band/LIB\libCH57xBLE.a(sm.o)
                0x000000000000dbcc                SM_InitiatorInit
 .text.SM_PasskeyUpdate
                0x000000000000dbe6       0xc8 e:/Workspace/resistance_band/reistance_band_v0_1/resistance_band/LIB\libCH57xBLE.a(sm.o)
                0x000000000000dbe6                SM_PasskeyUpdate
 .text.SM_ProcessEvent
                0x000000000000dcae       0x9e e:/Workspace/resistance_band/reistance_band_v0_1/resistance_band/LIB\libCH57xBLE.a(sm.o)
                0x000000000000dcae                SM_ProcessEvent
 .text.SM_ResolveRandomAddrs
                0x000000000000dd4c       0x5a e:/Workspace/resistance_band/reistance_band_v0_1/resistance_band/LIB\libCH57xBLE.a(sm.o)
                0x000000000000dd4c                SM_ResolveRandomAddrs
 .text.SM_ResponderInit
                0x000000000000dda6       0x1a e:/Workspace/resistance_band/reistance_band_v0_1/resistance_band/LIB\libCH57xBLE.a(sm.o)
                0x000000000000dda6                SM_ResponderInit
 .text.SM_StartPairing
                0x000000000000ddc0       0xcc e:/Workspace/resistance_band/reistance_band_v0_1/resistance_band/LIB\libCH57xBLE.a(sm.o)
                0x000000000000ddc0                SM_StartPairing
 .text.SM_VerifyAuthenSig
                0x000000000000de8c      0x138 e:/Workspace/resistance_band/reistance_band_v0_1/resistance_band/LIB\libCH57xBLE.a(sm.o)
                0x000000000000de8c                SM_VerifyAuthenSig
 .text.HOST_LE_ConnectionCompleteEvent
                0x000000000000dfc4       0xc2 e:/Workspace/resistance_band/reistance_band_v0_1/resistance_band/LIB\libCH57xBLE.a(host_input.o)
                0x000000000000dfc4                HOST_LE_ConnectionCompleteEvent
 .text.HOST_LE_ConnectionUpdateCompleteEvent
                0x000000000000e086       0x5c e:/Workspace/resistance_band/reistance_band_v0_1/resistance_band/LIB\libCH57xBLE.a(host_input.o)
                0x000000000000e086                HOST_LE_ConnectionUpdateCompleteEvent
 .text.HOST_LE_ReadRemoteUsedFeaturesCompleteEvent
                0x000000000000e0e2       0x62 e:/Workspace/resistance_band/reistance_band_v0_1/resistance_band/LIB\libCH57xBLE.a(host_input.o)
                0x000000000000e0e2                HOST_LE_ReadRemoteUsedFeaturesCompleteEvent
 .text.HOST_LE_LongTermKeyRequestEvent
                0x000000000000e144       0x60 e:/Workspace/resistance_band/reistance_band_v0_1/resistance_band/LIB\libCH57xBLE.a(host_input.o)
                0x000000000000e144                HOST_LE_LongTermKeyRequestEvent
 .text.HOST_LE_RemoteConnectionParameterRequestEvent
                0x000000000000e1a4       0x5c e:/Workspace/resistance_band/reistance_band_v0_1/resistance_band/LIB\libCH57xBLE.a(host_input.o)
                0x000000000000e1a4                HOST_LE_RemoteConnectionParameterRequestEvent
 .text.HOST_RemoteConnectionParameterRequestEvent
                0x000000000000e200       0x42 e:/Workspace/resistance_band/reistance_band_v0_1/resistance_band/LIB\libCH57xBLE.a(host_input.o)
                0x000000000000e200                HOST_RemoteConnectionParameterRequestEvent
 .text.HOST_LE_DataLengthChangeEvent
                0x000000000000e242       0x5c e:/Workspace/resistance_band/reistance_band_v0_1/resistance_band/LIB\libCH57xBLE.a(host_input.o)
                0x000000000000e242                HOST_LE_DataLengthChangeEvent
 .text.HOST_LE_EnhancedConnectionCompleteEvent
                0x000000000000e29e      0x118 e:/Workspace/resistance_band/reistance_band_v0_1/resistance_band/LIB\libCH57xBLE.a(host_input.o)
                0x000000000000e29e                HOST_LE_EnhancedConnectionCompleteEvent
 .text.HOST_DisconnectionCompleteEvent
                0x000000000000e3b6       0x44 e:/Workspace/resistance_band/reistance_band_v0_1/resistance_band/LIB\libCH57xBLE.a(host_input.o)
                0x000000000000e3b6                HOST_DisconnectionCompleteEvent
 .text.HOST_EncryptionChangeEvent
                0x000000000000e3fa       0x4c e:/Workspace/resistance_band/reistance_band_v0_1/resistance_band/LIB\libCH57xBLE.a(host_input.o)
                0x000000000000e3fa                HOST_EncryptionChangeEvent
 .text.HOST_ReadRemoteVersionInfoEvent
                0x000000000000e446       0x56 e:/Workspace/resistance_band/reistance_band_v0_1/resistance_band/LIB\libCH57xBLE.a(host_input.o)
                0x000000000000e446                HOST_ReadRemoteVersionInfoEvent
 .text.HOST_CommandCompleteEvent
                0x000000000000e49c       0x5e e:/Workspace/resistance_band/reistance_band_v0_1/resistance_band/LIB\libCH57xBLE.a(host_input.o)
                0x000000000000e49c                HOST_CommandCompleteEvent
 .text.HOST_CommandStatusEvent
                0x000000000000e4fa       0x44 e:/Workspace/resistance_band/reistance_band_v0_1/resistance_band/LIB\libCH57xBLE.a(host_input.o)
                0x000000000000e4fa                HOST_CommandStatusEvent
 .text.HOST_DataBufferOverflowEvent
                0x000000000000e53e       0x3a e:/Workspace/resistance_band/reistance_band_v0_1/resistance_band/LIB\libCH57xBLE.a(host_input.o)
                0x000000000000e53e                HOST_DataBufferOverflowEvent
 .text.HOST_EncryptionKeyRefreshCompleteEvent
                0x000000000000e578       0x46 e:/Workspace/resistance_band/reistance_band_v0_1/resistance_band/LIB\libCH57xBLE.a(host_input.o)
                0x000000000000e578                HOST_EncryptionKeyRefreshCompleteEvent
 .text.HOST_NumberOfCompletedPacketsEvent
                0x000000000000e5be       0x40 e:/Workspace/resistance_band/reistance_band_v0_1/resistance_band/LIB\libCH57xBLE.a(host_input.o)
                0x000000000000e5be                HOST_NumberOfCompletedPacketsEvent
 .text.HOST_RecvDataPackets
                0x000000000000e5fe      0x250 e:/Workspace/resistance_band/reistance_band_v0_1/resistance_band/LIB\libCH57xBLE.a(host_input.o)
                0x000000000000e5fe                HOST_RecvDataPackets
 .text.HCI_DisconnectCmd
                0x000000000000e84e        0x4 e:/Workspace/resistance_band/reistance_band_v0_1/resistance_band/LIB\libCH57xBLE.a(host_output.o)
                0x000000000000e84e                HCI_DisconnectCmd
 .text.HCI_MB_DisconnectCmd
                0x000000000000e852        0x4 e:/Workspace/resistance_band/reistance_band_v0_1/resistance_band/LIB\libCH57xBLE.a(host_output.o)
                0x000000000000e852                HCI_MB_DisconnectCmd
 .text.HCI_HostNumCompletedPktCmd
                0x000000000000e856       0x10 e:/Workspace/resistance_band/reistance_band_v0_1/resistance_band/LIB\libCH57xBLE.a(host_output.o)
                0x000000000000e856                HCI_HostNumCompletedPktCmd
 .text.HCI_ReadBDADDRCmd
                0x000000000000e866        0x4 e:/Workspace/resistance_band/reistance_band_v0_1/resistance_band/LIB\libCH57xBLE.a(host_output.o)
                0x000000000000e866                HCI_ReadBDADDRCmd
 .text.HCI_LE_ReadBufSizeCmd
                0x000000000000e86a        0x4 e:/Workspace/resistance_band/reistance_band_v0_1/resistance_band/LIB\libCH57xBLE.a(host_output.o)
                0x000000000000e86a                HCI_LE_ReadBufSizeCmd
 .text.HCI_LE_SetRandomAddressCmd
                0x000000000000e86e        0x4 e:/Workspace/resistance_band/reistance_band_v0_1/resistance_band/LIB\libCH57xBLE.a(host_output.o)
                0x000000000000e86e                HCI_LE_SetRandomAddressCmd
 .text.HCI_LE_SetAdvParamCmd
                0x000000000000e872        0x4 e:/Workspace/resistance_band/reistance_band_v0_1/resistance_band/LIB\libCH57xBLE.a(host_output.o)
                0x000000000000e872                HCI_LE_SetAdvParamCmd
 .text.HCI_LE_SetAdvDataCmd
                0x000000000000e876        0x4 e:/Workspace/resistance_band/reistance_band_v0_1/resistance_band/LIB\libCH57xBLE.a(host_output.o)
                0x000000000000e876                HCI_LE_SetAdvDataCmd
 .text.HCI_LE_SetScanRspDataCmd
                0x000000000000e87a        0x4 e:/Workspace/resistance_band/reistance_band_v0_1/resistance_band/LIB\libCH57xBLE.a(host_output.o)
                0x000000000000e87a                HCI_LE_SetScanRspDataCmd
 .text.HCI_LE_SetAdvEnableCmd
                0x000000000000e87e        0x4 e:/Workspace/resistance_band/reistance_band_v0_1/resistance_band/LIB\libCH57xBLE.a(host_output.o)
                0x000000000000e87e                HCI_LE_SetAdvEnableCmd
 .text.HCI_LE_SetScanEnableCmd
                0x000000000000e882        0x4 e:/Workspace/resistance_band/reistance_band_v0_1/resistance_band/LIB\libCH57xBLE.a(host_output.o)
                0x000000000000e882                HCI_LE_SetScanEnableCmd
 .text.HCI_LE_CreateConnCancelCmd
                0x000000000000e886        0x4 e:/Workspace/resistance_band/reistance_band_v0_1/resistance_band/LIB\libCH57xBLE.a(host_output.o)
                0x000000000000e886                HCI_LE_CreateConnCancelCmd
 .text.HCI_LE_ClearWhiteListCmd
                0x000000000000e88a        0x4 e:/Workspace/resistance_band/reistance_band_v0_1/resistance_band/LIB\libCH57xBLE.a(host_output.o)
                0x000000000000e88a                HCI_LE_ClearWhiteListCmd
 .text.HCI_LE_AddWhiteListCmd
                0x000000000000e88e        0x4 e:/Workspace/resistance_band/reistance_band_v0_1/resistance_band/LIB\libCH57xBLE.a(host_output.o)
                0x000000000000e88e                HCI_LE_AddWhiteListCmd
 .text.HCI_LE_ConnUpdateCmd
                0x000000000000e892        0x4 e:/Workspace/resistance_band/reistance_band_v0_1/resistance_band/LIB\libCH57xBLE.a(host_output.o)
                0x000000000000e892                HCI_LE_ConnUpdateCmd
 .text.HCI_LE_RandCmd
                0x000000000000e896        0x4 e:/Workspace/resistance_band/reistance_band_v0_1/resistance_band/LIB\libCH57xBLE.a(host_output.o)
                0x000000000000e896                HCI_LE_RandCmd
 .text.HCI_LE_StartEncyptCmd
                0x000000000000e89a       0x10 e:/Workspace/resistance_band/reistance_band_v0_1/resistance_band/LIB\libCH57xBLE.a(host_output.o)
                0x000000000000e89a                HCI_LE_StartEncyptCmd
 .text.HCI_LE_LtkReqReplyCmd
                0x000000000000e8aa        0x4 e:/Workspace/resistance_band/reistance_band_v0_1/resistance_band/LIB\libCH57xBLE.a(host_output.o)
                0x000000000000e8aa                HCI_LE_LtkReqReplyCmd
 .text.HCI_LE_LtkReqNegReplyCmd
                0x000000000000e8ae        0x4 e:/Workspace/resistance_band/reistance_band_v0_1/resistance_band/LIB\libCH57xBLE.a(host_output.o)
                0x000000000000e8ae                HCI_LE_LtkReqNegReplyCmd
 .text.HCI_LE_RemoteConnParamReqReplyCmd
                0x000000000000e8b2        0x4 e:/Workspace/resistance_band/reistance_band_v0_1/resistance_band/LIB\libCH57xBLE.a(host_output.o)
                0x000000000000e8b2                HCI_LE_RemoteConnParamReqReplyCmd
 .text.HCI_LE_RemoteConnParamReqNegReplyCmd
                0x000000000000e8b6        0x4 e:/Workspace/resistance_band/reistance_band_v0_1/resistance_band/LIB\libCH57xBLE.a(host_output.o)
                0x000000000000e8b6                HCI_LE_RemoteConnParamReqNegReplyCmd
 .text.HCI_LE_AddDeviceToResolvingList
                0x000000000000e8ba        0x4 e:/Workspace/resistance_band/reistance_band_v0_1/resistance_band/LIB\libCH57xBLE.a(host_output.o)
                0x000000000000e8ba                HCI_LE_AddDeviceToResolvingList
 .text.HCI_LE_ClearResolvingList
                0x000000000000e8be        0x4 e:/Workspace/resistance_band/reistance_band_v0_1/resistance_band/LIB\libCH57xBLE.a(host_output.o)
                0x000000000000e8be                HCI_LE_ClearResolvingList
 .text.HCI_LE_SetAddressResolvableEnableCmd
                0x000000000000e8c2        0x4 e:/Workspace/resistance_band/reistance_band_v0_1/resistance_band/LIB\libCH57xBLE.a(host_output.o)
                0x000000000000e8c2                HCI_LE_SetAddressResolvableEnableCmd
 .text.HCI_LE_SetResolvableAddressTimeoutCmd
                0x000000000000e8c6        0x4 e:/Workspace/resistance_band/reistance_band_v0_1/resistance_band/LIB\libCH57xBLE.a(host_output.o)
                0x000000000000e8c6                HCI_LE_SetResolvableAddressTimeoutCmd
 .text.HCI_SendDataPkt
                0x000000000000e8ca        0x4 e:/Workspace/resistance_band/reistance_band_v0_1/resistance_band/LIB\libCH57xBLE.a(host_output.o)
                0x000000000000e8ca                HCI_SendDataPkt
 .text.HCI_ValidConnTimeParams
                0x000000000000e8ce       0x4c e:/Workspace/resistance_band/reistance_band_v0_1/resistance_band/LIB\libCH57xBLE.a(host_output.o)
                0x000000000000e8ce                HCI_ValidConnTimeParams
 .text.ll_connect_auth_timeout
                0x000000000000e91a       0x16 e:/Workspace/resistance_band/reistance_band_v0_1/resistance_band/LIB\libCH57xBLE.a(ll_connect.o)
                0x000000000000e91a                ll_connect_auth_timeout
 .text.ll_connect_set_auth_timeout
                0x000000000000e930       0x56 e:/Workspace/resistance_band/reistance_band_v0_1/resistance_band/LIB\libCH57xBLE.a(ll_connect.o)
                0x000000000000e930                ll_connect_set_auth_timeout
 .text.ll_connect_set_procedure_timeout
                0x000000000000e986       0x3c e:/Workspace/resistance_band/reistance_band_v0_1/resistance_band/LIB\libCH57xBLE.a(ll_connect.o)
                0x000000000000e986                ll_connect_set_procedure_timeout
 .text.ll_connect_set_connect_timeout
                0x000000000000e9c2       0x3c e:/Workspace/resistance_band/reistance_band_v0_1/resistance_band/LIB\libCH57xBLE.a(ll_connect.o)
                0x000000000000e9c2                ll_connect_set_connect_timeout
 .text.ll_connect_init_dataLen
                0x000000000000e9fe       0x88 e:/Workspace/resistance_band/reistance_band_v0_1/resistance_band/LIB\libCH57xBLE.a(ll_connect.o)
                0x000000000000e9fe                ll_connect_init_dataLen
 .text.ll_connect_init_pingOffset
                0x000000000000ea86       0x2e e:/Workspace/resistance_band/reistance_band_v0_1/resistance_band/LIB\libCH57xBLE.a(ll_connect.o)
                0x000000000000ea86                ll_connect_init_pingOffset
 .text.ll_connect_parse_datapdu_head
                0x000000000000eab4       0x34 e:/Workspace/resistance_band/reistance_band_v0_1/resistance_band/LIB\libCH57xBLE.a(ll_connect.o)
                0x000000000000eab4                ll_connect_parse_datapdu_head
 .text.ll_connect_send_data
                0x000000000000eae8      0x10e e:/Workspace/resistance_band/reistance_band_v0_1/resistance_band/LIB\libCH57xBLE.a(ll_connect.o)
                0x000000000000eae8                ll_connect_send_data
 .text.ll_connect_flowcontrol_init
                0x000000000000ebf6        0xc e:/Workspace/resistance_band/reistance_band_v0_1/resistance_band/LIB\libCH57xBLE.a(ll_connect.o)
                0x000000000000ebf6                ll_connect_flowcontrol_init
 .text.LL_ConnectFlowcontrolTx
                0x000000000000ec02       0x28 e:/Workspace/resistance_band/reistance_band_v0_1/resistance_band/LIB\libCH57xBLE.a(ll_connect.o)
                0x000000000000ec02                LL_ConnectFlowcontrolTx
 .text.LL_ConnectFlowcontrolRx
                0x000000000000ec2a       0x28 e:/Workspace/resistance_band/reistance_band_v0_1/resistance_band/LIB\libCH57xBLE.a(ll_connect.o)
                0x000000000000ec2a                LL_ConnectFlowcontrolRx
 .text.LL_ConnectTxPktnumIncrease
                0x000000000000ec52       0x50 e:/Workspace/resistance_band/reistance_band_v0_1/resistance_band/LIB\libCH57xBLE.a(ll_connect.o)
                0x000000000000ec52                LL_ConnectTxPktnumIncrease
 .text.LL_ConnectRxPktnumIncrease
                0x000000000000eca2       0x3e e:/Workspace/resistance_band/reistance_band_v0_1/resistance_band/LIB\libCH57xBLE.a(ll_connect.o)
                0x000000000000eca2                LL_ConnectRxPktnumIncrease
 .text.ll_connect_get_slave_number
                0x000000000000ece0       0x20 e:/Workspace/resistance_band/reistance_band_v0_1/resistance_band/LIB\libCH57xBLE.a(ll_connect.o)
                0x000000000000ece0                ll_connect_get_slave_number
 .text.ll_connect_update_get_offset
                0x000000000000ed00       0xa8 e:/Workspace/resistance_band/reistance_band_v0_1/resistance_band/LIB\libCH57xBLE.a(ll_connect.o)
                0x000000000000ed00                ll_connect_update_get_offset
 .text.ll_connect_get_update_point
                0x000000000000eda8       0x86 e:/Workspace/resistance_band/reistance_band_v0_1/resistance_band/LIB\libCH57xBLE.a(ll_connect.o)
                0x000000000000eda8                ll_connect_get_update_point
 .text.ll_master_check_connect_point
                0x000000000000ee2e       0xf0 e:/Workspace/resistance_band/reistance_band_v0_1/resistance_band/LIB\libCH57xBLE.a(ll_connect.o)
                0x000000000000ee2e                ll_master_check_connect_point
 .text.ll_slave_check_connect_point
                0x000000000000ef1e      0x1ca e:/Workspace/resistance_band/reistance_band_v0_1/resistance_band/LIB\libCH57xBLE.a(ll_connect.o)
                0x000000000000ef1e                ll_slave_check_connect_point
 .text.ll_connect_change_connect_point
                0x000000000000f0e8      0x226 e:/Workspace/resistance_band/reistance_band_v0_1/resistance_band/LIB\libCH57xBLE.a(ll_connect.o)
                0x000000000000f0e8                ll_connect_change_connect_point
 .text.ll_connect_recv_data
                0x000000000000f30e       0xa0 e:/Workspace/resistance_band/reistance_band_v0_1/resistance_band/LIB\libCH57xBLE.a(ll_connect.o)
                0x000000000000f30e                ll_connect_recv_data
 .text.LL_GetNextConnectEventTime
                0x000000000000f3ae      0x12c e:/Workspace/resistance_band/reistance_band_v0_1/resistance_band/LIB\libCH57xBLE.a(ll_connect.o)
                0x000000000000f3ae                LL_GetNextConnectEventTime
 .text.LL_GetNumberOfUnAckPacket
                0x000000000000f4da       0x22 e:/Workspace/resistance_band/reistance_band_v0_1/resistance_band/LIB\libCH57xBLE.a(ll_connect.o)
                0x000000000000f4da                LL_GetNumberOfUnAckPacket
 .text.LL_ConnectFreeTmosPrioritID
                0x000000000000f4fc       0xde e:/Workspace/resistance_band/reistance_band_v0_1/resistance_band/LIB\libCH57xBLE.a(ll_connect.o)
                0x000000000000f4fc                LL_ConnectFreeTmosPrioritID
 .text.LL_ConnectToStandby
                0x000000000000f5da       0x86 e:/Workspace/resistance_band/reistance_band_v0_1/resistance_band/LIB\libCH57xBLE.a(ll_connect.o)
                0x000000000000f5da                LL_ConnectToStandby
 .text.ll_connect_action_in_connintervaltimeout
                0x000000000000f660      0x348 e:/Workspace/resistance_band/reistance_band_v0_1/resistance_band/LIB\libCH57xBLE.a(ll_connect.o)
                0x000000000000f660                ll_connect_action_in_connintervaltimeout
 .text.ll_connect_procedure_timeout
                0x000000000000f9a8       0x2a e:/Workspace/resistance_band/reistance_band_v0_1/resistance_band/LIB\libCH57xBLE.a(ll_connect.o)
                0x000000000000f9a8                ll_connect_procedure_timeout
 .text.ll_connect_supervision_timeout
                0x000000000000f9d2       0x34 e:/Workspace/resistance_band/reistance_band_v0_1/resistance_band/LIB\libCH57xBLE.a(ll_connect.o)
                0x000000000000f9d2                ll_connect_supervision_timeout
 .text.ll_connect_process_event
                0x000000000000fa06      0x484 e:/Workspace/resistance_band/reistance_band_v0_1/resistance_band/LIB\libCH57xBLE.a(ll_connect.o)
                0x000000000000fa06                ll_connect_process_event
 .text.LL_ConnectShut
                0x000000000000fe8a       0xe2 e:/Workspace/resistance_band/reistance_band_v0_1/resistance_band/LIB\libCH57xBLE.a(ll_connect.o)
                0x000000000000fe8a                LL_ConnectShut
 .text.LL_CoreGetCore
                0x000000000000ff6c       0x1c e:/Workspace/resistance_band/reistance_band_v0_1/resistance_band/LIB\libCH57xBLE.a(ll_core.o)
                0x000000000000ff6c                LL_CoreGetCore
 .text.LL_CoreGetDataList
                0x000000000000ff88       0x34 e:/Workspace/resistance_band/reistance_band_v0_1/resistance_band/LIB\libCH57xBLE.a(ll_core.o)
                0x000000000000ff88                LL_CoreGetDataList
 .text.LL_CoreDataListInit
                0x000000000000ffbc       0xa6 e:/Workspace/resistance_band/reistance_band_v0_1/resistance_band/LIB\libCH57xBLE.a(ll_core.o)
                0x000000000000ffbc                LL_CoreDataListInit
 .text.LL_CoreOpen
                0x0000000000010062       0xca e:/Workspace/resistance_band/reistance_band_v0_1/resistance_band/LIB\libCH57xBLE.a(ll_core.o)
                0x0000000000010062                LL_CoreOpen
 .text.LL_CoreDataListFree
                0x000000000001012c       0x30 e:/Workspace/resistance_band/reistance_band_v0_1/resistance_band/LIB\libCH57xBLE.a(ll_core.o)
                0x000000000001012c                LL_CoreDataListFree
 .text.LL_CoreClose
                0x000000000001015c       0x8a e:/Workspace/resistance_band/reistance_band_v0_1/resistance_band/LIB\libCH57xBLE.a(ll_core.o)
                0x000000000001015c                LL_CoreClose
 .text.LL_CoreInit
                0x00000000000101e6       0x10 e:/Workspace/resistance_band/reistance_band_v0_1/resistance_band/LIB\libCH57xBLE.a(ll_core.o)
                0x00000000000101e6                LL_CoreInit
 .text.LL_HopGetChannel
                0x00000000000101f6       0xda e:/Workspace/resistance_band/reistance_band_v0_1/resistance_band/LIB\libCH57xBLE.a(ll_hop.o)
                0x00000000000101f6                LL_HopGetChannel
 .text.LL_HopInit
                0x00000000000102d0        0x6 e:/Workspace/resistance_band/reistance_band_v0_1/resistance_band/LIB\libCH57xBLE.a(ll_hop.o)
                0x00000000000102d0                LL_HopInit
 .text.ll_master_process_after_rx
                0x00000000000102d6      0x33a e:/Workspace/resistance_band/reistance_band_v0_1/resistance_band/LIB\libCH57xBLE.a(ll_master.o)
 .text.ll_master_action_tx_ready
                0x0000000000010610      0x562 e:/Workspace/resistance_band/reistance_band_v0_1/resistance_band/LIB\libCH57xBLE.a(ll_master.o)
                0x0000000000010610                ll_master_action_tx_ready
 .text.LL_SetDataSendPriority
                0x0000000000010b72       0x26 e:/Workspace/resistance_band/reistance_band_v0_1/resistance_band/LIB\libCH57xBLE.a(ll_master.o)
                0x0000000000010b72                LL_SetDataSendPriority
 .text.ll_master_process
                0x0000000000010b98      0xa30 e:/Workspace/resistance_band/reistance_band_v0_1/resistance_band/LIB\libCH57xBLE.a(ll_master.o)
                0x0000000000010b98                ll_master_process
 .text.LL_ConnectionUpdateReq
                0x00000000000115c8       0xbc e:/Workspace/resistance_band/reistance_band_v0_1/resistance_band/LIB\libCH57xBLE.a(ll_pdu.o)
                0x00000000000115c8                LL_ConnectionUpdateReq
 .text.LL_ChannelMapReq
                0x0000000000011684       0x68 e:/Workspace/resistance_band/reistance_band_v0_1/resistance_band/LIB\libCH57xBLE.a(ll_pdu.o)
                0x0000000000011684                LL_ChannelMapReq
 .text.LL_TerminateInd
                0x00000000000116ec       0x34 e:/Workspace/resistance_band/reistance_band_v0_1/resistance_band/LIB\libCH57xBLE.a(ll_pdu.o)
                0x00000000000116ec                LL_TerminateInd
 .text.LL_EncReq
                0x0000000000011720       0x8c e:/Workspace/resistance_band/reistance_band_v0_1/resistance_band/LIB\libCH57xBLE.a(ll_pdu.o)
                0x0000000000011720                LL_EncReq
 .text.LL_EncRsp
                0x00000000000117ac       0x58 e:/Workspace/resistance_band/reistance_band_v0_1/resistance_band/LIB\libCH57xBLE.a(ll_pdu.o)
                0x00000000000117ac                LL_EncRsp
 .text.LL_StartEncReq
                0x0000000000011804       0x22 e:/Workspace/resistance_band/reistance_band_v0_1/resistance_band/LIB\libCH57xBLE.a(ll_pdu.o)
                0x0000000000011804                LL_StartEncReq
 .text.LL_StartEncRsp
                0x0000000000011826       0x22 e:/Workspace/resistance_band/reistance_band_v0_1/resistance_band/LIB\libCH57xBLE.a(ll_pdu.o)
                0x0000000000011826                LL_StartEncRsp
 .text.LL_UnknowRsp
                0x0000000000011848       0x26 e:/Workspace/resistance_band/reistance_band_v0_1/resistance_band/LIB\libCH57xBLE.a(ll_pdu.o)
                0x0000000000011848                LL_UnknowRsp
 .text.LL_FeatureReq
                0x000000000001186e       0x50 e:/Workspace/resistance_band/reistance_band_v0_1/resistance_band/LIB\libCH57xBLE.a(ll_pdu.o)
                0x000000000001186e                LL_FeatureReq
 .text.LL_FeatureRsp
                0x00000000000118be       0x42 e:/Workspace/resistance_band/reistance_band_v0_1/resistance_band/LIB\libCH57xBLE.a(ll_pdu.o)
                0x00000000000118be                LL_FeatureRsp
 .text.LL_PauseEncReq
                0x0000000000011900       0x2e e:/Workspace/resistance_band/reistance_band_v0_1/resistance_band/LIB\libCH57xBLE.a(ll_pdu.o)
                0x0000000000011900                LL_PauseEncReq
 .text.LL_PauseEncRsp
                0x000000000001192e       0x22 e:/Workspace/resistance_band/reistance_band_v0_1/resistance_band/LIB\libCH57xBLE.a(ll_pdu.o)
                0x000000000001192e                LL_PauseEncRsp
 .text.LL_VersionInd
                0x0000000000011950       0x8c e:/Workspace/resistance_band/reistance_band_v0_1/resistance_band/LIB\libCH57xBLE.a(ll_pdu.o)
                0x0000000000011950                LL_VersionInd
 .text.LL_RejectInd
                0x00000000000119dc       0x26 e:/Workspace/resistance_band/reistance_band_v0_1/resistance_band/LIB\libCH57xBLE.a(ll_pdu.o)
                0x00000000000119dc                LL_RejectInd
 .text.LL_SlaveFeatureReq
                0x0000000000011a02       0x50 e:/Workspace/resistance_band/reistance_band_v0_1/resistance_band/LIB\libCH57xBLE.a(ll_pdu.o)
                0x0000000000011a02                LL_SlaveFeatureReq
 .text.LL_ConnectionParamReq
                0x0000000000011a52       0xac e:/Workspace/resistance_band/reistance_band_v0_1/resistance_band/LIB\libCH57xBLE.a(ll_pdu.o)
                0x0000000000011a52                LL_ConnectionParamReq
 .text.LL_ConnectionParamRsp
                0x0000000000011afe       0xa0 e:/Workspace/resistance_band/reistance_band_v0_1/resistance_band/LIB\libCH57xBLE.a(ll_pdu.o)
                0x0000000000011afe                LL_ConnectionParamRsp
 .text.LL_RejectIndExt
                0x0000000000011b9e       0x26 e:/Workspace/resistance_band/reistance_band_v0_1/resistance_band/LIB\libCH57xBLE.a(ll_pdu.o)
                0x0000000000011b9e                LL_RejectIndExt
 .text.LL_PingReq
                0x0000000000011bc4       0x2e e:/Workspace/resistance_band/reistance_band_v0_1/resistance_band/LIB\libCH57xBLE.a(ll_pdu.o)
                0x0000000000011bc4                LL_PingReq
 .text.LL_PingRsp
                0x0000000000011bf2       0x1a e:/Workspace/resistance_band/reistance_band_v0_1/resistance_band/LIB\libCH57xBLE.a(ll_pdu.o)
                0x0000000000011bf2                LL_PingRsp
 .text.LL_LengthReq
                0x0000000000011c0c       0x82 e:/Workspace/resistance_band/reistance_band_v0_1/resistance_band/LIB\libCH57xBLE.a(ll_pdu.o)
                0x0000000000011c0c                LL_LengthReq
 .text.LL_LengthRsp
                0x0000000000011c8e       0x6e e:/Workspace/resistance_band/reistance_band_v0_1/resistance_band/LIB\libCH57xBLE.a(ll_pdu.o)
                0x0000000000011c8e                LL_LengthRsp
 .text.LL_SendAck
                0x0000000000011cfc       0x1c e:/Workspace/resistance_band/reistance_band_v0_1/resistance_band/LIB\libCH57xBLE.a(ll_pdu.o)
                0x0000000000011cfc                LL_SendAck
 .text.LL_RxConnParamReq
                0x0000000000011d18       0xf8 e:/Workspace/resistance_band/reistance_band_v0_1/resistance_band/LIB\libCH57xBLE.a(ll_pdu.o)
                0x0000000000011d18                LL_RxConnParamReq
 .text.LL_RxConnParamRsp
                0x0000000000011e10       0xd2 e:/Workspace/resistance_band/reistance_band_v0_1/resistance_band/LIB\libCH57xBLE.a(ll_pdu.o)
                0x0000000000011e10                LL_RxConnParamRsp
 .text.LL_RxLenUpdate
                0x0000000000011ee2       0xee e:/Workspace/resistance_band/reistance_band_v0_1/resistance_band/LIB\libCH57xBLE.a(ll_pdu.o)
                0x0000000000011ee2                LL_RxLenUpdate
 .text.LL_RxVersionExchange
                0x0000000000011fd0       0x2e e:/Workspace/resistance_band/reistance_band_v0_1/resistance_band/LIB\libCH57xBLE.a(ll_pdu.o)
                0x0000000000011fd0                LL_RxVersionExchange
 .text.LL_ReportGenerateEvent
                0x0000000000011ffe       0x42 e:/Workspace/resistance_band/reistance_band_v0_1/resistance_band/LIB\libCH57xBLE.a(ll_report.o)
                0x0000000000011ffe                LL_ReportGenerateEvent
 .text.LL_ProcessTMOSReportMsg
                0x0000000000012040      0x59e e:/Workspace/resistance_band/reistance_band_v0_1/resistance_band/LIB\libCH57xBLE.a(ll_report.o)
                0x0000000000012040                LL_ProcessTMOSReportMsg
 .text.LL_ScanToStandby
                0x00000000000125de       0x9c e:/Workspace/resistance_band/reistance_band_v0_1/resistance_band/LIB\libCH57xBLE.a(ll_scan.o)
                0x00000000000125de                LL_ScanToStandby
 .text.ll_slave_process_after_tx
                0x000000000001267a      0x39c e:/Workspace/resistance_band/reistance_band_v0_1/resistance_band/LIB\libCH57xBLE.a(ll_slave.o)
 .text.llSlaveCreateCore
                0x0000000000012a16       0xf6 e:/Workspace/resistance_band/reistance_band_v0_1/resistance_band/LIB\libCH57xBLE.a(ll_slave.o)
                0x0000000000012a16                llSlaveCreateCore
 .text.llSlaveSetFirstTimer
                0x0000000000012b0c      0x1d2 e:/Workspace/resistance_band/reistance_band_v0_1/resistance_band/LIB\libCH57xBLE.a(ll_slave.o)
 .text.ll_hw_timer_slave_recv_timeout
                0x0000000000012cde       0x22 e:/Workspace/resistance_band/reistance_band_v0_1/resistance_band/LIB\libCH57xBLE.a(ll_slave.o)
                0x0000000000012cde                ll_hw_timer_slave_recv_timeout
 .text.ll_slave_process
                0x0000000000012d00     0x10ec e:/Workspace/resistance_band/reistance_band_v0_1/resistance_band/LIB\libCH57xBLE.a(ll_slave.o)
                0x0000000000012d00                ll_slave_process
 .text.LL_SlaveEnalbe
                0x0000000000013dec       0x2a e:/Workspace/resistance_band/reistance_band_v0_1/resistance_band/LIB\libCH57xBLE.a(ll_slave.o)
                0x0000000000013dec                LL_SlaveEnalbe
 .text.LL_WhitelistLookup
                0x0000000000013e16       0x4e e:/Workspace/resistance_band/reistance_band_v0_1/resistance_band/LIB\libCH57xBLE.a(ll_whitelist.o)
                0x0000000000013e16                LL_WhitelistLookup
 .text.LL_WhitelistAdd
                0x0000000000013e64       0xb4 e:/Workspace/resistance_band/reistance_band_v0_1/resistance_band/LIB\libCH57xBLE.a(ll_whitelist.o)
                0x0000000000013e64                LL_WhitelistAdd
 .text.LL_WhitelistClearAll
                0x0000000000013f18       0x4a e:/Workspace/resistance_band/reistance_band_v0_1/resistance_band/LIB\libCH57xBLE.a(ll_whitelist.o)
                0x0000000000013f18                LL_WhitelistClearAll
 .text.LL_WhitelistInit
                0x0000000000013f62       0x12 e:/Workspace/resistance_band/reistance_band_v0_1/resistance_band/LIB\libCH57xBLE.a(ll_whitelist.o)
                0x0000000000013f62                LL_WhitelistInit
 .text.AES_DevAESEnc
                0x0000000000013f74      0x1a2 e:/Workspace/resistance_band/reistance_band_v0_1/resistance_band/LIB\libCH57xBLE.a(aes.o)
                0x0000000000013f74                AES_DevAESEnc
 .text.LL_Encrypt
                0x0000000000014116       0x10 e:/Workspace/resistance_band/reistance_band_v0_1/resistance_band/LIB\libCH57xBLE.a(aes.o)
                0x0000000000014116                LL_Encrypt
 .text.AES_DevPktEnc
                0x0000000000014126       0x62 e:/Workspace/resistance_band/reistance_band_v0_1/resistance_band/LIB\libCH57xBLE.a(aes.o)
                0x0000000000014126                AES_DevPktEnc
 .text.AES_DevPktDec
                0x0000000000014188       0x6e e:/Workspace/resistance_band/reistance_band_v0_1/resistance_band/LIB\libCH57xBLE.a(aes.o)
                0x0000000000014188                AES_DevPktDec
 .text.BB_DevInit
                0x00000000000141f6       0xba e:/Workspace/resistance_band/reistance_band_v0_1/resistance_band/LIB\libCH57xBLE.a(bb.o)
                0x00000000000141f6                BB_DevInit
 .text.DMA_DevInit
                0x00000000000142b0       0x48 e:/Workspace/resistance_band/reistance_band_v0_1/resistance_band/LIB\libCH57xBLE.a(dma.o)
                0x00000000000142b0                DMA_DevInit
 .text.ll_tx_wait_tx_dma
                0x00000000000142f8       0x2c e:/Workspace/resistance_band/reistance_band_v0_1/resistance_band/LIB\libCH57xBLE.a(ip.o)
                0x00000000000142f8                ll_tx_wait_tx_dma
 .text.ll_tx_wait_pkt_recv
                0x0000000000014324       0x24 e:/Workspace/resistance_band/reistance_band_v0_1/resistance_band/LIB\libCH57xBLE.a(ip.o)
                0x0000000000014324                ll_tx_wait_pkt_recv
 .text.ll_tx_set_wait_finish
                0x0000000000014348       0x2e e:/Workspace/resistance_band/reistance_band_v0_1/resistance_band/LIB\libCH57xBLE.a(ip.o)
                0x0000000000014348                ll_tx_set_wait_finish
 .text.ll_rx_wait_tx_dma
                0x0000000000014376       0x2c e:/Workspace/resistance_band/reistance_band_v0_1/resistance_band/LIB\libCH57xBLE.a(ip.o)
                0x0000000000014376                ll_rx_wait_tx_dma
 .text.ll_rx_wait_pkt_recv
                0x00000000000143a2       0x24 e:/Workspace/resistance_band/reistance_band_v0_1/resistance_band/LIB\libCH57xBLE.a(ip.o)
                0x00000000000143a2                ll_rx_wait_pkt_recv
 .text.ll_multi_states_check
                0x00000000000143c6       0x34 e:/Workspace/resistance_band/reistance_band_v0_1/resistance_band/LIB\libCH57xBLE.a(ip.o)
                0x00000000000143c6                ll_multi_states_check
 .text.ble_ll_hw_api_shut
                0x00000000000143fa       0x56 e:/Workspace/resistance_band/reistance_band_v0_1/resistance_band/LIB\libCH57xBLE.a(ip.o)
                0x00000000000143fa                ble_ll_hw_api_shut
 .text.ble_ll_hw_api_rx
                0x0000000000014450       0xe0 e:/Workspace/resistance_band/reistance_band_v0_1/resistance_band/LIB\libCH57xBLE.a(ip.o)
                0x0000000000014450                ble_ll_hw_api_rx
 .text.ll_multi_states_process
                0x0000000000014530      0x114 e:/Workspace/resistance_band/reistance_band_v0_1/resistance_band/LIB\libCH57xBLE.a(ip.o)
                0x0000000000014530                ll_multi_states_process
 .text.ll_hw_api_tx_direct_test
                0x0000000000014644      0x112 e:/Workspace/resistance_band/reistance_band_v0_1/resistance_band/LIB\libCH57xBLE.a(ip.o)
                0x0000000000014644                ll_hw_api_tx_direct_test
 .text.BLE_RegInit
                0x0000000000014756       0x5e e:/Workspace/resistance_band/reistance_band_v0_1/resistance_band/LIB\libCH57xBLE.a(ip.o)
                0x0000000000014756                BLE_RegInit
 .text.BLE_ADCTune
                0x00000000000147b4       0x4c e:/Workspace/resistance_band/reistance_band_v0_1/resistance_band/LIB\libCH57xBLE.a(ip.o)
                0x00000000000147b4                BLE_ADCTune
 .text.BLE_IPCoreInit
                0x0000000000014800       0x94 e:/Workspace/resistance_band/reistance_band_v0_1/resistance_band/LIB\libCH57xBLE.a(ip.o)
                0x0000000000014800                BLE_IPCoreInit
 .text.LLE_DevInit
                0x0000000000014894       0x54 e:/Workspace/resistance_band/reistance_band_v0_1/resistance_band/LIB\libCH57xBLE.a(lle.o)
                0x0000000000014894                LLE_DevInit
 .text.RF_DevSetChannel
                0x00000000000148e8      0x13c e:/Workspace/resistance_band/reistance_band_v0_1/resistance_band/LIB\libCH57xBLE.a(rf_fh.o)
                0x00000000000148e8                RF_DevSetChannel
 .text.RF_FrequencyHoppingChange
                0x0000000000014a24       0x98 e:/Workspace/resistance_band/reistance_band_v0_1/resistance_band/LIB\libCH57xBLE.a(rf_fh.o)
                0x0000000000014a24                RF_FrequencyHoppingChange
 .text.RF_Rx    0x0000000000014abc      0x1dc e:/Workspace/resistance_band/reistance_band_v0_1/resistance_band/LIB\libCH57xBLE.a(rf_fh.o)
                0x0000000000014abc                RF_Rx
 .text.RFEND_Reset
                0x0000000000014c98       0xa8 e:/Workspace/resistance_band/reistance_band_v0_1/resistance_band/LIB\libCH57xBLE.a(rfend.o)
                0x0000000000014c98                RFEND_Reset
 .text.RFEND_DevInit
                0x0000000000014d40      0x172 e:/Workspace/resistance_band/reistance_band_v0_1/resistance_band/LIB\libCH57xBLE.a(rfend.o)
                0x0000000000014d40                RFEND_DevInit
 .text.RFEND_RXFilter
                0x0000000000014eb2       0x7c e:/Workspace/resistance_band/reistance_band_v0_1/resistance_band/LIB\libCH57xBLE.a(rfend.o)
                0x0000000000014eb2                RFEND_RXFilter
 .text.RFEND_RXAdc
                0x0000000000014f2e      0x14c e:/Workspace/resistance_band/reistance_band_v0_1/resistance_band/LIB\libCH57xBLE.a(rfend.o)
                0x0000000000014f2e                RFEND_RXAdc
 .text.RFEND_TXCtune
                0x000000000001507a      0xcfc e:/Workspace/resistance_band/reistance_band_v0_1/resistance_band/LIB\libCH57xBLE.a(rfend.o)
                0x000000000001507a                RFEND_TXCtune
 .text.RFEND_TXFtune
                0x0000000000015d76       0x10 e:/Workspace/resistance_band/reistance_band_v0_1/resistance_band/LIB\libCH57xBLE.a(rfend.o)
                0x0000000000015d76                RFEND_TXFtune
 .text.API_DisconnectCmd
                0x0000000000015d86       0x16 e:/Workspace/resistance_band/reistance_band_v0_1/resistance_band/LIB\libCH57xBLE.a(api_c.o)
                0x0000000000015d86                API_DisconnectCmd
 .text.API_MD_DisconnectCmd
                0x0000000000015d9c        0x2 e:/Workspace/resistance_band/reistance_band_v0_1/resistance_band/LIB\libCH57xBLE.a(api_c.o)
                0x0000000000015d9c                API_MD_DisconnectCmd
 .text.API_HostNumCompletedPktCmd
                0x0000000000015d9e       0x34 e:/Workspace/resistance_band/reistance_band_v0_1/resistance_band/LIB\libCH57xBLE.a(api_c.o)
                0x0000000000015d9e                API_HostNumCompletedPktCmd
 .text.API_ReadBDADDRCmd
                0x0000000000015dd2       0x24 e:/Workspace/resistance_band/reistance_band_v0_1/resistance_band/LIB\libCH57xBLE.a(api_c.o)
                0x0000000000015dd2                API_ReadBDADDRCmd
 .text.API_LE_ReadBufSizeCmd
                0x0000000000015df6       0x24 e:/Workspace/resistance_band/reistance_band_v0_1/resistance_band/LIB\libCH57xBLE.a(api_c.o)
                0x0000000000015df6                API_LE_ReadBufSizeCmd
 .text.API_LE_SetRandomAddressCmd
                0x0000000000015e1a       0x22 e:/Workspace/resistance_band/reistance_band_v0_1/resistance_band/LIB\libCH57xBLE.a(api_c.o)
                0x0000000000015e1a                API_LE_SetRandomAddressCmd
 .text.API_LE_SetAdvParamCmd
                0x0000000000015e3c       0x22 e:/Workspace/resistance_band/reistance_band_v0_1/resistance_band/LIB\libCH57xBLE.a(api_c.o)
                0x0000000000015e3c                API_LE_SetAdvParamCmd
 .text.API_LE_SetAdvDataCmd
                0x0000000000015e5e       0x22 e:/Workspace/resistance_band/reistance_band_v0_1/resistance_band/LIB\libCH57xBLE.a(api_c.o)
                0x0000000000015e5e                API_LE_SetAdvDataCmd
 .text.API_LE_SetScanRspDataCmd
                0x0000000000015e80       0x22 e:/Workspace/resistance_band/reistance_band_v0_1/resistance_band/LIB\libCH57xBLE.a(api_c.o)
                0x0000000000015e80                API_LE_SetScanRspDataCmd
 .text.API_LE_SetAdvEnableCmd
                0x0000000000015ea2       0x22 e:/Workspace/resistance_band/reistance_band_v0_1/resistance_band/LIB\libCH57xBLE.a(api_c.o)
                0x0000000000015ea2                API_LE_SetAdvEnableCmd
 .text.API_LE_SetScanEnableCmd
                0x0000000000015ec4       0x24 e:/Workspace/resistance_band/reistance_band_v0_1/resistance_band/LIB\libCH57xBLE.a(api_c.o)
                0x0000000000015ec4                API_LE_SetScanEnableCmd
 .text.API_LE_CreateConnCancelCmd
                0x0000000000015ee8       0x22 e:/Workspace/resistance_band/reistance_band_v0_1/resistance_band/LIB\libCH57xBLE.a(api_c.o)
                0x0000000000015ee8                API_LE_CreateConnCancelCmd
 .text.API_LE_ClearWhiteListCmd
                0x0000000000015f0a       0x24 e:/Workspace/resistance_band/reistance_band_v0_1/resistance_band/LIB\libCH57xBLE.a(api_c.o)
                0x0000000000015f0a                API_LE_ClearWhiteListCmd
 .text.API_LE_AddWhiteListCmd
                0x0000000000015f2e       0x24 e:/Workspace/resistance_band/reistance_band_v0_1/resistance_band/LIB\libCH57xBLE.a(api_c.o)
                0x0000000000015f2e                API_LE_AddWhiteListCmd
 .text.API_LE_ConnUpdateCmd
                0x0000000000015f52       0x1e e:/Workspace/resistance_band/reistance_band_v0_1/resistance_band/LIB\libCH57xBLE.a(api_c.o)
                0x0000000000015f52                API_LE_ConnUpdateCmd
 .text.API_LE_RandCmd
                0x0000000000015f70       0x24 e:/Workspace/resistance_band/reistance_band_v0_1/resistance_band/LIB\libCH57xBLE.a(api_c.o)
                0x0000000000015f70                API_LE_RandCmd
 .text.API_LE_StartEncryptCmd
                0x0000000000015f94       0x18 e:/Workspace/resistance_band/reistance_band_v0_1/resistance_band/LIB\libCH57xBLE.a(api_c.o)
                0x0000000000015f94                API_LE_StartEncryptCmd
 .text.API_LE_LtkReqReplyCmd
                0x0000000000015fac       0x30 e:/Workspace/resistance_band/reistance_band_v0_1/resistance_band/LIB\libCH57xBLE.a(api_c.o)
                0x0000000000015fac                API_LE_LtkReqReplyCmd
 .text.API_LE_LtkReqNegReplyCmd
                0x0000000000015fdc       0x30 e:/Workspace/resistance_band/reistance_band_v0_1/resistance_band/LIB\libCH57xBLE.a(api_c.o)
                0x0000000000015fdc                API_LE_LtkReqNegReplyCmd
 .text.API_LE_RemoteConnParamReqReplyCmd
                0x000000000001600c       0x30 e:/Workspace/resistance_band/reistance_band_v0_1/resistance_band/LIB\libCH57xBLE.a(api_c.o)
                0x000000000001600c                API_LE_RemoteConnParamReqReplyCmd
 .text.API_LE_RemoteConnParamReqNegReplyCmd
                0x000000000001603c       0x32 e:/Workspace/resistance_band/reistance_band_v0_1/resistance_band/LIB\libCH57xBLE.a(api_c.o)
                0x000000000001603c                API_LE_RemoteConnParamReqNegReplyCmd
 .text.API_LE_AddDeviceToResolvingList
                0x000000000001606e       0x26 e:/Workspace/resistance_band/reistance_band_v0_1/resistance_band/LIB\libCH57xBLE.a(api_c.o)
                0x000000000001606e                API_LE_AddDeviceToResolvingList
 .text.API_LE_ClearResolvingList
                0x0000000000016094       0x26 e:/Workspace/resistance_band/reistance_band_v0_1/resistance_band/LIB\libCH57xBLE.a(api_c.o)
                0x0000000000016094                API_LE_ClearResolvingList
 .text.API_LE_SetAddressResolvableEnableCmd
                0x00000000000160ba       0x26 e:/Workspace/resistance_band/reistance_band_v0_1/resistance_band/LIB\libCH57xBLE.a(api_c.o)
                0x00000000000160ba                API_LE_SetAddressResolvableEnableCmd
 .text.API_LE_SetResolvableAddressTimeoutCmd
                0x00000000000160e0       0x26 e:/Workspace/resistance_band/reistance_band_v0_1/resistance_band/LIB\libCH57xBLE.a(api_c.o)
                0x00000000000160e0                API_LE_SetResolvableAddressTimeoutCmd
 .text.API_SendDataPkt
                0x0000000000016106        0x4 e:/Workspace/resistance_band/reistance_band_v0_1/resistance_band/LIB\libCH57xBLE.a(api_c.o)
                0x0000000000016106                API_SendDataPkt
 .text.CreatePRBS9
                0x000000000001610a       0x52 e:/Workspace/resistance_band/reistance_band_v0_1/resistance_band/LIB\libCH57xBLE.a(ctl_input.o)
                0x000000000001610a                CreatePRBS9
 .text.CreatePRBS15
                0x000000000001615c       0x5a e:/Workspace/resistance_band/reistance_band_v0_1/resistance_band/LIB\libCH57xBLE.a(ctl_input.o)
                0x000000000001615c                CreatePRBS15
 .text.LL_TransmitterTest
                0x00000000000161b6      0x13a e:/Workspace/resistance_band/reistance_band_v0_1/resistance_band/LIB\libCH57xBLE.a(ctl_input.o)
                0x00000000000161b6                LL_TransmitterTest
 .text.LL_Disconnect
                0x00000000000162f0       0x3e e:/Workspace/resistance_band/reistance_band_v0_1/resistance_band/LIB\libCH57xBLE.a(ctl_input.o)
                0x00000000000162f0                LL_Disconnect
 .text.LL_MD_Disconnect
                0x000000000001632e       0x28 e:/Workspace/resistance_band/reistance_band_v0_1/resistance_band/LIB\libCH57xBLE.a(ctl_input.o)
                0x000000000001632e                LL_MD_Disconnect
 .text.LL_ReadBDAddr
                0x0000000000016356       0x24 e:/Workspace/resistance_band/reistance_band_v0_1/resistance_band/LIB\libCH57xBLE.a(ctl_input.o)
                0x0000000000016356                LL_ReadBDAddr
 .text.LL_LE_ReadBufSize
                0x000000000001637a       0x20 e:/Workspace/resistance_band/reistance_band_v0_1/resistance_band/LIB\libCH57xBLE.a(ctl_input.o)
                0x000000000001637a                LL_LE_ReadBufSize
 .text.LL_SetRandomAddress
                0x000000000001639a       0xae e:/Workspace/resistance_band/reistance_band_v0_1/resistance_band/LIB\libCH57xBLE.a(ctl_input.o)
                0x000000000001639a                LL_SetRandomAddress
 .text.LL_SetAdvParam
                0x0000000000016448       0xd0 e:/Workspace/resistance_band/reistance_band_v0_1/resistance_band/LIB\libCH57xBLE.a(ctl_input.o)
                0x0000000000016448                LL_SetAdvParam
 .text.LL_SetAdvData
                0x0000000000016518       0x48 e:/Workspace/resistance_band/reistance_band_v0_1/resistance_band/LIB\libCH57xBLE.a(ctl_input.o)
                0x0000000000016518                LL_SetAdvData
 .text.LL_SetScanRspData
                0x0000000000016560       0x48 e:/Workspace/resistance_band/reistance_band_v0_1/resistance_band/LIB\libCH57xBLE.a(ctl_input.o)
                0x0000000000016560                LL_SetScanRspData
 .text.LL_SetAdvControl
                0x00000000000165a8      0x10c e:/Workspace/resistance_band/reistance_band_v0_1/resistance_band/LIB\libCH57xBLE.a(ctl_input.o)
                0x00000000000165a8                LL_SetAdvControl
 .text.LL_SetScanEnable
                0x00000000000166b4       0x94 e:/Workspace/resistance_band/reistance_band_v0_1/resistance_band/LIB\libCH57xBLE.a(ctl_input.o)
                0x00000000000166b4                LL_SetScanEnable
 .text.LL_CreateConnCancel
                0x0000000000016748       0x26 e:/Workspace/resistance_band/reistance_band_v0_1/resistance_band/LIB\libCH57xBLE.a(ctl_input.o)
                0x0000000000016748                LL_CreateConnCancel
 .text.LL_RemoteConnParamReqReply
                0x000000000001676e      0x150 e:/Workspace/resistance_band/reistance_band_v0_1/resistance_band/LIB\libCH57xBLE.a(ctl_input.o)
                0x000000000001676e                LL_RemoteConnParamReqReply
 .text.LL_RemoteConnParamReqNegReply
                0x00000000000168be       0x3a e:/Workspace/resistance_band/reistance_band_v0_1/resistance_band/LIB\libCH57xBLE.a(ctl_input.o)
                0x00000000000168be                LL_RemoteConnParamReqNegReply
 .text.LL_AddWhiteListDevice
                0x00000000000168f8       0x8a e:/Workspace/resistance_band/reistance_band_v0_1/resistance_band/LIB\libCH57xBLE.a(ctl_input.o)
                0x00000000000168f8                LL_AddWhiteListDevice
 .text.LL_ConnUpdate
                0x0000000000016982      0x13e e:/Workspace/resistance_band/reistance_band_v0_1/resistance_band/LIB\libCH57xBLE.a(ctl_input.o)
                0x0000000000016982                LL_ConnUpdate
 .text.LL_ClearWhiteList
                0x0000000000016ac0       0x52 e:/Workspace/resistance_band/reistance_band_v0_1/resistance_band/LIB\libCH57xBLE.a(ctl_input.o)
                0x0000000000016ac0                LL_ClearWhiteList
 .text.LL_Rand  0x0000000000016b12       0x36 e:/Workspace/resistance_band/reistance_band_v0_1/resistance_band/LIB\libCH57xBLE.a(ctl_input.o)
                0x0000000000016b12                LL_Rand
 .text.LL_StartEncrypt
                0x0000000000016b48      0x1aa e:/Workspace/resistance_band/reistance_band_v0_1/resistance_band/LIB\libCH57xBLE.a(ctl_input.o)
                0x0000000000016b48                LL_StartEncrypt
 .text.LL_LtkReqReply
                0x0000000000016cf2       0xba e:/Workspace/resistance_band/reistance_band_v0_1/resistance_band/LIB\libCH57xBLE.a(ctl_input.o)
                0x0000000000016cf2                LL_LtkReqReply
 .text.LL_LtkReqNegReply
                0x0000000000016dac       0x4a e:/Workspace/resistance_band/reistance_band_v0_1/resistance_band/LIB\libCH57xBLE.a(ctl_input.o)
                0x0000000000016dac                LL_LtkReqNegReply
 .text.LL_AddDeviceToResolvingList
                0x0000000000016df6       0xac e:/Workspace/resistance_band/reistance_band_v0_1/resistance_band/LIB\libCH57xBLE.a(ctl_input.o)
                0x0000000000016df6                LL_AddDeviceToResolvingList
 .text.LL_ClearResolvingList
                0x0000000000016ea2       0x10 e:/Workspace/resistance_band/reistance_band_v0_1/resistance_band/LIB\libCH57xBLE.a(ctl_input.o)
                0x0000000000016ea2                LL_ClearResolvingList
 .text.LL_SetAddressResolvableEnable
                0x0000000000016eb2       0x54 e:/Workspace/resistance_band/reistance_band_v0_1/resistance_band/LIB\libCH57xBLE.a(ctl_input.o)
                0x0000000000016eb2                LL_SetAddressResolvableEnable
 .text.LL_SetResolvableAddressTimeout
                0x0000000000016f06       0x4c e:/Workspace/resistance_band/reistance_band_v0_1/resistance_band/LIB\libCH57xBLE.a(ctl_input.o)
                0x0000000000016f06                LL_SetResolvableAddressTimeout
 .text.LL_SendDataPkt
                0x0000000000016f52       0xa8 e:/Workspace/resistance_band/reistance_band_v0_1/resistance_band/LIB\libCH57xBLE.a(ctl_input.o)
                0x0000000000016f52                LL_SendDataPkt
 .text.HCI_LE_ConnectionCompleteCback
                0x0000000000016ffa        0xa e:/Workspace/resistance_band/reistance_band_v0_1/resistance_band/LIB\libCH57xBLE.a(ctl_output.o)
                0x0000000000016ffa                HCI_LE_ConnectionCompleteCback
 .text.HCI_LE_ConnectionUpdateCompleteCback
                0x0000000000017004        0x4 e:/Workspace/resistance_band/reistance_band_v0_1/resistance_band/LIB\libCH57xBLE.a(ctl_output.o)
                0x0000000000017004                HCI_LE_ConnectionUpdateCompleteCback
 .text.HCI_LE_ReadRemoteUsedFeaturesCompleteCback
                0x0000000000017008        0x4 e:/Workspace/resistance_band/reistance_band_v0_1/resistance_band/LIB\libCH57xBLE.a(ctl_output.o)
                0x0000000000017008                HCI_LE_ReadRemoteUsedFeaturesCompleteCback
 .text.HCI_LE_LongTermKeyRequestCback
                0x000000000001700c        0x4 e:/Workspace/resistance_band/reistance_band_v0_1/resistance_band/LIB\libCH57xBLE.a(ctl_output.o)
                0x000000000001700c                HCI_LE_LongTermKeyRequestCback
 .text.HCI_LE_RemoteConnectionParameterRequestCback
                0x0000000000017010        0x4 e:/Workspace/resistance_band/reistance_band_v0_1/resistance_band/LIB\libCH57xBLE.a(ctl_output.o)
                0x0000000000017010                HCI_LE_RemoteConnectionParameterRequestCback
 .text.HCI_RemoteConnectionParameterRequestCback
                0x0000000000017014        0x4 e:/Workspace/resistance_band/reistance_band_v0_1/resistance_band/LIB\libCH57xBLE.a(ctl_output.o)
                0x0000000000017014                HCI_RemoteConnectionParameterRequestCback
 .text.HCI_LE_DataLengthChangeCback
                0x0000000000017018        0x4 e:/Workspace/resistance_band/reistance_band_v0_1/resistance_band/LIB\libCH57xBLE.a(ctl_output.o)
                0x0000000000017018                HCI_LE_DataLengthChangeCback
 .text.HCI_LE_EnhancedConnectionCompleteCback
                0x000000000001701c       0x16 e:/Workspace/resistance_band/reistance_band_v0_1/resistance_band/LIB\libCH57xBLE.a(ctl_output.o)
                0x000000000001701c                HCI_LE_EnhancedConnectionCompleteCback
 .text.HCI_DisconnectionCompleteCback
                0x0000000000017032        0x4 e:/Workspace/resistance_band/reistance_band_v0_1/resistance_band/LIB\libCH57xBLE.a(ctl_output.o)
                0x0000000000017032                HCI_DisconnectionCompleteCback
 .text.HCI_EncryptionChangeCback
                0x0000000000017036        0x4 e:/Workspace/resistance_band/reistance_band_v0_1/resistance_band/LIB\libCH57xBLE.a(ctl_output.o)
                0x0000000000017036                HCI_EncryptionChangeCback
 .text.HCI_ReadRemoteVersionInfoCback
                0x000000000001703a        0x4 e:/Workspace/resistance_band/reistance_band_v0_1/resistance_band/LIB\libCH57xBLE.a(ctl_output.o)
                0x000000000001703a                HCI_ReadRemoteVersionInfoCback
 .text.HCI_CommandCompleteCback
                0x000000000001703e        0x4 e:/Workspace/resistance_band/reistance_band_v0_1/resistance_band/LIB\libCH57xBLE.a(ctl_output.o)
                0x000000000001703e                HCI_CommandCompleteCback
 .text.HCI_CommandStatusCback
                0x0000000000017042        0x4 e:/Workspace/resistance_band/reistance_band_v0_1/resistance_band/LIB\libCH57xBLE.a(ctl_output.o)
                0x0000000000017042                HCI_CommandStatusCback
 .text.HCI_NumberOfCompletedPacketsCback
                0x0000000000017046        0x4 e:/Workspace/resistance_band/reistance_band_v0_1/resistance_band/LIB\libCH57xBLE.a(ctl_output.o)
                0x0000000000017046                HCI_NumberOfCompletedPacketsCback
 .text.HCI_DataBufferOverflowCback
                0x000000000001704a        0x4 e:/Workspace/resistance_band/reistance_band_v0_1/resistance_band/LIB\libCH57xBLE.a(ctl_output.o)
                0x000000000001704a                HCI_DataBufferOverflowCback
 .text.HCI_EncryptionKeyRefreshCompleteCback
                0x000000000001704e        0x4 e:/Workspace/resistance_band/reistance_band_v0_1/resistance_band/LIB\libCH57xBLE.a(ctl_output.o)
                0x000000000001704e                HCI_EncryptionKeyRefreshCompleteCback
 .text.HCI_AuthenticatedPayloadTimeoutExpiredCback
                0x0000000000017052        0x2 e:/Workspace/resistance_band/reistance_band_v0_1/resistance_band/LIB\libCH57xBLE.a(ctl_output.o)
                0x0000000000017052                HCI_AuthenticatedPayloadTimeoutExpiredCback
 .text.HCI_RxDataCompleteCback
                0x0000000000017054        0x4 e:/Workspace/resistance_band/reistance_band_v0_1/resistance_band/LIB\libCH57xBLE.a(ctl_output.o)
                0x0000000000017054                HCI_RxDataCompleteCback
 .text.gapBondMgrInvertCharCfgItem
                0x0000000000017058       0x24 e:/Workspace/resistance_band/reistance_band_v0_1/resistance_band/LIB\libCH57xBLE.a(gapbondmgr.o)
 .text.gapBondMgrGetStateFlags
                0x000000000001707c       0x2a e:/Workspace/resistance_band/reistance_band_v0_1/resistance_band/LIB\libCH57xBLE.a(gapbondmgr.o)
 .text.gapBondMgrBondTotal
                0x00000000000170a6       0x4c e:/Workspace/resistance_band/reistance_band_v0_1/resistance_band/LIB\libCH57xBLE.a(gapbondmgr.o)
 .text.gapBondFreeAuthEvt
                0x00000000000170f2       0x34 e:/Workspace/resistance_band/reistance_band_v0_1/resistance_band/LIB\libCH57xBLE.a(gapbondmgr.o)
 .text.gapBondMgrEraseBonding
                0x0000000000017126      0x12a e:/Workspace/resistance_band/reistance_band_v0_1/resistance_band/LIB\libCH57xBLE.a(gapbondmgr.o)
 .text.gapBondMgrEraseAllBondings
                0x0000000000017250       0x2a e:/Workspace/resistance_band/reistance_band_v0_1/resistance_band/LIB\libCH57xBLE.a(gapbondmgr.o)
 .text.gapBondMgr_SyncWhiteList
                0x000000000001727a       0x4c e:/Workspace/resistance_band/reistance_band_v0_1/resistance_band/LIB\libCH57xBLE.a(gapbondmgr.o)
 .text.gapBondMgr_SyncResolveList
                0x00000000000172c6       0x94 e:/Workspace/resistance_band/reistance_band_v0_1/resistance_band/LIB\libCH57xBLE.a(gapbondmgr.o)
 .text.gapBondSetupPrivFlag
                0x000000000001735a       0x28 e:/Workspace/resistance_band/reistance_band_v0_1/resistance_band/LIB\libCH57xBLE.a(gapbondmgr.o)
 .text.gapBondMgrReadBonds
                0x0000000000017382       0xac e:/Workspace/resistance_band/reistance_band_v0_1/resistance_band/LIB\libCH57xBLE.a(gapbondmgr.o)
 .text.gapBondMgrSendServiceChange
                0x000000000001742e        0xc e:/Workspace/resistance_band/reistance_band_v0_1/resistance_band/LIB\libCH57xBLE.a(gapbondmgr.o)
 .text.gapBondMgrBondReq
                0x000000000001743a       0x70 e:/Workspace/resistance_band/reistance_band_v0_1/resistance_band/LIB\libCH57xBLE.a(gapbondmgr.o)
 .text.gapBondMgrAuthenticate
                0x00000000000174aa      0x158 e:/Workspace/resistance_band/reistance_band_v0_1/resistance_band/LIB\libCH57xBLE.a(gapbondmgr.o)
 .text.gapBondMgrFindAddr
                0x0000000000017602       0x46 e:/Workspace/resistance_band/reistance_band_v0_1/resistance_band/LIB\libCH57xBLE.a(gapbondmgr.o)
 .text.gapBondMgrAddBond
                0x0000000000017648      0x1a0 e:/Workspace/resistance_band/reistance_band_v0_1/resistance_band/LIB\libCH57xBLE.a(gapbondmgr.o)
 .text.gapBondPairStateCB
                0x00000000000177e8       0x48 e:/Workspace/resistance_band/reistance_band_v0_1/resistance_band/LIB\libCH57xBLE.a(gapbondmgr.o)
 .text.gapBondPasscodeCB
                0x0000000000017830       0x82 e:/Workspace/resistance_band/reistance_band_v0_1/resistance_band/LIB\libCH57xBLE.a(gapbondmgr.o)
 .text.gapBondMgrGetPublicAddr
                0x00000000000178b2       0x4a e:/Workspace/resistance_band/reistance_band_v0_1/resistance_band/LIB\libCH57xBLE.a(gapbondmgr.o)
 .text.gapBondMgrChangeState.constprop.9
                0x00000000000178fc       0x74 e:/Workspace/resistance_band/reistance_band_v0_1/resistance_band/LIB\libCH57xBLE.a(gapbondmgr.o)
 .text.gapBondMgrUpdateCharCfg
                0x0000000000017970       0xe6 e:/Workspace/resistance_band/reistance_band_v0_1/resistance_band/LIB\libCH57xBLE.a(gapbondmgr.o)
 .text.GAPBondMgr_ParamInit
                0x0000000000017a56      0x166 e:/Workspace/resistance_band/reistance_band_v0_1/resistance_band/LIB\libCH57xBLE.a(gapbondmgr.o)
                0x0000000000017a56                GAPBondMgr_ParamInit
 .text.GAPBondMgr_Erase
                0x0000000000017bbc       0x6a e:/Workspace/resistance_band/reistance_band_v0_1/resistance_band/LIB\libCH57xBLE.a(gapbondmgr.o)
                0x0000000000017bbc                GAPBondMgr_Erase
 .text.GAPBondMgr_GetParameter
                0x0000000000017c26       0xf8 e:/Workspace/resistance_band/reistance_band_v0_1/resistance_band/LIB\libCH57xBLE.a(gapbondmgr.o)
                0x0000000000017c26                GAPBondMgr_GetParameter
 .text.GAPBondMgr_LinkTerm
                0x0000000000017d1e       0x9a e:/Workspace/resistance_band/reistance_band_v0_1/resistance_band/LIB\libCH57xBLE.a(gapbondmgr.o)
                0x0000000000017d1e                GAPBondMgr_LinkTerm
 .text.GAPBondMgr_ResolveAddr
                0x0000000000017db8       0xdc e:/Workspace/resistance_band/reistance_band_v0_1/resistance_band/LIB\libCH57xBLE.a(gapbondmgr.o)
                0x0000000000017db8                GAPBondMgr_ResolveAddr
 .text.GAPBondMgr_SlaveReqSecurity
                0x0000000000017e94       0x7a e:/Workspace/resistance_band/reistance_band_v0_1/resistance_band/LIB\libCH57xBLE.a(gapbondmgr.o)
                0x0000000000017e94                GAPBondMgr_SlaveReqSecurity
 .text.GAPBondMgr_ServiceChangeInd
                0x0000000000017f0e       0x88 e:/Workspace/resistance_band/reistance_band_v0_1/resistance_band/LIB\libCH57xBLE.a(gapbondmgr.o)
                0x0000000000017f0e                GAPBondMgr_ServiceChangeInd
 .text.GAPBondMgr_UpdateCharCfg
                0x0000000000017f96       0x76 e:/Workspace/resistance_band/reistance_band_v0_1/resistance_band/LIB\libCH57xBLE.a(gapbondmgr.o)
                0x0000000000017f96                GAPBondMgr_UpdateCharCfg
 .text.GAPBondMgr_PeripheralRegister
                0x000000000001800c       0x2e e:/Workspace/resistance_band/reistance_band_v0_1/resistance_band/LIB\libCH57xBLE.a(gapbondmgr.o)
                0x000000000001800c                GAPBondMgr_PeripheralRegister
 .text.GAPBondMgr_PeriSecurityReq
                0x000000000001803a       0x18 e:/Workspace/resistance_band/reistance_band_v0_1/resistance_band/LIB\libCH57xBLE.a(gapbondmgr.o)
                0x000000000001803a                GAPBondMgr_PeriSecurityReq
 .text.GAPBondMgr_LinkEst
                0x0000000000018052      0x14a e:/Workspace/resistance_band/reistance_band_v0_1/resistance_band/LIB\libCH57xBLE.a(gapbondmgr.o)
                0x0000000000018052                GAPBondMgr_LinkEst
 .text.GAPBondMgr_Init
                0x000000000001819c       0x18 e:/Workspace/resistance_band/reistance_band_v0_1/resistance_band/LIB\libCH57xBLE.a(gapbondmgr.o)
                0x000000000001819c                GAPBondMgr_Init
 .text.gapBondMgr_SyncResolveListUpdate
                0x00000000000181b4       0xc0 e:/Workspace/resistance_band/reistance_band_v0_1/resistance_band/LIB\libCH57xBLE.a(gapbondmgr.o)
                0x00000000000181b4                gapBondMgr_SyncResolveListUpdate
 .text.GAPBondMgr_SetParameter
                0x0000000000018274      0x4ba e:/Workspace/resistance_band/reistance_band_v0_1/resistance_band/LIB\libCH57xBLE.a(gapbondmgr.o)
                0x0000000000018274                GAPBondMgr_SetParameter
 .text.GAPBondMgr_ProcessGAPMsg
                0x000000000001872e      0x28e e:/Workspace/resistance_band/reistance_band_v0_1/resistance_band/LIB\libCH57xBLE.a(gapbondmgr.o)
                0x000000000001872e                GAPBondMgr_ProcessGAPMsg
 .text.GAPBondMgr_ProcessEvent
                0x00000000000189bc      0x1c0 e:/Workspace/resistance_band/reistance_band_v0_1/resistance_band/LIB\libCH57xBLE.a(gapbondmgr.o)
                0x00000000000189bc                GAPBondMgr_ProcessEvent
 .text.gapRole_PeripheralProcessTMOSMsg
                0x0000000000018b7c      0x270 e:/Workspace/resistance_band/reistance_band_v0_1/resistance_band/LIB\libCH57xBLE.a(peripheral.o)
 .text.GAPRole_PeripheralProcessEvent
                0x0000000000018dec      0x18e e:/Workspace/resistance_band/reistance_band_v0_1/resistance_band/LIB\libCH57xBLE.a(peripheral.o)
                0x0000000000018dec                GAPRole_PeripheralProcessEvent
 .text.GAPRole_PeripheralConnParamUpdateReq
                0x0000000000018f7a       0x6a e:/Workspace/resistance_band/reistance_band_v0_1/resistance_band/LIB\libCH57xBLE.a(peripheral.o)
                0x0000000000018f7a                GAPRole_PeripheralConnParamUpdateReq
 .text.GAPRole_PeripheralStartDevice
                0x0000000000018fe4       0x56 e:/Workspace/resistance_band/reistance_band_v0_1/resistance_band/LIB\libCH57xBLE.a(peripheral.o)
                0x0000000000018fe4                GAPRole_PeripheralStartDevice
 .text.GAPRole_PeripheralEnable
                0x000000000001903a       0xec e:/Workspace/resistance_band/reistance_band_v0_1/resistance_band/LIB\libCH57xBLE.a(peripheral.o)
                0x000000000001903a                GAPRole_PeripheralEnable
 .text.GAPRole_ParamInit
                0x0000000000019126       0xa4 e:/Workspace/resistance_band/reistance_band_v0_1/resistance_band/LIB\libCH57xBLE.a(role.o)
                0x0000000000019126                GAPRole_ParamInit
 .text.GAPRole_GetParameter
                0x00000000000191ca       0xdc e:/Workspace/resistance_band/reistance_band_v0_1/resistance_band/LIB\libCH57xBLE.a(role.o)
                0x00000000000191ca                GAPRole_GetParameter
 .text.GAPRole_SetParameter
                0x00000000000192a6      0x268 e:/Workspace/resistance_band/reistance_band_v0_1/resistance_band/LIB\libCH57xBLE.a(role.o)
                0x00000000000192a6                GAPRole_SetParameter
 .text.GAPRole_PeripheralInit
                0x000000000001950e       0x70 e:/Workspace/resistance_band/reistance_band_v0_1/resistance_band/LIB\libCH57xBLE.a(role.o)
                0x000000000001950e                GAPRole_PeripheralInit
 .text.tmos_memory_init
                0x000000000001957e       0x5a e:/Workspace/resistance_band/reistance_band_v0_1/resistance_band/LIB\libCH57xBLE.a(memory.o)
                0x000000000001957e                tmos_memory_init
 .text.tmos_bm_adjust_header
                0x00000000000195d8       0x34 e:/Workspace/resistance_band/reistance_band_v0_1/resistance_band/LIB\libCH57xBLE.a(memory.o)
                0x00000000000195d8                tmos_bm_adjust_header
 .text.ATT_BuildErrorRsp
                0x000000000001960c       0x26 e:/Workspace/resistance_band/reistance_band_v0_1/resistance_band/LIB\libCH57xBLE.a(att.o)
                0x000000000001960c                ATT_BuildErrorRsp
 .text.ATT_ParamInit
                0x0000000000019632        0xa e:/Workspace/resistance_band/reistance_band_v0_1/resistance_band/LIB\libCH57xBLE.a(att.o)
                0x0000000000019632                ATT_ParamInit
 .text.ATT_ConvertUUIDto128
                0x000000000001963c       0x46 e:/Workspace/resistance_band/reistance_band_v0_1/resistance_band/LIB\libCH57xBLE.a(att.o)
                0x000000000001963c                ATT_ConvertUUIDto128
 .text.ATT_CompareUUID
                0x0000000000019682       0x66 e:/Workspace/resistance_band/reistance_band_v0_1/resistance_band/LIB\libCH57xBLE.a(att.o)
                0x0000000000019682                ATT_CompareUUID
 .text.ATT_RegisterServer
                0x00000000000196e8        0x6 e:/Workspace/resistance_band/reistance_band_v0_1/resistance_band/LIB\libCH57xBLE.a(att.o)
                0x00000000000196e8                ATT_RegisterServer
 .text.ATT_ParsePacket
                0x00000000000196ee       0x94 e:/Workspace/resistance_band/reistance_band_v0_1/resistance_band/LIB\libCH57xBLE.a(att.o)
                0x00000000000196ee                ATT_ParsePacket
 .text.ATT_UpdateMTU
                0x0000000000019782       0x3c e:/Workspace/resistance_band/reistance_band_v0_1/resistance_band/LIB\libCH57xBLE.a(att.o)
                0x0000000000019782                ATT_UpdateMTU
 .text.ATT_GetMTU
                0x00000000000197be       0x1e e:/Workspace/resistance_band/reistance_band_v0_1/resistance_band/LIB\libCH57xBLE.a(att.o)
                0x00000000000197be                ATT_GetMTU
 .text.attSendMsg
                0x00000000000197dc       0xb8 e:/Workspace/resistance_band/reistance_band_v0_1/resistance_band/LIB\libCH57xBLE.a(att.o)
                0x00000000000197dc                attSendMsg
 .text.attSendRspMsg
                0x0000000000019894       0x48 e:/Workspace/resistance_band/reistance_band_v0_1/resistance_band/LIB\libCH57xBLE.a(att.o)
                0x0000000000019894                attSendRspMsg
 .text.ATT_ErrorRsp
                0x00000000000198dc       0x12 e:/Workspace/resistance_band/reistance_band_v0_1/resistance_band/LIB\libCH57xBLE.a(att.o)
                0x00000000000198dc                ATT_ErrorRsp
 .text.ATT_BuildExchangeMTURsp
                0x00000000000198ee       0x16 e:/Workspace/resistance_band/reistance_band_v0_1/resistance_band/LIB\libCH57xBLE.a(att_server.o)
                0x00000000000198ee                ATT_BuildExchangeMTURsp
 .text.ATT_BuildFindInfoRsp
                0x0000000000019904       0x24 e:/Workspace/resistance_band/reistance_band_v0_1/resistance_band/LIB\libCH57xBLE.a(att_server.o)
                0x0000000000019904                ATT_BuildFindInfoRsp
 .text.ATT_BuildFindByTypeValueRsp
                0x0000000000019928        0xc e:/Workspace/resistance_band/reistance_band_v0_1/resistance_band/LIB\libCH57xBLE.a(att_server.o)
                0x0000000000019928                ATT_BuildFindByTypeValueRsp
 .text.ATT_BuildReadByTypeRsp
                0x0000000000019934       0x1c e:/Workspace/resistance_band/reistance_band_v0_1/resistance_band/LIB\libCH57xBLE.a(att_server.o)
                0x0000000000019934                ATT_BuildReadByTypeRsp
 .text.ATT_BuildReadRsp
                0x0000000000019950        0x6 e:/Workspace/resistance_band/reistance_band_v0_1/resistance_band/LIB\libCH57xBLE.a(att_server.o)
                0x0000000000019950                ATT_BuildReadRsp
 .text.ATT_BuildReadBlobRsp
                0x0000000000019956        0x6 e:/Workspace/resistance_band/reistance_band_v0_1/resistance_band/LIB\libCH57xBLE.a(att_server.o)
                0x0000000000019956                ATT_BuildReadBlobRsp
 .text.ATT_BuildReadMultiRsp
                0x000000000001995c        0x6 e:/Workspace/resistance_band/reistance_band_v0_1/resistance_band/LIB\libCH57xBLE.a(att_server.o)
                0x000000000001995c                ATT_BuildReadMultiRsp
 .text.ATT_BuildReadByGrpTypeRsp
                0x0000000000019962       0x1c e:/Workspace/resistance_band/reistance_band_v0_1/resistance_band/LIB\libCH57xBLE.a(att_server.o)
                0x0000000000019962                ATT_BuildReadByGrpTypeRsp
 .text.ATT_BuildPrepareWriteRsp
                0x000000000001997e       0x30 e:/Workspace/resistance_band/reistance_band_v0_1/resistance_band/LIB\libCH57xBLE.a(att_server.o)
                0x000000000001997e                ATT_BuildPrepareWriteRsp
 .text.ATT_BuildHandleValueInd
                0x00000000000199ae       0x1e e:/Workspace/resistance_band/reistance_band_v0_1/resistance_band/LIB\libCH57xBLE.a(att_server.o)
                0x00000000000199ae                ATT_BuildHandleValueInd
 .text.ATT_ParseExchangeMTUReq
                0x00000000000199cc       0x1c e:/Workspace/resistance_band/reistance_band_v0_1/resistance_band/LIB\libCH57xBLE.a(att_server.o)
                0x00000000000199cc                ATT_ParseExchangeMTUReq
 .text.ATT_ExchangeMTURsp
                0x00000000000199e8       0x20 e:/Workspace/resistance_band/reistance_band_v0_1/resistance_band/LIB\libCH57xBLE.a(att_server.o)
                0x00000000000199e8                ATT_ExchangeMTURsp
 .text.ATT_ParseFindInfoReq
                0x0000000000019a08       0x2a e:/Workspace/resistance_band/reistance_band_v0_1/resistance_band/LIB\libCH57xBLE.a(att_server.o)
                0x0000000000019a08                ATT_ParseFindInfoReq
 .text.ATT_FindInfoRsp
                0x0000000000019a32       0x52 e:/Workspace/resistance_band/reistance_band_v0_1/resistance_band/LIB\libCH57xBLE.a(att_server.o)
                0x0000000000019a32                ATT_FindInfoRsp
 .text.ATT_ParseFindByTypeValueReq
                0x0000000000019a84       0x78 e:/Workspace/resistance_band/reistance_band_v0_1/resistance_band/LIB\libCH57xBLE.a(att_server.o)
                0x0000000000019a84                ATT_ParseFindByTypeValueReq
 .text.ATT_FindByTypeValueRsp
                0x0000000000019afc       0x42 e:/Workspace/resistance_band/reistance_band_v0_1/resistance_band/LIB\libCH57xBLE.a(att_server.o)
                0x0000000000019afc                ATT_FindByTypeValueRsp
 .text.ATT_ParseReadByTypeReq
                0x0000000000019b3e       0x5a e:/Workspace/resistance_band/reistance_band_v0_1/resistance_band/LIB\libCH57xBLE.a(att_server.o)
                0x0000000000019b3e                ATT_ParseReadByTypeReq
 .text.ATT_ReadByTypeRsp
                0x0000000000019b98       0x42 e:/Workspace/resistance_band/reistance_band_v0_1/resistance_band/LIB\libCH57xBLE.a(att_server.o)
                0x0000000000019b98                ATT_ReadByTypeRsp
 .text.ATT_ParseReadReq
                0x0000000000019bda       0x1c e:/Workspace/resistance_band/reistance_band_v0_1/resistance_band/LIB\libCH57xBLE.a(att_server.o)
                0x0000000000019bda                ATT_ParseReadReq
 .text.ATT_ReadRsp
                0x0000000000019bf6       0x32 e:/Workspace/resistance_band/reistance_band_v0_1/resistance_band/LIB\libCH57xBLE.a(att_server.o)
                0x0000000000019bf6                ATT_ReadRsp
 .text.ATT_ParseReadBlobReq
                0x0000000000019c28       0x2a e:/Workspace/resistance_band/reistance_band_v0_1/resistance_band/LIB\libCH57xBLE.a(att_server.o)
                0x0000000000019c28                ATT_ParseReadBlobReq
 .text.ATT_ReadBlobRsp
                0x0000000000019c52       0x30 e:/Workspace/resistance_band/reistance_band_v0_1/resistance_band/LIB\libCH57xBLE.a(att_server.o)
                0x0000000000019c52                ATT_ReadBlobRsp
 .text.ATT_ParseReadMultiReq
                0x0000000000019c82       0x1a e:/Workspace/resistance_band/reistance_band_v0_1/resistance_band/LIB\libCH57xBLE.a(att_server.o)
                0x0000000000019c82                ATT_ParseReadMultiReq
 .text.ATT_ReadMultiRsp
                0x0000000000019c9c       0x38 e:/Workspace/resistance_band/reistance_band_v0_1/resistance_band/LIB\libCH57xBLE.a(att_server.o)
                0x0000000000019c9c                ATT_ReadMultiRsp
 .text.ATT_ReadByGrpTypeRsp
                0x0000000000019cd4       0x42 e:/Workspace/resistance_band/reistance_band_v0_1/resistance_band/LIB\libCH57xBLE.a(att_server.o)
                0x0000000000019cd4                ATT_ReadByGrpTypeRsp
 .text.ATT_ParseWriteReq
                0x0000000000019d16       0x3e e:/Workspace/resistance_band/reistance_band_v0_1/resistance_band/LIB\libCH57xBLE.a(att_server.o)
                0x0000000000019d16                ATT_ParseWriteReq
 .text.ATT_WriteRsp
                0x0000000000019d54        0xc e:/Workspace/resistance_band/reistance_band_v0_1/resistance_band/LIB\libCH57xBLE.a(att_server.o)
                0x0000000000019d54                ATT_WriteRsp
 .text.ATT_ParsePrepareWriteReq
                0x0000000000019d60       0x42 e:/Workspace/resistance_band/reistance_band_v0_1/resistance_band/LIB\libCH57xBLE.a(att_server.o)
                0x0000000000019d60                ATT_ParsePrepareWriteReq
 .text.ATT_PrepareWriteRsp
                0x0000000000019da2       0x30 e:/Workspace/resistance_band/reistance_band_v0_1/resistance_band/LIB\libCH57xBLE.a(att_server.o)
                0x0000000000019da2                ATT_PrepareWriteRsp
 .text.ATT_ParseExecuteWriteReq
                0x0000000000019dd2       0x14 e:/Workspace/resistance_band/reistance_band_v0_1/resistance_band/LIB\libCH57xBLE.a(att_server.o)
                0x0000000000019dd2                ATT_ParseExecuteWriteReq
 .text.ATT_ExecuteWriteRsp
                0x0000000000019de6        0xc e:/Workspace/resistance_band/reistance_band_v0_1/resistance_band/LIB\libCH57xBLE.a(att_server.o)
                0x0000000000019de6                ATT_ExecuteWriteRsp
 .text.ATT_HandleValueNoti
                0x0000000000019df2       0x32 e:/Workspace/resistance_band/reistance_band_v0_1/resistance_band/LIB\libCH57xBLE.a(att_server.o)
                0x0000000000019df2                ATT_HandleValueNoti
 .text.ATT_HandleValueInd
                0x0000000000019e24       0x32 e:/Workspace/resistance_band/reistance_band_v0_1/resistance_band/LIB\libCH57xBLE.a(att_server.o)
                0x0000000000019e24                ATT_HandleValueInd
 .text.ll_get_prime_number
                0x0000000000019e56       0x3c e:/Workspace/resistance_band/reistance_band_v0_1/resistance_band/LIB\libCH57xBLE.a(ll.o)
                0x0000000000019e56                ll_get_prime_number
 .text.LL_ProcessEvent
                0x0000000000019e92      0x130 e:/Workspace/resistance_band/reistance_band_v0_1/resistance_band/LIB\libCH57xBLE.a(ll.o)
                0x0000000000019e92                LL_ProcessEvent
 .text.LL_Init  0x0000000000019fc2       0xb2 e:/Workspace/resistance_band/reistance_band_v0_1/resistance_band/LIB\libCH57xBLE.a(ll.o)
                0x0000000000019fc2                LL_Init
 .text.llAdvertiseSet
                0x000000000001a074      0x152 e:/Workspace/resistance_band/reistance_band_v0_1/resistance_band/LIB\libCH57xBLE.a(ll_advertise.o)
                0x000000000001a074                llAdvertiseSet
 .text.llAdvertiseCreateCore
                0x000000000001a1c6       0x78 e:/Workspace/resistance_band/reistance_band_v0_1/resistance_band/LIB\libCH57xBLE.a(ll_advertise.o)
 .text.ll_advertise_tx
                0x000000000001a23e      0x280 e:/Workspace/resistance_band/reistance_band_v0_1/resistance_band/LIB\libCH57xBLE.a(ll_advertise.o)
 .text.llAdvTraverseallChannel
                0x000000000001a4be       0x88 e:/Workspace/resistance_band/reistance_band_v0_1/resistance_band/LIB\libCH57xBLE.a(ll_advertise.o)
                0x000000000001a4be                llAdvTraverseallChannel
 .text.llAdvertiseStart
                0x000000000001a546       0xde e:/Workspace/resistance_band/reistance_band_v0_1/resistance_band/LIB\libCH57xBLE.a(ll_advertise.o)
                0x000000000001a546                llAdvertiseStart
 .text.ll_advertise_filter
                0x000000000001a624      0x156 e:/Workspace/resistance_band/reistance_band_v0_1/resistance_band/LIB\libCH57xBLE.a(ll_advertise.o)
                0x000000000001a624                ll_advertise_filter
 .text.LL_AdvertiseToStandby
                0x000000000001a77a       0x7e e:/Workspace/resistance_band/reistance_band_v0_1/resistance_band/LIB\libCH57xBLE.a(ll_advertise.o)
                0x000000000001a77a                LL_AdvertiseToStandby
 .text.ll_advertise_process
                0x000000000001a7f8      0x434 e:/Workspace/resistance_band/reistance_band_v0_1/resistance_band/LIB\libCH57xBLE.a(ll_advertise.o)
                0x000000000001a7f8                ll_advertise_process
 .text.LL_AdvertiseDirectTimeout
                0x000000000001ac2c       0x1a e:/Workspace/resistance_band/reistance_band_v0_1/resistance_band/LIB\libCH57xBLE.a(ll_advertise.o)
                0x000000000001ac2c                LL_AdvertiseDirectTimeout
 .text.LL_AdvertiseEnalbe
                0x000000000001ac46       0x46 e:/Workspace/resistance_band/reistance_band_v0_1/resistance_band/LIB\libCH57xBLE.a(ll_advertise.o)
                0x000000000001ac46                LL_AdvertiseEnalbe
 .text.LL_InitiateToStandby
                0x000000000001ac8c       0x94 e:/Workspace/resistance_band/reistance_band_v0_1/resistance_band/LIB\libCH57xBLE.a(ll_initiate.o)
                0x000000000001ac8c                LL_InitiateToStandby
 .text.ll_resolvinglist_checkRPA
                0x000000000001ad20       0x6c e:/Workspace/resistance_band/reistance_band_v0_1/resistance_band/LIB\libCH57xBLE.a(ll_resolvinglist.o)
                0x000000000001ad20                ll_resolvinglist_checkRPA
 .text.ll_resolvinglist_renew_rpa
                0x000000000001ad8c       0x4a e:/Workspace/resistance_band/reistance_band_v0_1/resistance_band/LIB\libCH57xBLE.a(ll_resolvinglist.o)
                0x000000000001ad8c                ll_resolvinglist_renew_rpa
 .text.ll_resolvinglist_renew_set
                0x000000000001add6       0x12 e:/Workspace/resistance_band/reistance_band_v0_1/resistance_band/LIB\libCH57xBLE.a(ll_resolvinglist.o)
                0x000000000001add6                ll_resolvinglist_renew_set
 .text.ll_resolvinglist_timeout_renew_rpa
                0x000000000001ade8       0x58 e:/Workspace/resistance_band/reistance_band_v0_1/resistance_band/LIB\libCH57xBLE.a(ll_resolvinglist.o)
                0x000000000001ade8                ll_resolvinglist_timeout_renew_rpa
 .text.LL_ResolvinglistAdd
                0x000000000001ae40      0x146 e:/Workspace/resistance_band/reistance_band_v0_1/resistance_band/LIB\libCH57xBLE.a(ll_resolvinglist.o)
                0x000000000001ae40                LL_ResolvinglistAdd
 .text.LL_ResolvinglistClearall
                0x000000000001af86       0x52 e:/Workspace/resistance_band/reistance_band_v0_1/resistance_band/LIB\libCH57xBLE.a(ll_resolvinglist.o)
                0x000000000001af86                LL_ResolvinglistClearall
 .text.LL_ResolvinglistPeerIdentifyAddressGetIrk
                0x000000000001afd8       0x52 e:/Workspace/resistance_band/reistance_band_v0_1/resistance_band/LIB\libCH57xBLE.a(ll_resolvinglist.o)
                0x000000000001afd8                LL_ResolvinglistPeerIdentifyAddressGetIrk
 .text.LL_ResolvinglistPeerRpaAddressGetIrk
                0x000000000001b02a       0x3c e:/Workspace/resistance_band/reistance_band_v0_1/resistance_band/LIB\libCH57xBLE.a(ll_resolvinglist.o)
                0x000000000001b02a                LL_ResolvinglistPeerRpaAddressGetIrk
 .text.LL_ResolvinglistInit
                0x000000000001b066       0x12 e:/Workspace/resistance_band/reistance_band_v0_1/resistance_band/LIB\libCH57xBLE.a(ll_resolvinglist.o)
                0x000000000001b066                LL_ResolvinglistInit
 .text.LL_AddrGenerateResolvableAddress
                0x000000000001b078       0x9c e:/Workspace/resistance_band/reistance_band_v0_1/resistance_band/LIB\libCH57xBLE.a(ll_address.o)
                0x000000000001b078                LL_AddrGenerateResolvableAddress
 .text.LL_AddrInit
                0x000000000001b114      0x12e e:/Workspace/resistance_band/reistance_band_v0_1/resistance_band/LIB\libCH57xBLE.a(ll_address.o)
                0x000000000001b114                LL_AddrInit
 .text.__lshrdi3
                0x000000000001b242       0x2c d:/mounriver/mounriver_studio2/resources/app/resources/win32/components/wch/toolchain/risc-v embedded gcc/bin/../lib/gcc/riscv-none-embed/8.2.0/rv32imac/ilp32\libgcc.a(_lshrdi3.o)
                0x000000000001b242                __lshrdi3
 .text.__udivdi3
                0x000000000001b26e      0x398 d:/mounriver/mounriver_studio2/resources/app/resources/win32/components/wch/toolchain/risc-v embedded gcc/bin/../lib/gcc/riscv-none-embed/8.2.0/rv32imac/ilp32\libgcc.a(_udivdi3.o)
                0x000000000001b26e                __udivdi3
 .text.__muldf3
                0x000000000001b606      0x4b4 d:/mounriver/mounriver_studio2/resources/app/resources/win32/components/wch/toolchain/risc-v embedded gcc/bin/../lib/gcc/riscv-none-embed/8.2.0/rv32imac/ilp32\libgcc.a(muldf3.o)
                0x000000000001b606                __muldf3
 .text.__floatsidf
                0x000000000001baba       0x70 d:/mounriver/mounriver_studio2/resources/app/resources/win32/components/wch/toolchain/risc-v embedded gcc/bin/../lib/gcc/riscv-none-embed/8.2.0/rv32imac/ilp32\libgcc.a(floatsidf.o)
                0x000000000001baba                __floatsidf
 .text.__mulsf3
                0x000000000001bb2a      0x290 d:/mounriver/mounriver_studio2/resources/app/resources/win32/components/wch/toolchain/risc-v embedded gcc/bin/../lib/gcc/riscv-none-embed/8.2.0/rv32imac/ilp32\libgcc.a(mulsf3.o)
                0x000000000001bb2a                __mulsf3
 .text.__fixsfsi
                0x000000000001bdba       0x62 d:/mounriver/mounriver_studio2/resources/app/resources/win32/components/wch/toolchain/risc-v embedded gcc/bin/../lib/gcc/riscv-none-embed/8.2.0/rv32imac/ilp32\libgcc.a(fixsfsi.o)
                0x000000000001bdba                __fixsfsi
 .text.__floatsisf
                0x000000000001be1c       0xc6 d:/mounriver/mounriver_studio2/resources/app/resources/win32/components/wch/toolchain/risc-v embedded gcc/bin/../lib/gcc/riscv-none-embed/8.2.0/rv32imac/ilp32\libgcc.a(floatsisf.o)
                0x000000000001be1c                __floatsisf
 .text.__truncdfsf2
                0x000000000001bee2      0x16a d:/mounriver/mounriver_studio2/resources/app/resources/win32/components/wch/toolchain/risc-v embedded gcc/bin/../lib/gcc/riscv-none-embed/8.2.0/rv32imac/ilp32\libgcc.a(truncdfsf2.o)
                0x000000000001bee2                __truncdfsf2
 .text.__clzsi2
                0x000000000001c04c       0x76 d:/mounriver/mounriver_studio2/resources/app/resources/win32/components/wch/toolchain/risc-v embedded gcc/bin/../lib/gcc/riscv-none-embed/8.2.0/rv32imac/ilp32\libgcc.a(_clzsi2.o)
                0x000000000001c04c                __clzsi2
 .text.memcpy   0x000000000001c0c2       0xb6 d:/mounriver/mounriver_studio2/resources/app/resources/win32/components/wch/toolchain/risc-v embedded gcc/bin/../lib/gcc/riscv-none-embed/8.2.0/../../../../riscv-none-embed/lib/rv32imac/ilp32\libg_nano.a(lib_a-memcpy.o)
                0x000000000001c0c2                memcpy
 *(.rodata)
 *(.rodata*)
 .rodata.Calibration_LSI_FLASH.cst4
                0x000000000001c178        0x4 ./StdPeriphDriver/CH57x_clk.o
 *fill*         0x000000000001c17c        0x4 
 .rodata.Calibration_LSI_FLASH.cst8
                0x000000000001c180       0x10 ./StdPeriphDriver/CH57x_clk.o
 .rodata.GPIOA_ModeCfg
                0x000000000001c190       0x14 ./StdPeriphDriver/CH57x_gpio.o
 .rodata.devInfo11073Cert
                0x000000000001c1a4        0xe ./Profile/devinfoservice.o
 *fill*         0x000000000001c1b2        0x2 
 .rodata.devInfoFirmwareRev
                0x000000000001c1b4       0x12 ./Profile/devinfoservice.o
 *fill*         0x000000000001c1c6        0x2 
 .rodata.devInfoHardwareRev
                0x000000000001c1c8       0x12 ./Profile/devinfoservice.o
 *fill*         0x000000000001c1da        0x2 
 .rodata.devInfoMfrName
                0x000000000001c1dc       0x12 ./Profile/devinfoservice.o
 *fill*         0x000000000001c1ee        0x2 
 .rodata.devInfoModelNumber
                0x000000000001c1f0        0xd ./Profile/devinfoservice.o
 *fill*         0x000000000001c1fd        0x3 
 .rodata.devInfoSerialNumber
                0x000000000001c200        0xe ./Profile/devinfoservice.o
 *fill*         0x000000000001c20e        0x2 
 .rodata.devInfoSoftwareRev
                0x000000000001c210       0x12 ./Profile/devinfoservice.o
 *fill*         0x000000000001c222        0x2 
 .rodata.HalLedSet
                0x000000000001c224       0x24 ./HAL/LED.o
 .rodata.CH57X_BLEInit.str1.4
                0x000000000001c248       0x14 ./HAL/MCU.o
                                         0x13 (size before relaxing)
 .rodata.GGS_SetParameter
                0x000000000001c25c       0x28 e:/Workspace/resistance_band/reistance_band_v0_1/resistance_band/LIB\libCH57xBLE.a(gapgattserver.o)
 .rodata.GAP_DeviceInit
                0x000000000001c284       0x30 e:/Workspace/resistance_band/reistance_band_v0_1/resistance_band/LIB\libCH57xBLE.a(gapgattserver.o)
 .rodata.serverReqTbl
                0x000000000001c2b4       0x60 e:/Workspace/resistance_band/reistance_band_v0_1/resistance_band/LIB\libCH57xBLE.a(gattservapp.o)
                0x000000000001c2b4                serverReqTbl
 .rodata.smpInitiatorProcessIncoming
                0x000000000001c314       0x28 e:/Workspace/resistance_band/reistance_band_v0_1/resistance_band/LIB\libCH57xBLE.a(sm.o)
 .rodata.smProcessDataMsg
                0x000000000001c33c       0x2c e:/Workspace/resistance_band/reistance_band_v0_1/resistance_band/LIB\libCH57xBLE.a(sm.o)
 .rodata.smpResponderProcessIncoming
                0x000000000001c368       0x28 e:/Workspace/resistance_band/reistance_band_v0_1/resistance_band/LIB\libCH57xBLE.a(sm.o)
 .rodata.IOCapMatrix
                0x000000000001c390       0x19 e:/Workspace/resistance_band/reistance_band_v0_1/resistance_band/LIB\libCH57xBLE.a(sm.o)
                0x000000000001c390                IOCapMatrix
 *fill*         0x000000000001c3a9        0x3 
 .rodata.const_Rb
                0x000000000001c3ac       0x10 e:/Workspace/resistance_band/reistance_band_v0_1/resistance_band/LIB\libCH57xBLE.a(sm.o)
                0x000000000001c3ac                const_Rb
 .rodata.SCA    0x000000000001c3bc       0x10 e:/Workspace/resistance_band/reistance_band_v0_1/resistance_band/LIB\libCH57xBLE.a(ll_slave.o)
                0x000000000001c3bc                SCA
 .rodata.VER_LIB
                0x000000000001c3cc       0x14 e:/Workspace/resistance_band/reistance_band_v0_1/resistance_band/LIB\libCH57xBLE.a(ip.o)
                0x000000000001c3cc                VER_LIB
 .rodata.GAPBondMgr_GetParameter
                0x000000000001c3e0       0x80 e:/Workspace/resistance_band/reistance_band_v0_1/resistance_band/LIB\libCH57xBLE.a(gapbondmgr.o)
 .rodata.GAPBondMgr_SetParameter
                0x000000000001c460       0x84 e:/Workspace/resistance_band/reistance_band_v0_1/resistance_band/LIB\libCH57xBLE.a(gapbondmgr.o)
 .rodata.GAPBondMgr_ProcessGAPMsg
                0x000000000001c4e4       0x28 e:/Workspace/resistance_band/reistance_band_v0_1/resistance_band/LIB\libCH57xBLE.a(gapbondmgr.o)
 .rodata.gapRole_PeripheralProcessTMOSMsg
                0x000000000001c50c       0x20 e:/Workspace/resistance_band/reistance_band_v0_1/resistance_band/LIB\libCH57xBLE.a(peripheral.o)
 .rodata.GAPRole_GetParameter
                0x000000000001c52c       0x4c e:/Workspace/resistance_band/reistance_band_v0_1/resistance_band/LIB\libCH57xBLE.a(role.o)
 .rodata.GAPRole_SetParameter
                0x000000000001c578       0x48 e:/Workspace/resistance_band/reistance_band_v0_1/resistance_band/LIB\libCH57xBLE.a(role.o)
 .rodata.btBaseUUID
                0x000000000001c5c0       0x10 e:/Workspace/resistance_band/reistance_band_v0_1/resistance_band/LIB\libCH57xBLE.a(att.o)
                0x000000000001c5c0                btBaseUUID
 .rodata.PrimeNumber
                0x000000000001c5d0       0x17 e:/Workspace/resistance_band/reistance_band_v0_1/resistance_band/LIB\libCH57xBLE.a(ll.o)
                0x000000000001c5d0                PrimeNumber
 *fill*         0x000000000001c5e7        0x1 
 .rodata.__muldf3
                0x000000000001c5e8       0x40 d:/mounriver/mounriver_studio2/resources/app/resources/win32/components/wch/toolchain/risc-v embedded gcc/bin/../lib/gcc/riscv-none-embed/8.2.0/rv32imac/ilp32\libgcc.a(muldf3.o)
 .rodata.__mulsf3
                0x000000000001c628       0x40 d:/mounriver/mounriver_studio2/resources/app/resources/win32/components/wch/toolchain/risc-v embedded gcc/bin/../lib/gcc/riscv-none-embed/8.2.0/rv32imac/ilp32\libgcc.a(mulsf3.o)
 .rodata.__clz_tab
                0x000000000001c668      0x100 d:/mounriver/mounriver_studio2/resources/app/resources/win32/components/wch/toolchain/risc-v embedded gcc/bin/../lib/gcc/riscv-none-embed/8.2.0/rv32imac/ilp32\libgcc.a(_clz.o)
                0x000000000001c668                __clz_tab
 *(.sdata2.*)
 .sdata2.battLevelUUID
                0x000000000001c768        0x2 ./Profile/battservice.o
                0x000000000001c768                battLevelUUID
 *fill*         0x000000000001c76a        0x2 
 .sdata2.battServUUID
                0x000000000001c76c        0x2 ./Profile/battservice.o
                0x000000000001c76c                battServUUID
 *fill*         0x000000000001c76e        0x2 
 .sdata2.battService
                0x000000000001c770        0x8 ./Profile/battservice.o
 .sdata2.devInfo11073CertUUID
                0x000000000001c778        0x2 ./Profile/devinfoservice.o
                0x000000000001c778                devInfo11073CertUUID
 *fill*         0x000000000001c77a        0x2 
 .sdata2.devInfoFirmwareRevUUID
                0x000000000001c77c        0x2 ./Profile/devinfoservice.o
                0x000000000001c77c                devInfoFirmwareRevUUID
 *fill*         0x000000000001c77e        0x2 
 .sdata2.devInfoHardwareRevUUID
                0x000000000001c780        0x2 ./Profile/devinfoservice.o
                0x000000000001c780                devInfoHardwareRevUUID
 *fill*         0x000000000001c782        0x2 
 .sdata2.devInfoMfrNameUUID
                0x000000000001c784        0x2 ./Profile/devinfoservice.o
                0x000000000001c784                devInfoMfrNameUUID
 *fill*         0x000000000001c786        0x2 
 .sdata2.devInfoModelNumberUUID
                0x000000000001c788        0x2 ./Profile/devinfoservice.o
                0x000000000001c788                devInfoModelNumberUUID
 *fill*         0x000000000001c78a        0x2 
 .sdata2.devInfoPnpIdUUID
                0x000000000001c78c        0x2 ./Profile/devinfoservice.o
                0x000000000001c78c                devInfoPnpIdUUID
 *fill*         0x000000000001c78e        0x2 
 .sdata2.devInfoSerialNumberUUID
                0x000000000001c790        0x2 ./Profile/devinfoservice.o
                0x000000000001c790                devInfoSerialNumberUUID
 *fill*         0x000000000001c792        0x2 
 .sdata2.devInfoServUUID
                0x000000000001c794        0x2 ./Profile/devinfoservice.o
                0x000000000001c794                devInfoServUUID
 *fill*         0x000000000001c796        0x2 
 .sdata2.devInfoService
                0x000000000001c798        0x8 ./Profile/devinfoservice.o
 .sdata2.devInfoSoftwareRevUUID
                0x000000000001c7a0        0x2 ./Profile/devinfoservice.o
                0x000000000001c7a0                devInfoSoftwareRevUUID
 *fill*         0x000000000001c7a2        0x2 
 .sdata2.devInfoSystemIdUUID
                0x000000000001c7a4        0x2 ./Profile/devinfoservice.o
                0x000000000001c7a4                devInfoSystemIdUUID
 *fill*         0x000000000001c7a6        0x2 
 .sdata2.resBandCommandUUID
                0x000000000001c7a8        0x2 ./Profile/resbandservice.o
                0x000000000001c7a8                resBandCommandUUID
 *fill*         0x000000000001c7aa        0x2 
 .sdata2.resBandMeasUUID
                0x000000000001c7ac        0x2 ./Profile/resbandservice.o
                0x000000000001c7ac                resBandMeasUUID
 *fill*         0x000000000001c7ae        0x2 
 .sdata2.resBandSensLocUUID
                0x000000000001c7b0        0x2 ./Profile/resbandservice.o
                0x000000000001c7b0                resBandSensLocUUID
 *fill*         0x000000000001c7b2        0x2 
 .sdata2.resBandServUUID
                0x000000000001c7b4        0x2 ./Profile/resbandservice.o
                0x000000000001c7b4                resBandServUUID
 *fill*         0x000000000001c7b6        0x2 
 .sdata2.resBandService
                0x000000000001c7b8        0x8 ./Profile/resbandservice.o
 .sdata2.gapService
                0x000000000001c7c0        0x8 e:/Workspace/resistance_band/reistance_band_v0_1/resistance_band/LIB\libCH57xBLE.a(gapgattserver.o)
 .sdata2.appearanceUUID
                0x000000000001c7c8        0x2 e:/Workspace/resistance_band/reistance_band_v0_1/resistance_band/LIB\libCH57xBLE.a(gatt_uuid.o)
                0x000000000001c7c8                appearanceUUID
 *fill*         0x000000000001c7ca        0x2 
 .sdata2.centAddrResUUID
                0x000000000001c7cc        0x2 e:/Workspace/resistance_band/reistance_band_v0_1/resistance_band/LIB\libCH57xBLE.a(gatt_uuid.o)
                0x000000000001c7cc                centAddrResUUID
 *fill*         0x000000000001c7ce        0x2 
 .sdata2.characterUUID
                0x000000000001c7d0        0x2 e:/Workspace/resistance_band/reistance_band_v0_1/resistance_band/LIB\libCH57xBLE.a(gatt_uuid.o)
                0x000000000001c7d0                characterUUID
 *fill*         0x000000000001c7d2        0x2 
 .sdata2.clientCharCfgUUID
                0x000000000001c7d4        0x2 e:/Workspace/resistance_band/reistance_band_v0_1/resistance_band/LIB\libCH57xBLE.a(gatt_uuid.o)
                0x000000000001c7d4                clientCharCfgUUID
 *fill*         0x000000000001c7d6        0x2 
 .sdata2.deviceNameUUID
                0x000000000001c7d8        0x2 e:/Workspace/resistance_band/reistance_band_v0_1/resistance_band/LIB\libCH57xBLE.a(gatt_uuid.o)
                0x000000000001c7d8                deviceNameUUID
 *fill*         0x000000000001c7da        0x2 
 .sdata2.gapServiceUUID
                0x000000000001c7dc        0x2 e:/Workspace/resistance_band/reistance_band_v0_1/resistance_band/LIB\libCH57xBLE.a(gatt_uuid.o)
                0x000000000001c7dc                gapServiceUUID
 *fill*         0x000000000001c7de        0x2 
 .sdata2.gattServiceUUID
                0x000000000001c7e0        0x2 e:/Workspace/resistance_band/reistance_band_v0_1/resistance_band/LIB\libCH57xBLE.a(gatt_uuid.o)
                0x000000000001c7e0                gattServiceUUID
 *fill*         0x000000000001c7e2        0x2 
 .sdata2.periConnParamUUID
                0x000000000001c7e4        0x2 e:/Workspace/resistance_band/reistance_band_v0_1/resistance_band/LIB\libCH57xBLE.a(gatt_uuid.o)
                0x000000000001c7e4                periConnParamUUID
 *fill*         0x000000000001c7e6        0x2 
 .sdata2.primaryServiceUUID
                0x000000000001c7e8        0x2 e:/Workspace/resistance_band/reistance_band_v0_1/resistance_band/LIB\libCH57xBLE.a(gatt_uuid.o)
                0x000000000001c7e8                primaryServiceUUID
 *fill*         0x000000000001c7ea        0x2 
 .sdata2.reportRefUUID
                0x000000000001c7ec        0x2 e:/Workspace/resistance_band/reistance_band_v0_1/resistance_band/LIB\libCH57xBLE.a(gatt_uuid.o)
                0x000000000001c7ec                reportRefUUID
 *fill*         0x000000000001c7ee        0x2 
 .sdata2.secondaryServiceUUID
                0x000000000001c7f0        0x2 e:/Workspace/resistance_band/reistance_band_v0_1/resistance_band/LIB\libCH57xBLE.a(gatt_uuid.o)
                0x000000000001c7f0                secondaryServiceUUID
 *fill*         0x000000000001c7f2        0x2 
 .sdata2.serviceChangedUUID
                0x000000000001c7f4        0x2 e:/Workspace/resistance_band/reistance_band_v0_1/resistance_band/LIB\libCH57xBLE.a(gatt_uuid.o)
                0x000000000001c7f4                serviceChangedUUID
 *(.glue_7)
 *(.glue_7t)
 *(.gnu.linkonce.t.*)
                0x000000000001c7f8                . = ALIGN (0x4)
 *fill*         0x000000000001c7f6        0x2 

.rela.dyn       0x000000000001c7f8        0x0
 .rela.init     0x000000000001c7f8        0x0 ./StdPeriphDriver/CH57x_adc.o
 .rela.vector   0x000000000001c7f8        0x0 ./StdPeriphDriver/CH57x_adc.o
 .rela.handle_reset
                0x000000000001c7f8        0x0 ./StdPeriphDriver/CH57x_adc.o

.fini           0x000000000001c7f8        0x0
 *(SORT_NONE(.fini))
                0x000000000001c7f8                . = ALIGN (0x4)
                [!provide]                        PROVIDE (_etext = .)
                [!provide]                        PROVIDE (_eitcm = .)

.preinit_array  0x000000000001c7f8        0x0
                [!provide]                        PROVIDE (__preinit_array_start = .)
 *(.preinit_array)
                [!provide]                        PROVIDE (__preinit_array_end = .)

.init_array     0x000000000001c7f8        0x0
                [!provide]                        PROVIDE (__init_array_start = .)
 *(SORT_BY_INIT_PRIORITY(.init_array.*) SORT_BY_INIT_PRIORITY(.ctors.*))
 *(.init_array EXCLUDE_FILE(*crtend?.o *crtend.o *crtbegin?.o *crtbegin.o) .ctors)
                [!provide]                        PROVIDE (__init_array_end = .)

.fini_array     0x000000000001c7f8        0x0
                [!provide]                        PROVIDE (__fini_array_start = .)
 *(SORT_BY_INIT_PRIORITY(.fini_array.*) SORT_BY_INIT_PRIORITY(.dtors.*))
 *(.fini_array EXCLUDE_FILE(*crtend?.o *crtend.o *crtbegin?.o *crtbegin.o) .dtors)
                [!provide]                        PROVIDE (__fini_array_end = .)

.ctors
 *crtbegin.o(.ctors)
 *crtbegin?.o(.ctors)
 *(EXCLUDE_FILE(*crtend?.o *crtend.o) .ctors)
 *(SORT_BY_NAME(.ctors.*))
 *(.ctors)

.dtors
 *crtbegin.o(.dtors)
 *crtbegin?.o(.dtors)
 *(EXCLUDE_FILE(*crtend?.o *crtend.o) .dtors)
 *(SORT_BY_NAME(.dtors.*))
 *(.dtors)

.dalign         0x00000000200049c4        0x0 load address 0x000000000001c7f8
                0x00000000200049c4                . = (ORIGIN (RAM) + MAX (0x800, SIZEOF (.highcode)))

.dlalign        0x000000000001c7f8        0x0
                0x000000000001c7f8                . = ALIGN (0x4)
                0x000000000001c7f8                PROVIDE (_data_lma = .)

.data           0x00000000200049c4      0x3c4 load address 0x000000000001c7f8
                0x00000000200049c4                . = ALIGN (0x4)
                0x00000000200049c4                PROVIDE (_data_vma = .)
 *(.gnu.linkonce.r.*)
 *(.data .data.*)
 .data.battAttrTbl
                0x00000000200049c4       0x50 ./Profile/battservice.o
 .data.battCBs  0x0000000020004a14        0xc ./Profile/battservice.o
                0x0000000020004a14                battCBs
 .data.devInfoAttrTbl
                0x0000000020004a20      0x130 ./Profile/devinfoservice.o
 .data.devInfoCBs
                0x0000000020004b50        0xc ./Profile/devinfoservice.o
                0x0000000020004b50                devInfoCBs
 .data.resBandAttrTbl
                0x0000000020004b5c       0x80 ./Profile/resbandservice.o
 .data.resBandCBs
                0x0000000020004bdc        0xc ./Profile/resbandservice.o
                0x0000000020004bdc                resBandCBs
 .data.advertData
                0x0000000020004be8        0x9 ./APP/resband.o
 *fill*         0x0000000020004bf1        0x3 
 .data.attDeviceName
                0x0000000020004bf4       0x15 ./APP/resband.o
 *fill*         0x0000000020004c09        0x3 
 .data.resBandPeripheralCB
                0x0000000020004c0c        0xc ./APP/resband.o
 .data.scanRspData
                0x0000000020004c18       0x10 ./APP/resband.o
 .data.gapAttrTbl
                0x0000000020004c28       0x90 e:/Workspace/resistance_band/reistance_band_v0_1/resistance_band/LIB\libCH57xBLE.a(gapgattserver.o)
 .data.gapServiceCBs
                0x0000000020004cb8        0xc e:/Workspace/resistance_band/reistance_band_v0_1/resistance_band/LIB\libCH57xBLE.a(gapgattserver.o)
                0x0000000020004cb8                gapServiceCBs
 .data.gattAttrTbl
                0x0000000020004cc4       0x40 e:/Workspace/resistance_band/reistance_band_v0_1/resistance_band/LIB\libCH57xBLE.a(gattservapp.o)
 .data.gattServiceCBs
                0x0000000020004d04        0xc e:/Workspace/resistance_band/reistance_band_v0_1/resistance_band/LIB\libCH57xBLE.a(gattservapp.o)
 .data.smInitiatorCBs
                0x0000000020004d10        0xc e:/Workspace/resistance_band/reistance_band_v0_1/resistance_band/LIB\libCH57xBLE.a(sm.o)
                0x0000000020004d10                smInitiatorCBs
 .data.smResponderCBs
                0x0000000020004d1c        0xc e:/Workspace/resistance_band/reistance_band_v0_1/resistance_band/LIB\libCH57xBLE.a(sm.o)
                0x0000000020004d1c                smResponderCBs
 *(.gnu.linkonce.d.*)
                0x0000000020004d28                . = ALIGN (0x8)
 *fill*         0x0000000020004d28        0x0 
                0x0000000020005528                PROVIDE (__global_pointer$ = (. + 0x800))
 *(.sdata .sdata.*)
 .sdata.battLevel
                0x0000000020004d28        0x1 ./Profile/battservice.o
 .sdata.battLevelProps
                0x0000000020004d29        0x1 ./Profile/battservice.o
 .sdata.battMaxLevel
                0x0000000020004d2a        0x2 ./Profile/battservice.o
 .sdata.battMinLevel
                0x0000000020004d2c        0x2 ./Profile/battservice.o
 *fill*         0x0000000020004d2e        0x2 
 .sdata.hidReportRefBattLevel
                0x0000000020004d30        0x2 ./Profile/battservice.o
 .sdata.devInfo11073CertProps
                0x0000000020004d32        0x1 ./Profile/devinfoservice.o
 .sdata.devInfoFirmwareRevProps
                0x0000000020004d33        0x1 ./Profile/devinfoservice.o
 .sdata.devInfoHardwareRevProps
                0x0000000020004d34        0x1 ./Profile/devinfoservice.o
 .sdata.devInfoMfrNameProps
                0x0000000020004d35        0x1 ./Profile/devinfoservice.o
 .sdata.devInfoModelNumberProps
                0x0000000020004d36        0x1 ./Profile/devinfoservice.o
 *fill*         0x0000000020004d37        0x1 
 .sdata.devInfoPnpId
                0x0000000020004d38        0x7 ./Profile/devinfoservice.o
 .sdata.devInfoPnpIdProps
                0x0000000020004d3f        0x1 ./Profile/devinfoservice.o
 .sdata.devInfoSerialNumberProps
                0x0000000020004d40        0x1 ./Profile/devinfoservice.o
 .sdata.devInfoSoftwareRevProps
                0x0000000020004d41        0x1 ./Profile/devinfoservice.o
 .sdata.devInfoSystemIdProps
                0x0000000020004d42        0x1 ./Profile/devinfoservice.o
 .sdata.resBandCommandProps
                0x0000000020004d43        0x1 ./Profile/resbandservice.o
 .sdata.resBandMeasProps
                0x0000000020004d44        0x1 ./Profile/resbandservice.o
 .sdata.resBandSensLocProps
                0x0000000020004d45        0x1 ./Profile/resbandservice.o
 *fill*         0x0000000020004d46        0x2 
 .sdata.holdrand.5456
                0x0000000020004d48        0x4 e:/Workspace/resistance_band/reistance_band_v0_1/resistance_band/LIB\libCH57xBLE.a(tmos.o)
 .sdata.gapAdvAppTaskID
                0x0000000020004d4c        0x1 e:/Workspace/resistance_band/reistance_band_v0_1/resistance_band/LIB\libCH57xBLE.a(gap_peripheral.o)
 .sdata.appearanceCharProps
                0x0000000020004d4d        0x1 e:/Workspace/resistance_band/reistance_band_v0_1/resistance_band/LIB\libCH57xBLE.a(gapgattserver.o)
 .sdata.centAddrRes
                0x0000000020004d4e        0x1 e:/Workspace/resistance_band/reistance_band_v0_1/resistance_band/LIB\libCH57xBLE.a(gapgattserver.o)
 .sdata.centAddrResCharProps
                0x0000000020004d4f        0x1 e:/Workspace/resistance_band/reistance_band_v0_1/resistance_band/LIB\libCH57xBLE.a(gapgattserver.o)
 .sdata.deviceNameCharProps
                0x0000000020004d50        0x1 e:/Workspace/resistance_band/reistance_band_v0_1/resistance_band/LIB\libCH57xBLE.a(gapgattserver.o)
 .sdata.periConnParamCharProps
                0x0000000020004d51        0x1 e:/Workspace/resistance_band/reistance_band_v0_1/resistance_band/LIB\libCH57xBLE.a(gapgattserver.o)
 *fill*         0x0000000020004d52        0x2 
 .sdata.periConnParameters
                0x0000000020004d54        0x8 e:/Workspace/resistance_band/reistance_band_v0_1/resistance_band/LIB\libCH57xBLE.a(gapgattserver.o)
 .sdata.gattCentAppTaskID
                0x0000000020004d5c        0x1 e:/Workspace/resistance_band/reistance_band_v0_1/resistance_band/LIB\libCH57xBLE.a(gatt.o)
 .sdata.gattPeriAppTaskID
                0x0000000020004d5d        0x1 e:/Workspace/resistance_band/reistance_band_v0_1/resistance_band/LIB\libCH57xBLE.a(gatt.o)
 .sdata.GATTServApp_TaskID
                0x0000000020004d5e        0x1 e:/Workspace/resistance_band/reistance_band_v0_1/resistance_band/LIB\libCH57xBLE.a(gattservapp.o)
 .sdata.appTaskID
                0x0000000020004d5f        0x1 e:/Workspace/resistance_band/reistance_band_v0_1/resistance_band/LIB\libCH57xBLE.a(gattservapp.o)
 .sdata.gattService
                0x0000000020004d60        0x8 e:/Workspace/resistance_band/reistance_band_v0_1/resistance_band/LIB\libCH57xBLE.a(gattservapp.o)
 .sdata.nextHandle
                0x0000000020004d68        0x2 e:/Workspace/resistance_band/reistance_band_v0_1/resistance_band/LIB\libCH57xBLE.a(gattservapp.o)
 .sdata.reqTaskId
                0x0000000020004d6a        0x1 e:/Workspace/resistance_band/reistance_band_v0_1/resistance_band/LIB\libCH57xBLE.a(gattservapp.o)
 .sdata.serviceChangedCharProps
                0x0000000020004d6b        0x1 e:/Workspace/resistance_band/reistance_band_v0_1/resistance_band/LIB\libCH57xBLE.a(gattservapp.o)
 .sdata.gapBondCB
                0x0000000020004d6c        0x8 e:/Workspace/resistance_band/reistance_band_v0_1/resistance_band/LIB\libCH57xBLE.a(gapbondmgr.o)
 .sdata.gapBond_Auto
                0x0000000020004d74        0x1 e:/Workspace/resistance_band/reistance_band_v0_1/resistance_band/LIB\libCH57xBLE.a(gapbondmgr.o)
                0x0000000020004d74                gapBond_Auto
 .sdata.gapBond_AutoFailReason
                0x0000000020004d75        0x1 e:/Workspace/resistance_band/reistance_band_v0_1/resistance_band/LIB\libCH57xBLE.a(gapbondmgr.o)
 .sdata.gapBond_BondFailOption
                0x0000000020004d76        0x1 e:/Workspace/resistance_band/reistance_band_v0_1/resistance_band/LIB\libCH57xBLE.a(gapbondmgr.o)
 .sdata.gapBond_Cent_PairingMode
                0x0000000020004d77        0x1 e:/Workspace/resistance_band/reistance_band_v0_1/resistance_band/LIB\libCH57xBLE.a(gapbondmgr.o)
 .sdata.gapBond_Erase
                0x0000000020004d78        0x1 e:/Workspace/resistance_band/reistance_band_v0_1/resistance_band/LIB\libCH57xBLE.a(gapbondmgr.o)
                0x0000000020004d78                gapBond_Erase
 .sdata.gapBond_KeySize
                0x0000000020004d79        0x1 e:/Workspace/resistance_band/reistance_band_v0_1/resistance_band/LIB\libCH57xBLE.a(gapbondmgr.o)
 .sdata.gapBond_Peri_PairingMode
                0x0000000020004d7a        0x1 e:/Workspace/resistance_band/reistance_band_v0_1/resistance_band/LIB\libCH57xBLE.a(gapbondmgr.o)
 .sdata.gapBond_Valid
                0x0000000020004d7b        0x1 e:/Workspace/resistance_band/reistance_band_v0_1/resistance_band/LIB\libCH57xBLE.a(gapbondmgr.o)
                0x0000000020004d7b                gapBond_Valid
 .sdata.gapCentralTaskID
                0x0000000020004d7c        0x1 e:/Workspace/resistance_band/reistance_band_v0_1/resistance_band/LIB\libCH57xBLE.a(role.o)
                0x0000000020004d7c                gapCentralTaskID
 .sdata.gapRole_AdvEnabled
                0x0000000020004d7d        0x1 e:/Workspace/resistance_band/reistance_band_v0_1/resistance_band/LIB\libCH57xBLE.a(role.o)
                0x0000000020004d7d                gapRole_AdvEnabled
 .sdata.gapRole_AdvertDataLen
                0x0000000020004d7e        0x1 e:/Workspace/resistance_band/reistance_band_v0_1/resistance_band/LIB\libCH57xBLE.a(role.o)
                0x0000000020004d7e                gapRole_AdvertDataLen
 *fill*         0x0000000020004d7f        0x1 
 .sdata.gapRole_MaxConnInterval
                0x0000000020004d80        0x2 e:/Workspace/resistance_band/reistance_band_v0_1/resistance_band/LIB\libCH57xBLE.a(role.o)
                0x0000000020004d80                gapRole_MaxConnInterval
 .sdata.gapRole_MinConnInterval
                0x0000000020004d82        0x2 e:/Workspace/resistance_band/reistance_band_v0_1/resistance_band/LIB\libCH57xBLE.a(role.o)
                0x0000000020004d82                gapRole_MinConnInterval
 *(.gnu.linkonce.s.*)
                0x0000000020004d88                . = ALIGN (0x8)
 *fill*         0x0000000020004d84        0x4 
 *(.srodata.cst16)
 *(.srodata.cst8)
 *(.srodata.cst4)
 *(.srodata.cst2)
 *(.srodata .srodata.*)
                0x0000000020004d88                . = ALIGN (0x4)
                0x0000000020004d88                PROVIDE (_edata = .)

.bss            0x0000000020004d88     0x1d38 load address 0x000000000001cbbc
                0x0000000020004d88                . = ALIGN (0x4)
                0x0000000020004d88                PROVIDE (_sbss = .)
 *(.sbss*)
 .sbss.Int32K_Tune_FLASH
                0x0000000020004d88        0x2 ./StdPeriphDriver/CH57x_clk.o
                0x0000000020004d88                Int32K_Tune_FLASH
 .sbss.Int32K_Tune_RAM
                0x0000000020004d8a        0x2 ./StdPeriphDriver/CH57x_clk.o
                0x0000000020004d8a                Int32K_Tune_RAM
 .sbss.battCriticalLevel
                0x0000000020004d8c        0x1 ./Profile/battservice.o
 *fill*         0x0000000020004d8d        0x3 
 .sbss.battServiceCB
                0x0000000020004d90        0x4 ./Profile/battservice.o
 .sbss.battServiceCalcCB
                0x0000000020004d94        0x4 ./Profile/battservice.o
 .sbss.battServiceSetupCB
                0x0000000020004d98        0x4 ./Profile/battservice.o
 .sbss.battServiceTeardownCB
                0x0000000020004d9c        0x4 ./Profile/battservice.o
 .sbss.devInfoSystemId
                0x0000000020004da0        0x8 ./Profile/devinfoservice.o
 .sbss.resBandCommand
                0x0000000020004da8        0x1 ./Profile/resbandservice.o
 .sbss.resBandMeas
                0x0000000020004da9        0x1 ./Profile/resbandservice.o
 .sbss.resBandSensLoc
                0x0000000020004daa        0x1 ./Profile/resbandservice.o
 *fill*         0x0000000020004dab        0x1 
 .sbss.resBandServiceCB
                0x0000000020004dac        0x4 ./Profile/resbandservice.o
 .sbss.HalLedState
                0x0000000020004db0        0x1 ./HAL/LED.o
 .sbss.preBlinkState
                0x0000000020004db1        0x1 ./HAL/LED.o
 .sbss.halTaskID
                0x0000000020004db2        0x1 ./HAL/MCU.o
                0x0000000020004db2                halTaskID
 *fill*         0x0000000020004db3        0x1 
 .sbss.RTCTigFlag
                0x0000000020004db4        0x4 ./HAL/RTC.o
                0x0000000020004db4                RTCTigFlag
 .sbss.gapConnHandle
                0x0000000020004db8        0x2 ./APP/resband.o
 *fill*         0x0000000020004dba        0x2 
 .sbss.gapProfileState
                0x0000000020004dbc        0x4 ./APP/resband.o
 .sbss.isResBandSubscribed
                0x0000000020004dc0        0x1 ./APP/resband.o
 .sbss.resBandAdvCancelled
                0x0000000020004dc1        0x1 ./APP/resband.o
 *fill*         0x0000000020004dc2        0x2 
 .sbss.resBandBondCB
                0x0000000020004dc4        0x8 ./APP/resband.o
 .sbss.resBandMeas
                0x0000000020004dcc        0x8 ./APP/resband.o
 .sbss.resBand_TaskID
                0x0000000020004dd4        0x1 ./APP/resband.o
 *fill*         0x0000000020004dd5        0x3 
 .sbss.msg_qHead
                0x0000000020004dd8        0x4 e:/Workspace/resistance_band/reistance_band_v0_1/resistance_band/LIB\libCH57xBLE.a(message.o)
                0x0000000020004dd8                msg_qHead
 .sbss.EventsArr
                0x0000000020004ddc        0x4 e:/Workspace/resistance_band/reistance_band_v0_1/resistance_band/LIB\libCH57xBLE.a(tmos.o)
                0x0000000020004ddc                EventsArr
 .sbss.Tune32K_FLASH
                0x0000000020004de0        0x2 e:/Workspace/resistance_band/reistance_band_v0_1/resistance_band/LIB\libCH57xBLE.a(tmos.o)
                0x0000000020004de0                Tune32K_FLASH
 .sbss.Tune32K_RAM
                0x0000000020004de2        0x2 e:/Workspace/resistance_band/reistance_band_v0_1/resistance_band/LIB\libCH57xBLE.a(tmos.o)
                0x0000000020004de2                Tune32K_RAM
 .sbss.cbTimersHead
                0x0000000020004de4        0x4 e:/Workspace/resistance_band/reistance_band_v0_1/resistance_band/LIB\libCH57xBLE.a(tmos.o)
                0x0000000020004de4                cbTimersHead
 .sbss.eventsClear
                0x0000000020004de8        0x2 e:/Workspace/resistance_band/reistance_band_v0_1/resistance_band/LIB\libCH57xBLE.a(tmos.o)
                0x0000000020004de8                eventsClear
 *fill*         0x0000000020004dea        0x2 
 .sbss.pfnTimerCBs
                0x0000000020004dec        0x4 e:/Workspace/resistance_band/reistance_band_v0_1/resistance_band/LIB\libCH57xBLE.a(tmos.o)
                0x0000000020004dec                pfnTimerCBs
 .sbss.taskHead
                0x0000000020004df0        0x4 e:/Workspace/resistance_band/reistance_band_v0_1/resistance_band/LIB\libCH57xBLE.a(tmos.o)
                0x0000000020004df0                taskHead
 .sbss.tasksArr
                0x0000000020004df4        0x4 e:/Workspace/resistance_band/reistance_band_v0_1/resistance_band/LIB\libCH57xBLE.a(tmos.o)
                0x0000000020004df4                tasksArr
 .sbss.fnGetClockCBs
                0x0000000020004df8        0x4 e:/Workspace/resistance_band/reistance_band_v0_1/resistance_band/LIB\libCH57xBLE.a(tmos_hw.o)
                0x0000000020004df8                fnGetClockCBs
 .sbss.gapCurrentRandomAddr
                0x0000000020004dfc        0x6 e:/Workspace/resistance_band/reistance_band_v0_1/resistance_band/LIB\libCH57xBLE.a(gap.o)
 *fill*         0x0000000020004e02        0x2 
 .sbss.pEstLink
                0x0000000020004e04        0x4 e:/Workspace/resistance_band/reistance_band_v0_1/resistance_band/LIB\libCH57xBLE.a(gap.o)
                0x0000000020004e04                pEstLink
 .sbss.pGapAdvertState
                0x0000000020004e08        0x4 e:/Workspace/resistance_band/reistance_band_v0_1/resistance_band/LIB\libCH57xBLE.a(gap.o)
                0x0000000020004e08                pGapAdvertState
 .sbss.pfnCentralCBs
                0x0000000020004e0c        0x4 e:/Workspace/resistance_band/reistance_band_v0_1/resistance_band/LIB\libCH57xBLE.a(gap.o)
 .sbss.pfnCentralConnCBs
                0x0000000020004e10        0x4 e:/Workspace/resistance_band/reistance_band_v0_1/resistance_band/LIB\libCH57xBLE.a(gap.o)
 .sbss.pfnPeripheralCBs
                0x0000000020004e14        0x4 e:/Workspace/resistance_band/reistance_band_v0_1/resistance_band/LIB\libCH57xBLE.a(gap.o)
 .sbss.pfnPeripheralConnCBs
                0x0000000020004e18        0x4 e:/Workspace/resistance_band/reistance_band_v0_1/resistance_band/LIB\libCH57xBLE.a(gap.o)
 .sbss.slaveUpdateReq
                0x0000000020004e1c        0x8 e:/Workspace/resistance_band/reistance_band_v0_1/resistance_band/LIB\libCH57xBLE.a(gap.o)
 .sbss.terminateAllTaskID
                0x0000000020004e24        0x1 e:/Workspace/resistance_band/reistance_band_v0_1/resistance_band/LIB\libCH57xBLE.a(gap.o)
 .sbss.terminateReason
                0x0000000020004e25        0x1 e:/Workspace/resistance_band/reistance_band_v0_1/resistance_band/LIB\libCH57xBLE.a(gap.o)
 *fill*         0x0000000020004e26        0x2 
 .sbss.gapCentralConnCBs
                0x0000000020004e28        0x8 e:/Workspace/resistance_band/reistance_band_v0_1/resistance_band/LIB\libCH57xBLE.a(gap_central.o)
                0x0000000020004e28                gapCentralConnCBs
 .sbss.gapMaxScanResponses
                0x0000000020004e30        0x1 e:/Workspace/resistance_band/reistance_band_v0_1/resistance_band/LIB\libCH57xBLE.a(gap_central.o)
                0x0000000020004e30                gapMaxScanResponses
 *fill*         0x0000000020004e31        0x3 
 .sbss.pGapDiscReq
                0x0000000020004e34        0x4 e:/Workspace/resistance_band/reistance_band_v0_1/resistance_band/LIB\libCH57xBLE.a(gap_central.o)
                0x0000000020004e34                pGapDiscReq
 .sbss.pGapScanRecs
                0x0000000020004e38        0x4 e:/Workspace/resistance_band/reistance_band_v0_1/resistance_band/LIB\libCH57xBLE.a(gap_central.o)
                0x0000000020004e38                pGapScanRecs
 .sbss.gapLimitedAdvertisingTimeout
                0x0000000020004e3c        0x2 e:/Workspace/resistance_band/reistance_band_v0_1/resistance_band/LIB\libCH57xBLE.a(gap_peripheral.o)
 *fill*         0x0000000020004e3e        0x2 
 .sbss.gapPeripheralConnCBs
                0x0000000020004e40        0x4 e:/Workspace/resistance_band/reistance_band_v0_1/resistance_band/LIB\libCH57xBLE.a(gap_peripheral.o)
 .sbss.pGapAdData
                0x0000000020004e44        0x4 e:/Workspace/resistance_band/reistance_band_v0_1/resistance_band/LIB\libCH57xBLE.a(gap_peripheral.o)
 .sbss.pGapAdvTokens
                0x0000000020004e48        0x4 e:/Workspace/resistance_band/reistance_band_v0_1/resistance_band/LIB\libCH57xBLE.a(gap_peripheral.o)
 .sbss.pGapScanRspData
                0x0000000020004e4c        0x4 e:/Workspace/resistance_band/reistance_band_v0_1/resistance_band/LIB\libCH57xBLE.a(gap_peripheral.o)
 .sbss.appearance
                0x0000000020004e50        0x2 e:/Workspace/resistance_band/reistance_band_v0_1/resistance_band/LIB\libCH57xBLE.a(gapgattserver.o)
 .sbss.ggsAddService
                0x0000000020004e52        0x1 e:/Workspace/resistance_band/reistance_band_v0_1/resistance_band/LIB\libCH57xBLE.a(gapgattserver.o)
 *fill*         0x0000000020004e53        0x1 
 .sbss.ggs_AppCBs
                0x0000000020004e54        0x4 e:/Workspace/resistance_band/reistance_band_v0_1/resistance_band/LIB\libCH57xBLE.a(gapgattserver.o)
 .sbss.gattTaskID
                0x0000000020004e58        0x1 e:/Workspace/resistance_band/reistance_band_v0_1/resistance_band/LIB\libCH57xBLE.a(gatt.o)
                0x0000000020004e58                gattTaskID
 *fill*         0x0000000020004e59        0x3 
 .sbss.pfnClientProcessMsgCB
                0x0000000020004e5c        0x4 e:/Workspace/resistance_band/reistance_band_v0_1/resistance_band/LIB\libCH57xBLE.a(gatt.o)
                0x0000000020004e5c                pfnClientProcessMsgCB
 .sbss.pfnServerProcessMsgCB
                0x0000000020004e60        0x4 e:/Workspace/resistance_band/reistance_band_v0_1/resistance_band/LIB\libCH57xBLE.a(gatt.o)
                0x0000000020004e60                pfnServerProcessMsgCB
 .sbss.attrLen  0x0000000020004e64        0x2 e:/Workspace/resistance_band/reistance_band_v0_1/resistance_band/LIB\libCH57xBLE.a(gattservapp.o)
 .sbss.gattAddService
                0x0000000020004e66        0x1 e:/Workspace/resistance_band/reistance_band_v0_1/resistance_band/LIB\libCH57xBLE.a(gattservapp.o)
 *fill*         0x0000000020004e67        0x1 
 .sbss.indCharCfg
                0x0000000020004e68        0x4 e:/Workspace/resistance_band/reistance_band_v0_1/resistance_band/LIB\libCH57xBLE.a(gattservapp.o)
 .sbss.pAttrValue
                0x0000000020004e6c        0x4 e:/Workspace/resistance_band/reistance_band_v0_1/resistance_band/LIB\libCH57xBLE.a(gattservapp.o)
 .sbss.pServiceList
                0x0000000020004e70        0x4 e:/Workspace/resistance_band/reistance_band_v0_1/resistance_band/LIB\libCH57xBLE.a(gattservapp.o)
 .sbss.prepareWritesTbl
                0x0000000020004e74        0x4 e:/Workspace/resistance_band/reistance_band_v0_1/resistance_band/LIB\libCH57xBLE.a(gattservapp.o)
 .sbss.serverInfoTbl
                0x0000000020004e78        0x4 e:/Workspace/resistance_band/reistance_band_v0_1/resistance_band/LIB\libCH57xBLE.a(gattservapp.o)
 .sbss.serviceCBsList
                0x0000000020004e7c        0x4 e:/Workspace/resistance_band/reistance_band_v0_1/resistance_band/LIB\libCH57xBLE.a(gattservapp.o)
 .sbss.l2capChannels
                0x0000000020004e80        0x4 e:/Workspace/resistance_band/reistance_band_v0_1/resistance_band/LIB\libCH57xBLE.a(l2cap.o)
                0x0000000020004e80                l2capChannels
 .sbss.l2capFlowCtrlMode
                0x0000000020004e84        0x1 e:/Workspace/resistance_band/reistance_band_v0_1/resistance_band/LIB\libCH57xBLE.a(l2cap.o)
                0x0000000020004e84                l2capFlowCtrlMode
 .sbss.l2capId  0x0000000020004e85        0x1 e:/Workspace/resistance_band/reistance_band_v0_1/resistance_band/LIB\libCH57xBLE.a(l2cap.o)
                0x0000000020004e85                l2capId
 .sbss.l2capMtuSize
                0x0000000020004e86        0x2 e:/Workspace/resistance_band/reistance_band_v0_1/resistance_band/LIB\libCH57xBLE.a(l2cap.o)
                0x0000000020004e86                l2capMtuSize
 .sbss.l2capNumChannels
                0x0000000020004e88        0x1 e:/Workspace/resistance_band/reistance_band_v0_1/resistance_band/LIB\libCH57xBLE.a(l2cap.o)
                0x0000000020004e88                l2capNumChannels
 .sbss.l2capNumCoChannels
                0x0000000020004e89        0x1 e:/Workspace/resistance_band/reistance_band_v0_1/resistance_band/LIB\libCH57xBLE.a(l2cap.o)
                0x0000000020004e89                l2capNumCoChannels
 .sbss.l2capNumDataPkts
                0x0000000020004e8a        0x1 e:/Workspace/resistance_band/reistance_band_v0_1/resistance_band/LIB\libCH57xBLE.a(l2cap.o)
                0x0000000020004e8a                l2capNumDataPkts
 .sbss.l2capNumPSM
                0x0000000020004e8b        0x1 e:/Workspace/resistance_band/reistance_band_v0_1/resistance_band/LIB\libCH57xBLE.a(l2cap.o)
                0x0000000020004e8b                l2capNumPSM
 .sbss.l2capNumRecvDataPkts
                0x0000000020004e8c        0x1 e:/Workspace/resistance_band/reistance_band_v0_1/resistance_band/LIB\libCH57xBLE.a(l2cap.o)
                0x0000000020004e8c                l2capNumRecvDataPkts
 *fill*         0x0000000020004e8d        0x3 
 .sbss.l2capPsm
                0x0000000020004e90        0x4 e:/Workspace/resistance_band/reistance_band_v0_1/resistance_band/LIB\libCH57xBLE.a(l2cap.o)
                0x0000000020004e90                l2capPsm
 .sbss.l2capTaskID
                0x0000000020004e94        0x1 e:/Workspace/resistance_band/reistance_band_v0_1/resistance_band/LIB\libCH57xBLE.a(l2cap.o)
                0x0000000020004e94                l2capTaskID
 *fill*         0x0000000020004e95        0x3 
 .sbss.l2capUserConfig
                0x0000000020004e98        0x2 e:/Workspace/resistance_band/reistance_band_v0_1/resistance_band/LIB\libCH57xBLE.a(l2cap.o)
                0x0000000020004e98                l2capUserConfig
 .sbss.nextIdx  0x0000000020004e9a        0x1 e:/Workspace/resistance_band/reistance_band_v0_1/resistance_band/LIB\libCH57xBLE.a(l2cap.o)
                0x0000000020004e9a                nextIdx
 *fill*         0x0000000020004e9b        0x1 
 .sbss.pL2capData
                0x0000000020004e9c        0x4 e:/Workspace/resistance_band/reistance_band_v0_1/resistance_band/LIB\libCH57xBLE.a(l2cap.o)
                0x0000000020004e9c                pL2capData
 .sbss.linkDB   0x0000000020004ea0        0x4 e:/Workspace/resistance_band/reistance_band_v0_1/resistance_band/LIB\libCH57xBLE.a(linkdb.o)
                0x0000000020004ea0                linkDB
 .sbss.pSmGenKey
                0x0000000020004ea4        0x4 e:/Workspace/resistance_band/reistance_band_v0_1/resistance_band/LIB\libCH57xBLE.a(sm.o)
                0x0000000020004ea4                pSmGenKey
 .sbss.pfnInitiatorCBs
                0x0000000020004ea8        0x4 e:/Workspace/resistance_band/reistance_band_v0_1/resistance_band/LIB\libCH57xBLE.a(sm.o)
                0x0000000020004ea8                pfnInitiatorCBs
 .sbss.pfnResponderCBs
                0x0000000020004eac        0x4 e:/Workspace/resistance_band/reistance_band_v0_1/resistance_band/LIB\libCH57xBLE.a(sm.o)
                0x0000000020004eac                pfnResponderCBs
 .sbss.gBleHostPara
                0x0000000020004eb0        0x6 e:/Workspace/resistance_band/reistance_band_v0_1/resistance_band/LIB\libCH57xBLE.a(host_input.o)
                0x0000000020004eb0                gBleHostPara
 *fill*         0x0000000020004eb6        0x2 
 .sbss.llRecvDataDisable
                0x0000000020004eb8        0x4 e:/Workspace/resistance_band/reistance_band_v0_1/resistance_band/LIB\libCH57xBLE.a(ll_connect.o)
                0x0000000020004eb8                llRecvDataDisable
 .sbss.pfnConnectEventCBs
                0x0000000020004ebc        0x4 e:/Workspace/resistance_band/reistance_band_v0_1/resistance_band/LIB\libCH57xBLE.a(ll_connect.o)
                0x0000000020004ebc                pfnConnectEventCBs
 .sbss.CrcErrorCount
                0x0000000020004ec0        0x2 e:/Workspace/resistance_band/reistance_band_v0_1/resistance_band/LIB\libCH57xBLE.a(ll_slave.o)
                0x0000000020004ec0                CrcErrorCount
 .sbss.md_timeout
                0x0000000020004ec2        0x2 e:/Workspace/resistance_band/reistance_band_v0_1/resistance_band/LIB\libCH57xBLE.a(ll_slave.o)
                0x0000000020004ec2                md_timeout
 .sbss.reSendCount
                0x0000000020004ec4        0x2 e:/Workspace/resistance_band/reistance_band_v0_1/resistance_band/LIB\libCH57xBLE.a(ll_slave.o)
                0x0000000020004ec4                reSendCount
 .sbss.recvTimeoutCount
                0x0000000020004ec6        0x2 e:/Workspace/resistance_band/reistance_band_v0_1/resistance_band/LIB\libCH57xBLE.a(ll_slave.o)
                0x0000000020004ec6                recvTimeoutCount
 .sbss.gptrAESReg
                0x0000000020004ec8        0x4 e:/Workspace/resistance_band/reistance_band_v0_1/resistance_band/LIB\libCH57xBLE.a(aes.o)
                0x0000000020004ec8                gptrAESReg
 .sbss.gptrBBReg
                0x0000000020004ecc        0x4 e:/Workspace/resistance_band/reistance_band_v0_1/resistance_band/LIB\libCH57xBLE.a(bb.o)
                0x0000000020004ecc                gptrBBReg
 .sbss.gptrDMAReg
                0x0000000020004ed0        0x4 e:/Workspace/resistance_band/reistance_band_v0_1/resistance_band/LIB\libCH57xBLE.a(dma.o)
                0x0000000020004ed0                gptrDMAReg
 .sbss.cfo_comp
                0x0000000020004ed4        0x2 e:/Workspace/resistance_band/reistance_band_v0_1/resistance_band/LIB\libCH57xBLE.a(ip.o)
                0x0000000020004ed4                cfo_comp
 *fill*         0x0000000020004ed6        0x2 
 .sbss.gPaControl
                0x0000000020004ed8        0x4 e:/Workspace/resistance_band/reistance_band_v0_1/resistance_band/LIB\libCH57xBLE.a(ip.o)
                0x0000000020004ed8                gPaControl
 .sbss.gptrLLEReg
                0x0000000020004edc        0x4 e:/Workspace/resistance_band/reistance_band_v0_1/resistance_band/LIB\libCH57xBLE.a(lle.o)
                0x0000000020004edc                gptrLLEReg
 .sbss.ftuneFlag
                0x0000000020004ee0        0x4 e:/Workspace/resistance_band/reistance_band_v0_1/resistance_band/LIB\libCH57xBLE.a(rfend.o)
                0x0000000020004ee0                ftuneFlag
 .sbss.gModeAdc
                0x0000000020004ee4        0x1 e:/Workspace/resistance_band/reistance_band_v0_1/resistance_band/LIB\libCH57xBLE.a(rfend.o)
                0x0000000020004ee4                gModeAdc
 *fill*         0x0000000020004ee5        0x3 
 .sbss.gptrRFENDReg
                0x0000000020004ee8        0x4 e:/Workspace/resistance_band/reistance_band_v0_1/resistance_band/LIB\libCH57xBLE.a(rfend.o)
                0x0000000020004ee8                gptrRFENDReg
 .sbss.nCO2401  0x0000000020004eec        0x1 e:/Workspace/resistance_band/reistance_band_v0_1/resistance_band/LIB\libCH57xBLE.a(rfend.o)
                0x0000000020004eec                nCO2401
 .sbss.nCO2440  0x0000000020004eed        0x1 e:/Workspace/resistance_band/reistance_band_v0_1/resistance_band/LIB\libCH57xBLE.a(rfend.o)
                0x0000000020004eed                nCO2440
 .sbss.nCO2480  0x0000000020004eee        0x1 e:/Workspace/resistance_band/reistance_band_v0_1/resistance_band/LIB\libCH57xBLE.a(rfend.o)
                0x0000000020004eee                nCO2480
 .sbss.nGA2401  0x0000000020004eef        0x1 e:/Workspace/resistance_band/reistance_band_v0_1/resistance_band/LIB\libCH57xBLE.a(rfend.o)
                0x0000000020004eef                nGA2401
 .sbss.nGA2440  0x0000000020004ef0        0x1 e:/Workspace/resistance_band/reistance_band_v0_1/resistance_band/LIB\libCH57xBLE.a(rfend.o)
                0x0000000020004ef0                nGA2440
 .sbss.nGA2480  0x0000000020004ef1        0x1 e:/Workspace/resistance_band/reistance_band_v0_1/resistance_band/LIB\libCH57xBLE.a(rfend.o)
                0x0000000020004ef1                nGA2480
 .sbss.fragment.6326
                0x0000000020004ef2        0x1 e:/Workspace/resistance_band/reistance_band_v0_1/resistance_band/LIB\libCH57xBLE.a(ctl_input.o)
 .sbss.autoSyncResolveList
                0x0000000020004ef3        0x1 e:/Workspace/resistance_band/reistance_band_v0_1/resistance_band/LIB\libCH57xBLE.a(gapbondmgr.o)
 .sbss.autoSyncWhiteList
                0x0000000020004ef4        0x1 e:/Workspace/resistance_band/reistance_band_v0_1/resistance_band/LIB\libCH57xBLE.a(gapbondmgr.o)
 .sbss.bondIdx  0x0000000020004ef5        0x1 e:/Workspace/resistance_band/reistance_band_v0_1/resistance_band/LIB\libCH57xBLE.a(gapbondmgr.o)
 *fill*         0x0000000020004ef6        0x2 
 .sbss.bonds    0x0000000020004ef8        0x4 e:/Workspace/resistance_band/reistance_band_v0_1/resistance_band/LIB\libCH57xBLE.a(gapbondmgr.o)
 .sbss.eraseAllBonds
                0x0000000020004efc        0x1 e:/Workspace/resistance_band/reistance_band_v0_1/resistance_band/LIB\libCH57xBLE.a(gapbondmgr.o)
 .sbss.gapBondMax
                0x0000000020004efd        0x1 e:/Workspace/resistance_band/reistance_band_v0_1/resistance_band/LIB\libCH57xBLE.a(gapbondmgr.o)
 .sbss.gapBondMgr_TaskID
                0x0000000020004efe        0x1 e:/Workspace/resistance_band/reistance_band_v0_1/resistance_band/LIB\libCH57xBLE.a(gapbondmgr.o)
 *fill*         0x0000000020004eff        0x1 
 .sbss.gapBondSignAddr
                0x0000000020004f00        0x7 e:/Workspace/resistance_band/reistance_band_v0_1/resistance_band/LIB\libCH57xBLE.a(gapbondmgr.o)
                0x0000000020004f00                gapBondSignAddr
 .sbss.gapBondSign_Valid
                0x0000000020004f07        0x1 e:/Workspace/resistance_band/reistance_band_v0_1/resistance_band/LIB\libCH57xBLE.a(gapbondmgr.o)
                0x0000000020004f07                gapBondSign_Valid
 .sbss.gapBond_AutoFail
                0x0000000020004f08        0x1 e:/Workspace/resistance_band/reistance_band_v0_1/resistance_band/LIB\libCH57xBLE.a(gapbondmgr.o)
 .sbss.gapBond_Cent_AuthReq
                0x0000000020004f09        0x1 e:/Workspace/resistance_band/reistance_band_v0_1/resistance_band/LIB\libCH57xBLE.a(gapbondmgr.o)
 .sbss.gapBond_Cent_IOCap
                0x0000000020004f0a        0x1 e:/Workspace/resistance_band/reistance_band_v0_1/resistance_band/LIB\libCH57xBLE.a(gapbondmgr.o)
 .sbss.gapBond_Cent_KeyDistList
                0x0000000020004f0b        0x1 e:/Workspace/resistance_band/reistance_band_v0_1/resistance_band/LIB\libCH57xBLE.a(gapbondmgr.o)
 .sbss.gapBond_Cent_OOBDataFlag
                0x0000000020004f0c        0x1 e:/Workspace/resistance_band/reistance_band_v0_1/resistance_band/LIB\libCH57xBLE.a(gapbondmgr.o)
 *fill*         0x0000000020004f0d        0x3 
 .sbss.gapBond_Cent_Passcode
                0x0000000020004f10        0x4 e:/Workspace/resistance_band/reistance_band_v0_1/resistance_band/LIB\libCH57xBLE.a(gapbondmgr.o)
 .sbss.gapBond_Invalid
                0x0000000020004f14        0x1 e:/Workspace/resistance_band/reistance_band_v0_1/resistance_band/LIB\libCH57xBLE.a(gapbondmgr.o)
                0x0000000020004f14                gapBond_Invalid
 .sbss.gapBond_Peri_AuthReq
                0x0000000020004f15        0x1 e:/Workspace/resistance_band/reistance_band_v0_1/resistance_band/LIB\libCH57xBLE.a(gapbondmgr.o)
 .sbss.gapBond_Peri_IOCap
                0x0000000020004f16        0x1 e:/Workspace/resistance_band/reistance_band_v0_1/resistance_band/LIB\libCH57xBLE.a(gapbondmgr.o)
 .sbss.gapBond_Peri_KeyDistList
                0x0000000020004f17        0x1 e:/Workspace/resistance_band/reistance_band_v0_1/resistance_band/LIB\libCH57xBLE.a(gapbondmgr.o)
 .sbss.gapBond_Peri_OOBDataFlag
                0x0000000020004f18        0x1 e:/Workspace/resistance_band/reistance_band_v0_1/resistance_band/LIB\libCH57xBLE.a(gapbondmgr.o)
 *fill*         0x0000000020004f19        0x3 
 .sbss.gapBond_Peri_Passcode
                0x0000000020004f1c        0x4 e:/Workspace/resistance_band/reistance_band_v0_1/resistance_band/LIB\libCH57xBLE.a(gapbondmgr.o)
 .sbss.gattCCFlag
                0x0000000020004f20        0x1 e:/Workspace/resistance_band/reistance_band_v0_1/resistance_band/LIB\libCH57xBLE.a(gapbondmgr.o)
 *fill*         0x0000000020004f21        0x3 
 .sbss.pAttr.4293
                0x0000000020004f24        0x4 e:/Workspace/resistance_band/reistance_band_v0_1/resistance_band/LIB\libCH57xBLE.a(gapbondmgr.o)
 .sbss.pAuthEvt
                0x0000000020004f28        0x4 e:/Workspace/resistance_band/reistance_band_v0_1/resistance_band/LIB\libCH57xBLE.a(gapbondmgr.o)
 .sbss.pGapBondCB
                0x0000000020004f2c        0x4 e:/Workspace/resistance_band/reistance_band_v0_1/resistance_band/LIB\libCH57xBLE.a(gapbondmgr.o)
 .sbss.pGapCentBondCB
                0x0000000020004f30        0x4 e:/Workspace/resistance_band/reistance_band_v0_1/resistance_band/LIB\libCH57xBLE.a(gapbondmgr.o)
 .sbss.pGapPeriBondCB
                0x0000000020004f34        0x4 e:/Workspace/resistance_band/reistance_band_v0_1/resistance_band/LIB\libCH57xBLE.a(gapbondmgr.o)
 .sbss.service.4294
                0x0000000020004f38        0x2 e:/Workspace/resistance_band/reistance_band_v0_1/resistance_band/LIB\libCH57xBLE.a(gapbondmgr.o)
 *fill*         0x0000000020004f3a        0x2 
 .sbss.pGapRoles_AppCGs
                0x0000000020004f3c        0x4 e:/Workspace/resistance_band/reistance_band_v0_1/resistance_band/LIB\libCH57xBLE.a(peripheral.o)
 .sbss.gapMaxScanRes
                0x0000000020004f40        0x1 e:/Workspace/resistance_band/reistance_band_v0_1/resistance_band/LIB\libCH57xBLE.a(role.o)
                0x0000000020004f40                gapMaxScanRes
 .sbss.gapRole_AdvChanMap
                0x0000000020004f41        0x1 e:/Workspace/resistance_band/reistance_band_v0_1/resistance_band/LIB\libCH57xBLE.a(role.o)
                0x0000000020004f41                gapRole_AdvChanMap
 *fill*         0x0000000020004f42        0x2 
 .sbss.gapRole_AdvDirectAddr
                0x0000000020004f44        0x6 e:/Workspace/resistance_band/reistance_band_v0_1/resistance_band/LIB\libCH57xBLE.a(role.o)
                0x0000000020004f44                gapRole_AdvDirectAddr
 .sbss.gapRole_AdvDirectType
                0x0000000020004f4a        0x1 e:/Workspace/resistance_band/reistance_band_v0_1/resistance_band/LIB\libCH57xBLE.a(role.o)
                0x0000000020004f4a                gapRole_AdvDirectType
 .sbss.gapRole_AdvEventType
                0x0000000020004f4b        0x1 e:/Workspace/resistance_band/reistance_band_v0_1/resistance_band/LIB\libCH57xBLE.a(role.o)
                0x0000000020004f4b                gapRole_AdvEventType
 .sbss.gapRole_AdvFilterPolicy
                0x0000000020004f4c        0x1 e:/Workspace/resistance_band/reistance_band_v0_1/resistance_band/LIB\libCH57xBLE.a(role.o)
                0x0000000020004f4c                gapRole_AdvFilterPolicy
 *fill*         0x0000000020004f4d        0x3 
 .sbss.gapRole_AdvertData
                0x0000000020004f50        0x4 e:/Workspace/resistance_band/reistance_band_v0_1/resistance_band/LIB\libCH57xBLE.a(role.o)
                0x0000000020004f50                gapRole_AdvertData
 .sbss.gapRole_MasterAndSlave
                0x0000000020004f54        0x1 e:/Workspace/resistance_band/reistance_band_v0_1/resistance_band/LIB\libCH57xBLE.a(role.o)
                0x0000000020004f54                gapRole_MasterAndSlave
 *fill*         0x0000000020004f55        0x3 
 .sbss.gapRole_ScanRspData
                0x0000000020004f58        0x4 e:/Workspace/resistance_band/reistance_band_v0_1/resistance_band/LIB\libCH57xBLE.a(role.o)
                0x0000000020004f58                gapRole_ScanRspData
 .sbss.gapRole_ScanRspDataLen
                0x0000000020004f5c        0x1 e:/Workspace/resistance_band/reistance_band_v0_1/resistance_band/LIB\libCH57xBLE.a(role.o)
                0x0000000020004f5c                gapRole_ScanRspDataLen
 .sbss.gapRole_TaskID
                0x0000000020004f5d        0x1 e:/Workspace/resistance_band/reistance_band_v0_1/resistance_band/LIB\libCH57xBLE.a(role.o)
                0x0000000020004f5d                gapRole_TaskID
 *fill*         0x0000000020004f5e        0x2 
 .sbss.gapRole_bdAddr
                0x0000000020004f60        0x6 e:/Workspace/resistance_band/reistance_band_v0_1/resistance_band/LIB\libCH57xBLE.a(role.o)
                0x0000000020004f60                gapRole_bdAddr
 .sbss.gapRole_profileRole
                0x0000000020004f66        0x1 e:/Workspace/resistance_band/reistance_band_v0_1/resistance_band/LIB\libCH57xBLE.a(role.o)
                0x0000000020004f66                gapRole_profileRole
 *fill*         0x0000000020004f67        0x1 
 .sbss.gapRole_signCounter
                0x0000000020004f68        0x4 e:/Workspace/resistance_band/reistance_band_v0_1/resistance_band/LIB\libCH57xBLE.a(role.o)
                0x0000000020004f68                gapRole_signCounter
 .sbss.gapRole_state
                0x0000000020004f6c        0x4 e:/Workspace/resistance_band/reistance_band_v0_1/resistance_band/LIB\libCH57xBLE.a(role.o)
                0x0000000020004f6c                gapRole_state
 .sbss.MemCtlEnd
                0x0000000020004f70        0x4 e:/Workspace/resistance_band/reistance_band_v0_1/resistance_band/LIB\libCH57xBLE.a(memory.o)
                0x0000000020004f70                MemCtlEnd
 .sbss.MemCtlPartition
                0x0000000020004f74        0x4 e:/Workspace/resistance_band/reistance_band_v0_1/resistance_band/LIB\libCH57xBLE.a(memory.o)
                0x0000000020004f74                MemCtlPartition
 .sbss.MemCtlStart
                0x0000000020004f78        0x4 e:/Workspace/resistance_band/reistance_band_v0_1/resistance_band/LIB\libCH57xBLE.a(memory.o)
                0x0000000020004f78                MemCtlStart
 .sbss.attClientNotifyTxCB
                0x0000000020004f7c        0x4 e:/Workspace/resistance_band/reistance_band_v0_1/resistance_band/LIB\libCH57xBLE.a(att.o)
                0x0000000020004f7c                attClientNotifyTxCB
 .sbss.attServerNotifyTxCB
                0x0000000020004f80        0x4 e:/Workspace/resistance_band/reistance_band_v0_1/resistance_band/LIB\libCH57xBLE.a(att.o)
                0x0000000020004f80                attServerNotifyTxCB
 .sbss.pfnAdvertiseEventCBs
                0x0000000020004f84        0x4 e:/Workspace/resistance_band/reistance_band_v0_1/resistance_band/LIB\libCH57xBLE.a(ll_advertise.o)
                0x0000000020004f84                pfnAdvertiseEventCBs
 .sbss.pGapRoles_AppCGs
                0x0000000020004f88        0x4 e:/Workspace/resistance_band/reistance_band_v0_1/resistance_band/LIB\libCH57xBLE.a(broadcaster.o)
                0x0000000020004f88                pGapRoles_AppCGs
 *(.gnu.linkonce.sb.*)
 *(.bss*)
 .bss.battLevelClientCharCfg
                0x0000000020004f8c       0x10 ./Profile/battservice.o
 .bss.resBandMeasClientCharCfg
                0x0000000020004f9c       0x10 ./Profile/resbandservice.o
 .bss.HalLedStatusControl
                0x0000000020004fac       0x34 ./HAL/LED.o
 .bss.MEM_BUF   0x0000000020004fe0     0x1800 ./APP/resband_main.o
                0x0000000020004fe0                MEM_BUF
 .bss.ble       0x00000000200067e0       0x3c e:/Workspace/resistance_band/reistance_band_v0_1/resistance_band/LIB\libCH57xBLE.a(tmos.o)
                0x00000000200067e0                ble
 .bss.gTmosPara
                0x000000002000681c       0x24 e:/Workspace/resistance_band/reistance_band_v0_1/resistance_band/LIB\libCH57xBLE.a(tmos.o)
                0x000000002000681c                gTmosPara
 .bss.pfnProcessCBs
                0x0000000020006840       0x1c e:/Workspace/resistance_band/reistance_band_v0_1/resistance_band/LIB\libCH57xBLE.a(tmos.o)
                0x0000000020006840                pfnProcessCBs
 .bss.gapParameters
                0x000000002000685c       0x36 e:/Workspace/resistance_band/reistance_band_v0_1/resistance_band/LIB\libCH57xBLE.a(gap.o)
                0x000000002000685c                gapParameters
 *fill*         0x0000000020006892        0x2 
 .bss.gapParams
                0x0000000020006894       0x20 e:/Workspace/resistance_band/reistance_band_v0_1/resistance_band/LIB\libCH57xBLE.a(gap.o)
                0x0000000020006894                gapParams
 .bss.gapCentralCBs
                0x00000000200068b4        0xc e:/Workspace/resistance_band/reistance_band_v0_1/resistance_band/LIB\libCH57xBLE.a(gap_central.o)
                0x00000000200068b4                gapCentralCBs
 .bss.gapPeripheralCBs
                0x00000000200068c0        0xc e:/Workspace/resistance_band/reistance_band_v0_1/resistance_band/LIB\libCH57xBLE.a(gap_peripheral.o)
 .bss.deviceName
                0x00000000200068cc       0x16 e:/Workspace/resistance_band/reistance_band_v0_1/resistance_band/LIB\libCH57xBLE.a(gapgattserver.o)
 *fill*         0x00000000200068e2        0x2 
 .bss.rsp       0x00000000200068e4       0x18 e:/Workspace/resistance_band/reistance_band_v0_1/resistance_band/LIB\libCH57xBLE.a(gattservapp.o)
 .bss.l2capFixedChannels
                0x00000000200068fc       0x30 e:/Workspace/resistance_band/reistance_band_v0_1/resistance_band/LIB\libCH57xBLE.a(l2cap.o)
                0x00000000200068fc                l2capFixedChannels
 .bss.linkCBs   0x000000002000692c       0x30 e:/Workspace/resistance_band/reistance_band_v0_1/resistance_band/LIB\libCH57xBLE.a(linkdb.o)
                0x000000002000692c                linkCBs
 .bss.gBleIPPara
                0x000000002000695c       0x1c e:/Workspace/resistance_band/reistance_band_v0_1/resistance_band/LIB\libCH57xBLE.a(ip.o)
                0x000000002000695c                gBleIPPara
 .bss.rfConfig  0x0000000020006978       0x20 e:/Workspace/resistance_band/reistance_band_v0_1/resistance_band/LIB\libCH57xBLE.a(ip.o)
                0x0000000020006978                rfConfig
 .bss.rfInfo    0x0000000020006998       0x1c e:/Workspace/resistance_band/reistance_band_v0_1/resistance_band/LIB\libCH57xBLE.a(rf_fh.o)
                0x0000000020006998                rfInfo
 .bss.gapBond_Cent_OOBData
                0x00000000200069b4       0x10 e:/Workspace/resistance_band/reistance_band_v0_1/resistance_band/LIB\libCH57xBLE.a(gapbondmgr.o)
 .bss.gapBond_Peri_OOBData
                0x00000000200069c4       0x10 e:/Workspace/resistance_band/reistance_band_v0_1/resistance_band/LIB\libCH57xBLE.a(gapbondmgr.o)
 .bss.gapRole_IRK
                0x00000000200069d4       0x10 e:/Workspace/resistance_band/reistance_band_v0_1/resistance_band/LIB\libCH57xBLE.a(role.o)
                0x00000000200069d4                gapRole_IRK
 .bss.gapRole_OldIRK
                0x00000000200069e4       0x10 e:/Workspace/resistance_band/reistance_band_v0_1/resistance_band/LIB\libCH57xBLE.a(role.o)
                0x00000000200069e4                gapRole_OldIRK
 .bss.gapRole_OldSRK
                0x00000000200069f4       0x10 e:/Workspace/resistance_band/reistance_band_v0_1/resistance_band/LIB\libCH57xBLE.a(role.o)
                0x00000000200069f4                gapRole_OldSRK
 .bss.gapRole_SRK
                0x0000000020006a04       0x10 e:/Workspace/resistance_band/reistance_band_v0_1/resistance_band/LIB\libCH57xBLE.a(role.o)
                0x0000000020006a04                gapRole_SRK
 .bss.gBleLlPara
                0x0000000020006a14       0xac e:/Workspace/resistance_band/reistance_band_v0_1/resistance_band/LIB\libCH57xBLE.a(ll.o)
                0x0000000020006a14                gBleLlPara
 *(.gnu.linkonce.b.*)
 *(COMMON*)
                0x0000000020006ac0                . = ALIGN (0x4)
                0x0000000020006ac0                PROVIDE (_ebss = .)
                0x0000000020006ac0                PROVIDE (_end = _ebss)
                [!provide]                        PROVIDE (end = .)

.stack          0x0000000020007e00      0x200
                0x0000000020007e00                PROVIDE (_heap_end = .)
                0x0000000020007e00                . = ALIGN (0x4)
                [!provide]                        PROVIDE (_susrstack = .)
                0x0000000020008000                . = (. + __stack_size)
 *fill*         0x0000000020007e00      0x200 
                0x0000000020008000                PROVIDE (_eusrstack = .)
OUTPUT(HeartRate.elf elf32-littleriscv)

.debug_info     0x0000000000000000    0x1149a
 .debug_info    0x0000000000000000      0xed2 ./StdPeriphDriver/CH57x_adc.o
 .debug_info    0x0000000000000ed2     0x167b ./StdPeriphDriver/CH57x_clk.o
 .debug_info    0x000000000000254d      0xdae ./StdPeriphDriver/CH57x_gpio.o
 .debug_info    0x00000000000032fb     0x13cf ./StdPeriphDriver/CH57x_sys.o
 .debug_info    0x00000000000046ca       0x22 ./Startup/startup_CH573.o
 .debug_info    0x00000000000046ec     0x2346 ./Profile/battservice.o
 .debug_info    0x0000000000006a32     0x133e ./Profile/devinfoservice.o
 .debug_info    0x0000000000007d70     0x1507 ./Profile/resbandservice.o
 .debug_info    0x0000000000009277     0x1292 ./HAL/AS5600.o
 .debug_info    0x000000000000a509     0x12b7 ./HAL/LED.o
 .debug_info    0x000000000000b7c0     0x17e5 ./HAL/MCU.o
 .debug_info    0x000000000000cfa5      0xe8b ./HAL/RTC.o
 .debug_info    0x000000000000de30     0x2755 ./APP/resband.o
 .debug_info    0x0000000000010585      0xf15 ./APP/resband_main.o

.debug_abbrev   0x0000000000000000     0x2c02
 .debug_abbrev  0x0000000000000000      0x2cf ./StdPeriphDriver/CH57x_adc.o
 .debug_abbrev  0x00000000000002cf      0x3ae ./StdPeriphDriver/CH57x_clk.o
 .debug_abbrev  0x000000000000067d      0x268 ./StdPeriphDriver/CH57x_gpio.o
 .debug_abbrev  0x00000000000008e5      0x3a3 ./StdPeriphDriver/CH57x_sys.o
 .debug_abbrev  0x0000000000000c88       0x12 ./Startup/startup_CH573.o
 .debug_abbrev  0x0000000000000c9a      0x4eb ./Profile/battservice.o
 .debug_abbrev  0x0000000000001185      0x2cc ./Profile/devinfoservice.o
 .debug_abbrev  0x0000000000001451      0x42c ./Profile/resbandservice.o
 .debug_abbrev  0x000000000000187d      0x2c3 ./HAL/AS5600.o
 .debug_abbrev  0x0000000000001b40      0x3a7 ./HAL/LED.o
 .debug_abbrev  0x0000000000001ee7      0x41e ./HAL/MCU.o
 .debug_abbrev  0x0000000000002305      0x2ab ./HAL/RTC.o
 .debug_abbrev  0x00000000000025b0      0x3db ./APP/resband.o
 .debug_abbrev  0x000000000000298b      0x277 ./APP/resband_main.o

.debug_loc      0x0000000000000000     0x301d
 .debug_loc     0x0000000000000000      0x1f2 ./StdPeriphDriver/CH57x_adc.o
 .debug_loc     0x00000000000001f2      0xb65 ./StdPeriphDriver/CH57x_clk.o
 .debug_loc     0x0000000000000d57      0x361 ./StdPeriphDriver/CH57x_gpio.o
 .debug_loc     0x00000000000010b8      0x2ac ./StdPeriphDriver/CH57x_sys.o
 .debug_loc     0x0000000000001364      0x6d8 ./Profile/battservice.o
 .debug_loc     0x0000000000001a3c      0x35c ./Profile/devinfoservice.o
 .debug_loc     0x0000000000001d98      0x452 ./Profile/resbandservice.o
 .debug_loc     0x00000000000021ea      0x25c ./HAL/AS5600.o
 .debug_loc     0x0000000000002446      0x610 ./HAL/LED.o
 .debug_loc     0x0000000000002a56      0x2ac ./HAL/MCU.o
 .debug_loc     0x0000000000002d02      0x31b ./APP/resband.o

.debug_aranges  0x0000000000000000      0x4d8
 .debug_aranges
                0x0000000000000000       0x70 ./StdPeriphDriver/CH57x_adc.o
 .debug_aranges
                0x0000000000000070       0xb0 ./StdPeriphDriver/CH57x_clk.o
 .debug_aranges
                0x0000000000000120       0x48 ./StdPeriphDriver/CH57x_gpio.o
 .debug_aranges
                0x0000000000000168       0x90 ./StdPeriphDriver/CH57x_sys.o
 .debug_aranges
                0x00000000000001f8       0x38 ./Startup/startup_CH573.o
 .debug_aranges
                0x0000000000000230       0x70 ./Profile/battservice.o
 .debug_aranges
                0x00000000000002a0       0x38 ./Profile/devinfoservice.o
 .debug_aranges
                0x00000000000002d8       0x58 ./Profile/resbandservice.o
 .debug_aranges
                0x0000000000000330       0x68 ./HAL/AS5600.o
 .debug_aranges
                0x0000000000000398       0x58 ./HAL/LED.o
 .debug_aranges
                0x00000000000003f0       0x50 ./HAL/MCU.o
 .debug_aranges
                0x0000000000000440       0x30 ./HAL/RTC.o
 .debug_aranges
                0x0000000000000470       0x40 ./APP/resband.o
 .debug_aranges
                0x00000000000004b0       0x28 ./APP/resband_main.o

.debug_ranges   0x0000000000000000      0x5c0
 .debug_ranges  0x0000000000000000       0x60 ./StdPeriphDriver/CH57x_adc.o
 .debug_ranges  0x0000000000000060      0x150 ./StdPeriphDriver/CH57x_clk.o
 .debug_ranges  0x00000000000001b0       0x38 ./StdPeriphDriver/CH57x_gpio.o
 .debug_ranges  0x00000000000001e8       0x80 ./StdPeriphDriver/CH57x_sys.o
 .debug_ranges  0x0000000000000268       0x30 ./Startup/startup_CH573.o
 .debug_ranges  0x0000000000000298       0x78 ./Profile/battservice.o
 .debug_ranges  0x0000000000000310       0x28 ./Profile/devinfoservice.o
 .debug_ranges  0x0000000000000338       0x48 ./Profile/resbandservice.o
 .debug_ranges  0x0000000000000380       0x58 ./HAL/AS5600.o
 .debug_ranges  0x00000000000003d8       0x60 ./HAL/LED.o
 .debug_ranges  0x0000000000000438       0x80 ./HAL/MCU.o
 .debug_ranges  0x00000000000004b8       0x50 ./HAL/RTC.o
 .debug_ranges  0x0000000000000508       0xa0 ./APP/resband.o
 .debug_ranges  0x00000000000005a8       0x18 ./APP/resband_main.o

.debug_line     0x0000000000000000     0x995f
 .debug_line    0x0000000000000000      0x986 ./StdPeriphDriver/CH57x_adc.o
 .debug_line    0x0000000000000986     0x1ef4 ./StdPeriphDriver/CH57x_clk.o
 .debug_line    0x000000000000287a      0x833 ./StdPeriphDriver/CH57x_gpio.o
 .debug_line    0x00000000000030ad      0xe9a ./StdPeriphDriver/CH57x_sys.o
 .debug_line    0x0000000000003f47      0x2c5 ./Startup/startup_CH573.o
 .debug_line    0x000000000000420c      0xc24 ./Profile/battservice.o
 .debug_line    0x0000000000004e30      0x7db ./Profile/devinfoservice.o
 .debug_line    0x000000000000560b      0x90c ./Profile/resbandservice.o
 .debug_line    0x0000000000005f17      0xbca ./HAL/AS5600.o
 .debug_line    0x0000000000006ae1      0xc4d ./HAL/LED.o
 .debug_line    0x000000000000772e      0xb99 ./HAL/MCU.o
 .debug_line    0x00000000000082c7      0x596 ./HAL/RTC.o
 .debug_line    0x000000000000885d      0xc47 ./APP/resband.o
 .debug_line    0x00000000000094a4      0x4bb ./APP/resband_main.o

.debug_str      0x0000000000000000     0x31e0
 .debug_str     0x0000000000000000      0x9cc ./StdPeriphDriver/CH57x_adc.o
                                        0xa51 (size before relaxing)
 .debug_str     0x00000000000009cc      0x4c7 ./StdPeriphDriver/CH57x_clk.o
                                        0xc51 (size before relaxing)
 .debug_str     0x0000000000000e93      0x193 ./StdPeriphDriver/CH57x_gpio.o
                                        0x928 (size before relaxing)
 .debug_str     0x0000000000001026      0x3d2 ./StdPeriphDriver/CH57x_sys.o
                                        0xbbd (size before relaxing)
 .debug_str     0x00000000000013f8       0x59 ./Startup/startup_CH573.o
                                         0xa8 (size before relaxing)
 .debug_str     0x0000000000001451      0xb68 ./Profile/battservice.o
                                       0x135b (size before relaxing)
 .debug_str     0x0000000000001fb9      0x2cd ./Profile/devinfoservice.o
                                        0xd0b (size before relaxing)
 .debug_str     0x0000000000002286      0x1dd ./Profile/resbandservice.o
                                        0xcc0 (size before relaxing)
 .debug_str     0x0000000000002463      0x151 ./HAL/AS5600.o
                                        0xadc (size before relaxing)
 .debug_str     0x00000000000025b4      0x150 ./HAL/LED.o
                                        0xa84 (size before relaxing)
 .debug_str     0x0000000000002704      0x41a ./HAL/MCU.o
                                        0xea0 (size before relaxing)
 .debug_str     0x0000000000002b1e       0x79 ./HAL/RTC.o
                                        0xa05 (size before relaxing)
 .debug_str     0x0000000000002b97      0x5f3 ./APP/resband.o
                                       0x1601 (size before relaxing)
 .debug_str     0x000000000000318a       0x56 ./APP/resband_main.o
                                        0xb55 (size before relaxing)

.comment        0x0000000000000000       0x33
 .comment       0x0000000000000000       0x33 ./StdPeriphDriver/CH57x_adc.o
                                         0x34 (size before relaxing)
 .comment       0x0000000000000033       0x34 ./StdPeriphDriver/CH57x_clk.o
 .comment       0x0000000000000033       0x34 ./StdPeriphDriver/CH57x_gpio.o
 .comment       0x0000000000000033       0x34 ./StdPeriphDriver/CH57x_sys.o
 .comment       0x0000000000000033       0x34 ./Profile/battservice.o
 .comment       0x0000000000000033       0x34 ./Profile/devinfoservice.o
 .comment       0x0000000000000033       0x34 ./Profile/resbandservice.o
 .comment       0x0000000000000033       0x34 ./HAL/AS5600.o
 .comment       0x0000000000000033       0x34 ./HAL/LED.o
 .comment       0x0000000000000033       0x34 ./HAL/MCU.o
 .comment       0x0000000000000033       0x34 ./HAL/RTC.o
 .comment       0x0000000000000033       0x34 ./APP/resband.o
 .comment       0x0000000000000033       0x34 ./APP/resband_main.o
 .comment       0x0000000000000033       0x34 e:/Workspace/resistance_band/reistance_band_v0_1/SRC/StdPeriphDriver\libISP573.a(ISP573.o)
 .comment       0x0000000000000033       0x34 e:/Workspace/resistance_band/reistance_band_v0_1/resistance_band/LIB\libCH57xBLE.a(message.o)
 .comment       0x0000000000000033       0x34 e:/Workspace/resistance_band/reistance_band_v0_1/resistance_band/LIB\libCH57xBLE.a(tmos.o)
 .comment       0x0000000000000033       0x34 e:/Workspace/resistance_band/reistance_band_v0_1/resistance_band/LIB\libCH57xBLE.a(tmos_hw.o)
 .comment       0x0000000000000033       0x34 e:/Workspace/resistance_band/reistance_band_v0_1/resistance_band/LIB\libCH57xBLE.a(tmos_snv.o)
 .comment       0x0000000000000033       0x34 e:/Workspace/resistance_band/reistance_band_v0_1/resistance_band/LIB\libCH57xBLE.a(gap.o)
 .comment       0x0000000000000033       0x34 e:/Workspace/resistance_band/reistance_band_v0_1/resistance_band/LIB\libCH57xBLE.a(gap_central.o)
 .comment       0x0000000000000033       0x34 e:/Workspace/resistance_band/reistance_band_v0_1/resistance_band/LIB\libCH57xBLE.a(gap_peripheral.o)
 .comment       0x0000000000000033       0x34 e:/Workspace/resistance_band/reistance_band_v0_1/resistance_band/LIB\libCH57xBLE.a(gapgattserver.o)
 .comment       0x0000000000000033       0x34 e:/Workspace/resistance_band/reistance_band_v0_1/resistance_band/LIB\libCH57xBLE.a(gatt.o)
 .comment       0x0000000000000033       0x34 e:/Workspace/resistance_band/reistance_band_v0_1/resistance_band/LIB\libCH57xBLE.a(gatt_uuid.o)
 .comment       0x0000000000000033       0x34 e:/Workspace/resistance_band/reistance_band_v0_1/resistance_band/LIB\libCH57xBLE.a(gattservapp.o)
 .comment       0x0000000000000033       0x34 e:/Workspace/resistance_band/reistance_band_v0_1/resistance_band/LIB\libCH57xBLE.a(l2cap.o)
 .comment       0x0000000000000033       0x34 e:/Workspace/resistance_band/reistance_band_v0_1/resistance_band/LIB\libCH57xBLE.a(l2cap_input.o)
 .comment       0x0000000000000033       0x34 e:/Workspace/resistance_band/reistance_band_v0_1/resistance_band/LIB\libCH57xBLE.a(l2cap_output.o)
 .comment       0x0000000000000033       0x34 e:/Workspace/resistance_band/reistance_band_v0_1/resistance_band/LIB\libCH57xBLE.a(l2cap_sdu.o)
 .comment       0x0000000000000033       0x34 e:/Workspace/resistance_band/reistance_band_v0_1/resistance_band/LIB\libCH57xBLE.a(linkdb.o)
 .comment       0x0000000000000033       0x34 e:/Workspace/resistance_band/reistance_band_v0_1/resistance_band/LIB\libCH57xBLE.a(sm.o)
 .comment       0x0000000000000033       0x34 e:/Workspace/resistance_band/reistance_band_v0_1/resistance_band/LIB\libCH57xBLE.a(host_input.o)
 .comment       0x0000000000000033       0x34 e:/Workspace/resistance_band/reistance_band_v0_1/resistance_band/LIB\libCH57xBLE.a(host_output.o)
 .comment       0x0000000000000033       0x34 e:/Workspace/resistance_band/reistance_band_v0_1/resistance_band/LIB\libCH57xBLE.a(ll_connect.o)
 .comment       0x0000000000000033       0x34 e:/Workspace/resistance_band/reistance_band_v0_1/resistance_band/LIB\libCH57xBLE.a(ll_core.o)
 .comment       0x0000000000000033       0x34 e:/Workspace/resistance_band/reistance_band_v0_1/resistance_band/LIB\libCH57xBLE.a(ll_hop.o)
 .comment       0x0000000000000033       0x34 e:/Workspace/resistance_band/reistance_band_v0_1/resistance_band/LIB\libCH57xBLE.a(ll_master.o)
 .comment       0x0000000000000033       0x34 e:/Workspace/resistance_band/reistance_band_v0_1/resistance_band/LIB\libCH57xBLE.a(ll_pdu.o)
 .comment       0x0000000000000033       0x34 e:/Workspace/resistance_band/reistance_band_v0_1/resistance_band/LIB\libCH57xBLE.a(ll_report.o)
 .comment       0x0000000000000033       0x34 e:/Workspace/resistance_band/reistance_band_v0_1/resistance_band/LIB\libCH57xBLE.a(ll_scan.o)
 .comment       0x0000000000000033       0x34 e:/Workspace/resistance_band/reistance_band_v0_1/resistance_band/LIB\libCH57xBLE.a(ll_slave.o)
 .comment       0x0000000000000033       0x34 e:/Workspace/resistance_band/reistance_band_v0_1/resistance_band/LIB\libCH57xBLE.a(ll_whitelist.o)
 .comment       0x0000000000000033       0x34 e:/Workspace/resistance_band/reistance_band_v0_1/resistance_band/LIB\libCH57xBLE.a(aes.o)
 .comment       0x0000000000000033       0x34 e:/Workspace/resistance_band/reistance_band_v0_1/resistance_band/LIB\libCH57xBLE.a(bb.o)
 .comment       0x0000000000000033       0x34 e:/Workspace/resistance_band/reistance_band_v0_1/resistance_band/LIB\libCH57xBLE.a(dma.o)
 .comment       0x0000000000000033       0x34 e:/Workspace/resistance_band/reistance_band_v0_1/resistance_band/LIB\libCH57xBLE.a(ip.o)
 .comment       0x0000000000000033       0x34 e:/Workspace/resistance_band/reistance_band_v0_1/resistance_band/LIB\libCH57xBLE.a(lle.o)
 .comment       0x0000000000000033       0x34 e:/Workspace/resistance_band/reistance_band_v0_1/resistance_band/LIB\libCH57xBLE.a(rf_fh.o)
 .comment       0x0000000000000033       0x34 e:/Workspace/resistance_band/reistance_band_v0_1/resistance_band/LIB\libCH57xBLE.a(rfend.o)
 .comment       0x0000000000000033       0x34 e:/Workspace/resistance_band/reistance_band_v0_1/resistance_band/LIB\libCH57xBLE.a(api_c.o)
 .comment       0x0000000000000033       0x34 e:/Workspace/resistance_band/reistance_band_v0_1/resistance_band/LIB\libCH57xBLE.a(ctl_input.o)
 .comment       0x0000000000000033       0x34 e:/Workspace/resistance_band/reistance_band_v0_1/resistance_band/LIB\libCH57xBLE.a(ctl_output.o)
 .comment       0x0000000000000033       0x34 e:/Workspace/resistance_band/reistance_band_v0_1/resistance_band/LIB\libCH57xBLE.a(gapbondmgr.o)
 .comment       0x0000000000000033       0x34 e:/Workspace/resistance_band/reistance_band_v0_1/resistance_band/LIB\libCH57xBLE.a(peripheral.o)
 .comment       0x0000000000000033       0x34 e:/Workspace/resistance_band/reistance_band_v0_1/resistance_band/LIB\libCH57xBLE.a(role.o)
 .comment       0x0000000000000033       0x34 e:/Workspace/resistance_band/reistance_band_v0_1/resistance_band/LIB\libCH57xBLE.a(memory.o)
 .comment       0x0000000000000033       0x34 e:/Workspace/resistance_band/reistance_band_v0_1/resistance_band/LIB\libCH57xBLE.a(att.o)
 .comment       0x0000000000000033       0x34 e:/Workspace/resistance_band/reistance_band_v0_1/resistance_band/LIB\libCH57xBLE.a(att_server.o)
 .comment       0x0000000000000033       0x34 e:/Workspace/resistance_band/reistance_band_v0_1/resistance_band/LIB\libCH57xBLE.a(ll.o)
 .comment       0x0000000000000033       0x34 e:/Workspace/resistance_band/reistance_band_v0_1/resistance_band/LIB\libCH57xBLE.a(ll_advertise.o)
 .comment       0x0000000000000033       0x34 e:/Workspace/resistance_band/reistance_band_v0_1/resistance_band/LIB\libCH57xBLE.a(ll_initiate.o)
 .comment       0x0000000000000033       0x34 e:/Workspace/resistance_band/reistance_band_v0_1/resistance_band/LIB\libCH57xBLE.a(ll_resolvinglist.o)
 .comment       0x0000000000000033       0x34 e:/Workspace/resistance_band/reistance_band_v0_1/resistance_band/LIB\libCH57xBLE.a(broadcaster.o)
 .comment       0x0000000000000033       0x34 e:/Workspace/resistance_band/reistance_band_v0_1/resistance_band/LIB\libCH57xBLE.a(ll_address.o)

.debug_frame    0x0000000000000000      0xe3c
 .debug_frame   0x0000000000000000       0xc0 ./StdPeriphDriver/CH57x_adc.o
 .debug_frame   0x00000000000000c0      0x204 ./StdPeriphDriver/CH57x_clk.o
 .debug_frame   0x00000000000002c4       0x70 ./StdPeriphDriver/CH57x_gpio.o
 .debug_frame   0x0000000000000334      0x124 ./StdPeriphDriver/CH57x_sys.o
 .debug_frame   0x0000000000000458      0x164 ./Profile/battservice.o
 .debug_frame   0x00000000000005bc       0x80 ./Profile/devinfoservice.o
 .debug_frame   0x000000000000063c      0x100 ./Profile/resbandservice.o
 .debug_frame   0x000000000000073c      0x198 ./HAL/AS5600.o
 .debug_frame   0x00000000000008d4      0x154 ./HAL/LED.o
 .debug_frame   0x0000000000000a28      0x10c ./HAL/MCU.o
 .debug_frame   0x0000000000000b34       0x50 ./HAL/RTC.o
 .debug_frame   0x0000000000000b84       0xc4 ./APP/resband.o
 .debug_frame   0x0000000000000c48       0x40 ./APP/resband_main.o
 .debug_frame   0x0000000000000c88       0x20 d:/mounriver/mounriver_studio2/resources/app/resources/win32/components/wch/toolchain/risc-v embedded gcc/bin/../lib/gcc/riscv-none-embed/8.2.0/rv32imac/ilp32\libgcc.a(_lshrdi3.o)
 .debug_frame   0x0000000000000ca8       0x54 d:/mounriver/mounriver_studio2/resources/app/resources/win32/components/wch/toolchain/risc-v embedded gcc/bin/../lib/gcc/riscv-none-embed/8.2.0/rv32imac/ilp32\libgcc.a(muldf3.o)
 .debug_frame   0x0000000000000cfc       0x38 d:/mounriver/mounriver_studio2/resources/app/resources/win32/components/wch/toolchain/risc-v embedded gcc/bin/../lib/gcc/riscv-none-embed/8.2.0/rv32imac/ilp32\libgcc.a(floatsidf.o)
 .debug_frame   0x0000000000000d34       0x50 d:/mounriver/mounriver_studio2/resources/app/resources/win32/components/wch/toolchain/risc-v embedded gcc/bin/../lib/gcc/riscv-none-embed/8.2.0/rv32imac/ilp32\libgcc.a(mulsf3.o)
 .debug_frame   0x0000000000000d84       0x20 d:/mounriver/mounriver_studio2/resources/app/resources/win32/components/wch/toolchain/risc-v embedded gcc/bin/../lib/gcc/riscv-none-embed/8.2.0/rv32imac/ilp32\libgcc.a(fixsfsi.o)
 .debug_frame   0x0000000000000da4       0x38 d:/mounriver/mounriver_studio2/resources/app/resources/win32/components/wch/toolchain/risc-v embedded gcc/bin/../lib/gcc/riscv-none-embed/8.2.0/rv32imac/ilp32\libgcc.a(floatsisf.o)
 .debug_frame   0x0000000000000ddc       0x20 d:/mounriver/mounriver_studio2/resources/app/resources/win32/components/wch/toolchain/risc-v embedded gcc/bin/../lib/gcc/riscv-none-embed/8.2.0/rv32imac/ilp32\libgcc.a(truncdfsf2.o)
 .debug_frame   0x0000000000000dfc       0x20 d:/mounriver/mounriver_studio2/resources/app/resources/win32/components/wch/toolchain/risc-v embedded gcc/bin/../lib/gcc/riscv-none-embed/8.2.0/rv32imac/ilp32\libgcc.a(_clzsi2.o)
 .debug_frame   0x0000000000000e1c       0x20 d:/mounriver/mounriver_studio2/resources/app/resources/win32/components/wch/toolchain/risc-v embedded gcc/bin/../lib/gcc/riscv-none-embed/8.2.0/../../../../riscv-none-embed/lib/rv32imac/ilp32\libg_nano.a(lib_a-memcpy.o)
