
Resband.elf:     file format elf32-littleriscv
Resband.elf
architecture: riscv:rv32, flags 0x00000112:
EXEC_P, HAS_SYMS, D_PAGED
start address 0x00000000

Program Header:
    LOAD off    0x00001000 vaddr 0x00000000 paddr 0x00000000 align 2**12
         filesz 0x00000004 memsz 0x00000004 flags r-x
    LOAD off    0x00001800 vaddr 0x20003800 paddr 0x00000004 align 2**12
         filesz 0x000006a0 memsz 0x000006a0 flags r-x
    LOAD off    0x000026a4 vaddr 0x000006a4 paddr 0x000006a4 align 2**12
         filesz 0x0000013c memsz 0x0000013c flags r-x
    LOAD off    0x00002ea0 vaddr 0x20003ea0 paddr 0x000007e0 align 2**12
         filesz 0x00000000 memsz 0x00000160 flags rw-
    LOAD off    0x00003000 vaddr 0x20004000 paddr 0x000007e0 align 2**12
         filesz 0x00000000 memsz 0x00000004 flags rw-
    LOAD off    0x00002e00 vaddr 0x20007e00 paddr 0x20007e00 align 2**12
         filesz 0x00000000 memsz 0x00000200 flags rw-

Sections:
Idx Name            Size      VMA       LMA       File off  Algn  Flags
  0 .init           00000004  00000000  00000000  00001000  2**1  CONTENTS, ALLOC, LOAD, READONLY, CODE
  1 .highcodelalign 00000000  00000004  00000004  000027e0  2**0  CONTENTS
  2 .highcode       000006a0  20003800  00000004  00001800  2**1  CONTENTS, ALLOC, LOAD, READONLY, CODE
  3 .text           0000013c  000006a4  000006a4  000026a4  2**1  CONTENTS, ALLOC, LOAD, READONLY, CODE
  4 .fini           00000000  000007e0  000007e0  000027e0  2**0  CONTENTS, ALLOC, LOAD, CODE
  5 .dalign         00000160  20003ea0  000007e0  00002ea0  2**0  ALLOC
  6 .dlalign        00000000  000007e0  000007e0  000027e0  2**0  CONTENTS
  7 .data           00000000  20004000  20004000  000027e0  2**0  CONTENTS, ALLOC, LOAD, DATA
  8 .bss            00000004  20004000  000007e0  00003000  2**2  ALLOC
  9 .stack          00000200  20007e00  20007e00  00002e00  2**0  ALLOC
 10 .debug_info     00003097  00000000  00000000  000027e0  2**0  CONTENTS, READONLY, DEBUGGING
 11 .debug_abbrev   000008d1  00000000  00000000  00005877  2**0  CONTENTS, READONLY, DEBUGGING
 12 .debug_loc      00000227  00000000  00000000  00006148  2**0  CONTENTS, READONLY, DEBUGGING
 13 .debug_aranges  00000118  00000000  00000000  00006370  2**3  CONTENTS, READONLY, DEBUGGING
 14 .debug_ranges   00000110  00000000  00000000  00006488  2**3  CONTENTS, READONLY, DEBUGGING
 15 .debug_line     00001a42  00000000  00000000  00006598  2**0  CONTENTS, READONLY, DEBUGGING
 16 .debug_str      00000dec  00000000  00000000  00007fda  2**0  CONTENTS, READONLY, DEBUGGING
 17 .comment        00000066  00000000  00000000  00008dc6  2**0  CONTENTS, READONLY
 18 .debug_frame    000001a8  00000000  00000000  00008e2c  2**2  CONTENTS, READONLY, DEBUGGING
SYMBOL TABLE:
00000000 l    d  .init	00000000 .init
00000004 l    d  .highcodelalign	00000000 .highcodelalign
20003800 l    d  .highcode	00000000 .highcode
000006a4 l    d  .text	00000000 .text
000007e0 l    d  .fini	00000000 .fini
20003ea0 l    d  .dalign	00000000 .dalign
000007e0 l    d  .dlalign	00000000 .dlalign
20004000 l    d  .data	00000000 .data
20004000 l    d  .bss	00000000 .bss
20007e00 l    d  .stack	00000000 .stack
00000000 l    d  .debug_info	00000000 .debug_info
00000000 l    d  .debug_abbrev	00000000 .debug_abbrev
00000000 l    d  .debug_loc	00000000 .debug_loc
00000000 l    d  .debug_aranges	00000000 .debug_aranges
00000000 l    d  .debug_ranges	00000000 .debug_ranges
00000000 l    d  .debug_line	00000000 .debug_line
00000000 l    d  .debug_str	00000000 .debug_str
00000000 l    d  .comment	00000000 .comment
00000000 l    d  .debug_frame	00000000 .debug_frame
00000000 l    df *ABS*	00000000 ./Startup/startup_CH573.o
20003800 l       .highcode	00000000 _vector_base
00000000 l    df *ABS*	00000000 CH57x_sys.c
00000000 l    df *ABS*	00000000 RTC.c
00000000 l    df *ABS*	00000000 ISP573.c
20003ab6 l       .highcode	00000000 .loop17
20003ac4 l       .highcode	00000000 .loop28
20003ad2 l       .highcode	00000000 .loop39
20003d60 l       .highcode	00000000 .loop406
00000000 l    df *ABS*	00000000 resband_main.c
20003ad2 g     F .highcode	0000000e FLASH_ROM_OUT
20004800 g       .data	00000000 __global_pointer$
20003a56 g     F .highcode	0000000e mDelayuS
20003a10  w    F .highcode	00000046 HardFault_Handler
2000389c  w      .highcode	00000000 GPIOB_IRQHandler
2000389a  w      .highcode	00000000 GPIOA_IRQHandler
20003894  w      .highcode	00000000 SysTick_Handler
20003890  w      .highcode	00000000 NMI_Handler
200038ac  w      .highcode	00000000 UART1_IRQHandler
20004000 g       .bss	00000000 _sbss
00000200 g       *ABS*	00000000 __stack_size
20004000 g     O .bss	00000004 RTCTigFlag
20003ac4 g     F .highcode	0000000e FLASH_ROM_IN
200038aa  w      .highcode	00000000 UART0_IRQHandler
00000004 g       .init	00000000 _einit
200038a0  w      .highcode	00000000 BB_IRQHandler
20003b60 g     F .highcode	00000340 FLASH_EEPROM_CMD
20003898  w      .highcode	00000000 TMR0_IRQHandler
20003aa6 g     F .highcode	00000010 FLASH_ROM_BEG
20003a64 g     F .highcode	00000028 mDelaymS
20007e00 g       .stack	00000000 _heap_end
20003ae0 g     F .highcode	00000048 FLASH_ROM_ADDR
20003a8c g     F .highcode	0000001a RTC_IRQHandler
20004004 g       .bss	00000000 _ebss
20003b28 g     F .highcode	00000038 FLASH_ROM_WAIT
200038b6  w      .highcode	00000000 UART2_IRQHandler
200038b2  w      .highcode	00000000 PWMX_IRQHandler
00000000 g       .init	00000000 _start
200038b0  w      .highcode	00000000 ADC_IRQHandler
20003800 g       .highcode	00000000 _highcode_vma_start
200038a8  w      .highcode	00000000 TMR2_IRQHandler
20004000 g       .data	00000000 _data_vma
200038bc g     F .highcode	00000118 SetSysClock
200038a4  w      .highcode	00000000 USB_IRQHandler
00000776 g     F .text	00000068 main
00000004 g       .highcodelalign	00000000 _highcode_lma
200038a2  w      .highcode	00000000 LLE_IRQHandler
00000000 g       .init	00000000 _sinit
200038ba  w      .highcode	00000000 WDOG_BAT_IRQHandler
200038b4  w      .highcode	00000000 TMR3_IRQHandler
20008000 g       .stack	00000000 _eusrstack
20003896  w      .highcode	00000000 SW_Handler
20004000 g       .data	00000000 _edata
2000389e  w      .highcode	00000000 SPI0_IRQHandler
20004004 g       .bss	00000000 _end
20003ea0 g       .highcode	00000000 _highcode_vma_end
000007e0 g       .dlalign	00000000 _data_lma
000006a4  w      .text	00000000 handle_reset
200038b8  w      .highcode	00000000 UART3_IRQHandler
20003ab6 g     F .highcode	0000000e FLASH_ROM_END
200038a6  w      .highcode	00000000 TMR1_IRQHandler
200039d4 g     F .highcode	0000003c SYS_ResetExecute



Disassembly of section .init:

00000000 <_sinit>:
_start():
/home/mxk/resband/reistance_band_v0_1/SRC/Startup/startup_CH573.S:17

	.section	.init,"ax",@progbits
	.global	_start
	.align	1
_start:
	j	handle_reset
   0:	6a40006f          	j	6a4 <handle_reset>

Disassembly of section .highcode:

20003800 <_highcode_vma_start>:
	...
_vector_base():
/home/mxk/resband/reistance_band_v0_1/SRC/Startup/startup_CH573.S:25
    .align  1
_vector_base:
    .option norvc;
    .word   0
    .word   0
        j   NMI_Handler                 /* NMI Handler */
20003808:	0880006f          	j	20003890 <NMI_Handler>
/home/mxk/resband/reistance_band_v0_1/SRC/Startup/startup_CH573.S:26
        j   HardFault_Handler           /* Hard Fault Handler */
2000380c:	2040006f          	j	20003a10 <HardFault_Handler>
	...
/home/mxk/resband/reistance_band_v0_1/SRC/Startup/startup_CH573.S:35
    .word   0
    .word   0
    .word   0
    .word   0
    .word   0
        j   SysTick_Handler            /* SysTick Handler */
20003830:	0640006f          	j	20003894 <SysTick_Handler>
20003834:	0000                	unimp
20003836:	0000                	unimp
/home/mxk/resband/reistance_band_v0_1/SRC/Startup/startup_CH573.S:37
    .word   0
        j   SW_Handler                 /* SW Handler */
20003838:	05e0006f          	j	20003896 <SW_Handler>
2000383c:	0000                	unimp
2000383e:	0000                	unimp
/home/mxk/resband/reistance_band_v0_1/SRC/Startup/startup_CH573.S:40
    .word   0
    /* External Interrupts */
        j   TMR0_IRQHandler            /* 0:  TMR0 */
20003840:	0580006f          	j	20003898 <TMR0_IRQHandler>
/home/mxk/resband/reistance_band_v0_1/SRC/Startup/startup_CH573.S:41
        j   GPIOA_IRQHandler           /* GPIOA */
20003844:	0560006f          	j	2000389a <GPIOA_IRQHandler>
/home/mxk/resband/reistance_band_v0_1/SRC/Startup/startup_CH573.S:42
        j   GPIOB_IRQHandler           /* GPIOB */
20003848:	0540006f          	j	2000389c <GPIOB_IRQHandler>
/home/mxk/resband/reistance_band_v0_1/SRC/Startup/startup_CH573.S:43
        j   SPI0_IRQHandler            /* SPI0 */
2000384c:	0520006f          	j	2000389e <SPI0_IRQHandler>
/home/mxk/resband/reistance_band_v0_1/SRC/Startup/startup_CH573.S:44
        j   BB_IRQHandler              /* BLEB */
20003850:	0500006f          	j	200038a0 <BB_IRQHandler>
/home/mxk/resband/reistance_band_v0_1/SRC/Startup/startup_CH573.S:45
        j   LLE_IRQHandler             /* BLEL */
20003854:	04e0006f          	j	200038a2 <LLE_IRQHandler>
/home/mxk/resband/reistance_band_v0_1/SRC/Startup/startup_CH573.S:46
        j   USB_IRQHandler             /* USB */
20003858:	04c0006f          	j	200038a4 <USB_IRQHandler>
2000385c:	0000                	unimp
2000385e:	0000                	unimp
/home/mxk/resband/reistance_band_v0_1/SRC/Startup/startup_CH573.S:48
        .word   0
        j   TMR1_IRQHandler            /* TMR1 */
20003860:	0460006f          	j	200038a6 <TMR1_IRQHandler>
/home/mxk/resband/reistance_band_v0_1/SRC/Startup/startup_CH573.S:49
        j   TMR2_IRQHandler            /* TMR2 */
20003864:	0440006f          	j	200038a8 <TMR2_IRQHandler>
/home/mxk/resband/reistance_band_v0_1/SRC/Startup/startup_CH573.S:50
        j   UART0_IRQHandler           /* UART0 */
20003868:	0420006f          	j	200038aa <UART0_IRQHandler>
/home/mxk/resband/reistance_band_v0_1/SRC/Startup/startup_CH573.S:51
        j   UART1_IRQHandler           /* UART1 */
2000386c:	0400006f          	j	200038ac <UART1_IRQHandler>
/home/mxk/resband/reistance_band_v0_1/SRC/Startup/startup_CH573.S:52
        j   RTC_IRQHandler             /* RTC */
20003870:	21c0006f          	j	20003a8c <RTC_IRQHandler>
/home/mxk/resband/reistance_band_v0_1/SRC/Startup/startup_CH573.S:53
        j   ADC_IRQHandler             /* ADC */
20003874:	03c0006f          	j	200038b0 <ADC_IRQHandler>
20003878:	0000                	unimp
2000387a:	0000                	unimp
/home/mxk/resband/reistance_band_v0_1/SRC/Startup/startup_CH573.S:55
        .word   0
        j   PWMX_IRQHandler            /* PWMX */
2000387c:	0360006f          	j	200038b2 <PWMX_IRQHandler>
/home/mxk/resband/reistance_band_v0_1/SRC/Startup/startup_CH573.S:56
        j   TMR3_IRQHandler            /* TMR3 */
20003880:	0340006f          	j	200038b4 <TMR3_IRQHandler>
/home/mxk/resband/reistance_band_v0_1/SRC/Startup/startup_CH573.S:57
        j   UART2_IRQHandler           /* UART2 */
20003884:	0320006f          	j	200038b6 <UART2_IRQHandler>
/home/mxk/resband/reistance_band_v0_1/SRC/Startup/startup_CH573.S:58
        j   UART3_IRQHandler           /* UART3 */
20003888:	0300006f          	j	200038b8 <UART3_IRQHandler>
/home/mxk/resband/reistance_band_v0_1/SRC/Startup/startup_CH573.S:59
        j   WDOG_BAT_IRQHandler        /* WDOG_BAT */
2000388c:	02e0006f          	j	200038ba <WDOG_BAT_IRQHandler>

20003890 <NMI_Handler>:
NMI_Handler():
/home/mxk/resband/reistance_band_v0_1/SRC/Startup/startup_CH573.S:87
    .weak   TMR3_IRQHandler
    .weak   UART2_IRQHandler
    .weak   UART3_IRQHandler
    .weak   WDOG_BAT_IRQHandler

NMI_Handler:  1:  j 1b
20003890:	a001                	j	20003890 <NMI_Handler>
/home/mxk/resband/reistance_band_v0_1/SRC/Startup/startup_CH573.S:88
HardFault_Handler:  1:  j 1b
20003892:	a001                	j	20003892 <NMI_Handler+0x2>

20003894 <SysTick_Handler>:
SysTick_Handler():
/home/mxk/resband/reistance_band_v0_1/SRC/Startup/startup_CH573.S:89
SysTick_Handler:  1:  j 1b
20003894:	a001                	j	20003894 <SysTick_Handler>

20003896 <SW_Handler>:
SW_Handler():
/home/mxk/resband/reistance_band_v0_1/SRC/Startup/startup_CH573.S:90
SW_Handler:  1:  j 1b
20003896:	a001                	j	20003896 <SW_Handler>

20003898 <TMR0_IRQHandler>:
TMR0_IRQHandler():
/home/mxk/resband/reistance_band_v0_1/SRC/Startup/startup_CH573.S:91
TMR0_IRQHandler:  1:  j 1b
20003898:	a001                	j	20003898 <TMR0_IRQHandler>

2000389a <GPIOA_IRQHandler>:
GPIOA_IRQHandler():
/home/mxk/resband/reistance_band_v0_1/SRC/Startup/startup_CH573.S:92
GPIOA_IRQHandler:  1:  j 1b
2000389a:	a001                	j	2000389a <GPIOA_IRQHandler>

2000389c <GPIOB_IRQHandler>:
GPIOB_IRQHandler():
/home/mxk/resband/reistance_band_v0_1/SRC/Startup/startup_CH573.S:93
GPIOB_IRQHandler:  1:  j 1b
2000389c:	a001                	j	2000389c <GPIOB_IRQHandler>

2000389e <SPI0_IRQHandler>:
SPI0_IRQHandler():
/home/mxk/resband/reistance_band_v0_1/SRC/Startup/startup_CH573.S:94
SPI0_IRQHandler:  1:  j 1b
2000389e:	a001                	j	2000389e <SPI0_IRQHandler>

200038a0 <BB_IRQHandler>:
BB_IRQHandler():
/home/mxk/resband/reistance_band_v0_1/SRC/Startup/startup_CH573.S:95
BB_IRQHandler:  1:  j 1b
200038a0:	a001                	j	200038a0 <BB_IRQHandler>

200038a2 <LLE_IRQHandler>:
LLE_IRQHandler():
/home/mxk/resband/reistance_band_v0_1/SRC/Startup/startup_CH573.S:96
LLE_IRQHandler:  1:  j 1b
200038a2:	a001                	j	200038a2 <LLE_IRQHandler>

200038a4 <USB_IRQHandler>:
USB_IRQHandler():
/home/mxk/resband/reistance_band_v0_1/SRC/Startup/startup_CH573.S:97
USB_IRQHandler:  1:  j 1b
200038a4:	a001                	j	200038a4 <USB_IRQHandler>

200038a6 <TMR1_IRQHandler>:
TMR1_IRQHandler():
/home/mxk/resband/reistance_band_v0_1/SRC/Startup/startup_CH573.S:98
TMR1_IRQHandler:  1:  j 1b
200038a6:	a001                	j	200038a6 <TMR1_IRQHandler>

200038a8 <TMR2_IRQHandler>:
TMR2_IRQHandler():
/home/mxk/resband/reistance_band_v0_1/SRC/Startup/startup_CH573.S:99
TMR2_IRQHandler:  1:  j 1b
200038a8:	a001                	j	200038a8 <TMR2_IRQHandler>

200038aa <UART0_IRQHandler>:
UART0_IRQHandler():
/home/mxk/resband/reistance_band_v0_1/SRC/Startup/startup_CH573.S:100
UART0_IRQHandler:  1:  j 1b
200038aa:	a001                	j	200038aa <UART0_IRQHandler>

200038ac <UART1_IRQHandler>:
UART1_IRQHandler():
/home/mxk/resband/reistance_band_v0_1/SRC/Startup/startup_CH573.S:101
UART1_IRQHandler:  1:  j 1b
200038ac:	a001                	j	200038ac <UART1_IRQHandler>
/home/mxk/resband/reistance_band_v0_1/SRC/Startup/startup_CH573.S:102
RTC_IRQHandler:  1:  j 1b
200038ae:	a001                	j	200038ae <UART1_IRQHandler+0x2>

200038b0 <ADC_IRQHandler>:
ADC_IRQHandler():
/home/mxk/resband/reistance_band_v0_1/SRC/Startup/startup_CH573.S:103
ADC_IRQHandler:  1:  j 1b
200038b0:	a001                	j	200038b0 <ADC_IRQHandler>

200038b2 <PWMX_IRQHandler>:
PWMX_IRQHandler():
/home/mxk/resband/reistance_band_v0_1/SRC/Startup/startup_CH573.S:104
PWMX_IRQHandler:  1:  j 1b
200038b2:	a001                	j	200038b2 <PWMX_IRQHandler>

200038b4 <TMR3_IRQHandler>:
TMR3_IRQHandler():
/home/mxk/resband/reistance_band_v0_1/SRC/Startup/startup_CH573.S:105
TMR3_IRQHandler:  1:  j 1b
200038b4:	a001                	j	200038b4 <TMR3_IRQHandler>

200038b6 <UART2_IRQHandler>:
UART2_IRQHandler():
/home/mxk/resband/reistance_band_v0_1/SRC/Startup/startup_CH573.S:106
UART2_IRQHandler:  1:  j 1b
200038b6:	a001                	j	200038b6 <UART2_IRQHandler>

200038b8 <UART3_IRQHandler>:
UART3_IRQHandler():
/home/mxk/resband/reistance_band_v0_1/SRC/Startup/startup_CH573.S:107
UART3_IRQHandler:  1:  j 1b
200038b8:	a001                	j	200038b8 <UART3_IRQHandler>

200038ba <WDOG_BAT_IRQHandler>:
WDOG_BAT_IRQHandler():
/home/mxk/resband/reistance_band_v0_1/SRC/Startup/startup_CH573.S:108
WDOG_BAT_IRQHandler:  1:  j 1b
200038ba:	a001                	j	200038ba <WDOG_BAT_IRQHandler>

200038bc <SetSysClock>:
sys_safe_access_enable():
/home/mxk/resband/reistance_band_v0_1/SRC/StdPeriphDriver/inc/CH57x_sys.h:178
 * @NOTE: 进入安全访问模式后约16个系统主频周期都处于安全模式下，
 * 该有效期内可以改写一个或多个安全类寄存器，超出上述有效期后将自动终止安全模式。
 */
 __attribute__((always_inline)) static inline void sys_safe_access_enable(void)
{
    R8_SAFE_ACCESS_SIG = SAFE_ACCESS_SIG1;
200038bc:	400017b7          	lui	a5,0x40001
200038c0:	05700693          	li	a3,87
200038c4:	04d78023          	sb	a3,64(a5) # 40001040 <_eusrstack+0x1fff9040>
/home/mxk/resband/reistance_band_v0_1/SRC/StdPeriphDriver/inc/CH57x_sys.h:179
    R8_SAFE_ACCESS_SIG = SAFE_ACCESS_SIG2;
200038c8:	fa800713          	li	a4,-88
200038cc:	04e78023          	sb	a4,64(a5)
/home/mxk/resband/reistance_band_v0_1/SRC/StdPeriphDriver/inc/CH57x_sys.h:180
    asm volatile("fence.i");
200038d0:	0000100f          	fence.i
SetSysClock():
/home/mxk/resband/reistance_band_v0_1/SRC/StdPeriphDriver/CH57x_sys.c:29
__attribute__((section(".highcode")))
void SetSysClock(SYS_CLKTypeDef sc)
{
    uint32_t i;
    sys_safe_access_enable();
    R8_PLL_CONFIG &= ~(1 << 5); //
200038d4:	04b7c603          	lbu	a2,75(a5)
200038d8:	0df67613          	andi	a2,a2,223
200038dc:	04c785a3          	sb	a2,75(a5)
sys_safe_access_disable():
/home/mxk/resband/reistance_band_v0_1/SRC/StdPeriphDriver/inc/CH57x_sys.h:185
}

__attribute__((always_inline)) static inline void sys_safe_access_disable(void)
{
    R8_SAFE_ACCESS_SIG = 0;
200038e0:	04078023          	sb	zero,64(a5)
SetSysClock():
/home/mxk/resband/reistance_band_v0_1/SRC/StdPeriphDriver/CH57x_sys.c:31
    sys_safe_access_disable();
    if(sc & 0x20)
200038e4:	02057613          	andi	a2,a0,32
200038e8:	ca3d                	beqz	a2,2000395e <SetSysClock+0xa2>
/home/mxk/resband/reistance_band_v0_1/SRC/StdPeriphDriver/CH57x_sys.c:33
    { // HSE div
        if(!(R8_HFCK_PWR_CTRL & RB_CLK_XT32M_PON))
200038ea:	00a7c603          	lbu	a2,10(a5)
200038ee:	8a11                	andi	a2,a2,4
200038f0:	e21d                	bnez	a2,20003916 <SetSysClock+0x5a>
sys_safe_access_enable():
/home/mxk/resband/reistance_band_v0_1/SRC/StdPeriphDriver/inc/CH57x_sys.h:178
    R8_SAFE_ACCESS_SIG = SAFE_ACCESS_SIG1;
200038f2:	04d78023          	sb	a3,64(a5)
/home/mxk/resband/reistance_band_v0_1/SRC/StdPeriphDriver/inc/CH57x_sys.h:179
    R8_SAFE_ACCESS_SIG = SAFE_ACCESS_SIG2;
200038f6:	04e78023          	sb	a4,64(a5)
/home/mxk/resband/reistance_band_v0_1/SRC/StdPeriphDriver/inc/CH57x_sys.h:180
    asm volatile("fence.i");
200038fa:	0000100f          	fence.i
SetSysClock():
/home/mxk/resband/reistance_band_v0_1/SRC/StdPeriphDriver/CH57x_sys.c:36
        {
            sys_safe_access_enable();
            R8_HFCK_PWR_CTRL |= RB_CLK_XT32M_PON; // HSE power on
200038fe:	00a7c703          	lbu	a4,10(a5)
20003902:	00476713          	ori	a4,a4,4
20003906:	00e78523          	sb	a4,10(a5)
2000390a:	4b000793          	li	a5,1200
/home/mxk/resband/reistance_band_v0_1/SRC/StdPeriphDriver/CH57x_sys.c:39 (discriminator 3)
            for(i = 0; i < 1200; i++)
            {
                __nop();
2000390e:	0001                	nop
/home/mxk/resband/reistance_band_v0_1/SRC/StdPeriphDriver/CH57x_sys.c:40 (discriminator 3)
                __nop();
20003910:	0001                	nop
20003912:	17fd                	addi	a5,a5,-1
/home/mxk/resband/reistance_band_v0_1/SRC/StdPeriphDriver/CH57x_sys.c:37 (discriminator 3)
            for(i = 0; i < 1200; i++)
20003914:	ffed                	bnez	a5,2000390e <SetSysClock+0x52>
sys_safe_access_enable():
/home/mxk/resband/reistance_band_v0_1/SRC/StdPeriphDriver/inc/CH57x_sys.h:178
    R8_SAFE_ACCESS_SIG = SAFE_ACCESS_SIG1;
20003916:	400017b7          	lui	a5,0x40001
2000391a:	05700693          	li	a3,87
2000391e:	04d78023          	sb	a3,64(a5) # 40001040 <_eusrstack+0x1fff9040>
/home/mxk/resband/reistance_band_v0_1/SRC/StdPeriphDriver/inc/CH57x_sys.h:179
    R8_SAFE_ACCESS_SIG = SAFE_ACCESS_SIG2;
20003922:	fa800713          	li	a4,-88
20003926:	04e78023          	sb	a4,64(a5)
/home/mxk/resband/reistance_band_v0_1/SRC/StdPeriphDriver/inc/CH57x_sys.h:180
    asm volatile("fence.i");
2000392a:	0000100f          	fence.i
SetSysClock():
/home/mxk/resband/reistance_band_v0_1/SRC/StdPeriphDriver/CH57x_sys.c:45
            }
        }

        sys_safe_access_enable();
        R16_CLK_SYS_CFG = (0 << 6) | (sc & 0x1f);
2000392e:	897d                	andi	a0,a0,31
20003930:	00a79423          	sh	a0,8(a5)
/home/mxk/resband/reistance_band_v0_1/SRC/StdPeriphDriver/CH57x_sys.c:46
        __nop();
20003934:	0001                	nop
/home/mxk/resband/reistance_band_v0_1/SRC/StdPeriphDriver/CH57x_sys.c:47
        __nop();
20003936:	0001                	nop
/home/mxk/resband/reistance_band_v0_1/SRC/StdPeriphDriver/CH57x_sys.c:48
        __nop();
20003938:	0001                	nop
/home/mxk/resband/reistance_band_v0_1/SRC/StdPeriphDriver/CH57x_sys.c:49
        __nop();
2000393a:	0001                	nop
sys_safe_access_disable():
/home/mxk/resband/reistance_band_v0_1/SRC/StdPeriphDriver/inc/CH57x_sys.h:185
    R8_SAFE_ACCESS_SIG = 0;
2000393c:	04078023          	sb	zero,64(a5)
sys_safe_access_enable():
/home/mxk/resband/reistance_band_v0_1/SRC/StdPeriphDriver/inc/CH57x_sys.h:178
    R8_SAFE_ACCESS_SIG = SAFE_ACCESS_SIG1;
20003940:	04d78023          	sb	a3,64(a5)
/home/mxk/resband/reistance_band_v0_1/SRC/StdPeriphDriver/inc/CH57x_sys.h:179
    R8_SAFE_ACCESS_SIG = SAFE_ACCESS_SIG2;
20003944:	04e78023          	sb	a4,64(a5)
/home/mxk/resband/reistance_band_v0_1/SRC/StdPeriphDriver/inc/CH57x_sys.h:180
    asm volatile("fence.i");
20003948:	0000100f          	fence.i
SetSysClock():
/home/mxk/resband/reistance_band_v0_1/SRC/StdPeriphDriver/CH57x_sys.c:52
        sys_safe_access_disable();
        sys_safe_access_enable();
        R8_FLASH_CFG = 0X51;
2000394c:	40002737          	lui	a4,0x40002
20003950:	05100693          	li	a3,81
/home/mxk/resband/reistance_band_v0_1/SRC/StdPeriphDriver/CH57x_sys.c:76
        __nop();
        __nop();
        __nop();
        sys_safe_access_disable();
        sys_safe_access_enable();
        R8_FLASH_CFG = 0X53;
20003954:	80d703a3          	sb	a3,-2041(a4) # 40001807 <_eusrstack+0x1fff9807>
sys_safe_access_disable():
/home/mxk/resband/reistance_band_v0_1/SRC/StdPeriphDriver/inc/CH57x_sys.h:185
    R8_SAFE_ACCESS_SIG = 0;
20003958:	04078023          	sb	zero,64(a5)
SetSysClock():
/home/mxk/resband/reistance_band_v0_1/SRC/StdPeriphDriver/CH57x_sys.c:79
        sys_safe_access_disable();
    }
}
2000395c:	8082                	ret
/home/mxk/resband/reistance_band_v0_1/SRC/StdPeriphDriver/CH57x_sys.c:56
    else if(sc & 0x40)
2000395e:	04057613          	andi	a2,a0,64
20003962:	de6d                	beqz	a2,2000395c <SetSysClock+0xa0>
/home/mxk/resband/reistance_band_v0_1/SRC/StdPeriphDriver/CH57x_sys.c:58
        if(!(R8_HFCK_PWR_CTRL & RB_CLK_PLL_PON))
20003964:	00a7c603          	lbu	a2,10(a5)
20003968:	8a41                	andi	a2,a2,16
2000396a:	e21d                	bnez	a2,20003990 <SetSysClock+0xd4>
sys_safe_access_enable():
/home/mxk/resband/reistance_band_v0_1/SRC/StdPeriphDriver/inc/CH57x_sys.h:178
    R8_SAFE_ACCESS_SIG = SAFE_ACCESS_SIG1;
2000396c:	04d78023          	sb	a3,64(a5)
/home/mxk/resband/reistance_band_v0_1/SRC/StdPeriphDriver/inc/CH57x_sys.h:179
    R8_SAFE_ACCESS_SIG = SAFE_ACCESS_SIG2;
20003970:	04e78023          	sb	a4,64(a5)
/home/mxk/resband/reistance_band_v0_1/SRC/StdPeriphDriver/inc/CH57x_sys.h:180
    asm volatile("fence.i");
20003974:	0000100f          	fence.i
SetSysClock():
/home/mxk/resband/reistance_band_v0_1/SRC/StdPeriphDriver/CH57x_sys.c:61
            R8_HFCK_PWR_CTRL |= RB_CLK_PLL_PON; // PLL power on
20003978:	00a7c703          	lbu	a4,10(a5)
2000397c:	01076713          	ori	a4,a4,16
20003980:	00e78523          	sb	a4,10(a5)
20003984:	7d000793          	li	a5,2000
/home/mxk/resband/reistance_band_v0_1/SRC/StdPeriphDriver/CH57x_sys.c:64 (discriminator 3)
                __nop();
20003988:	0001                	nop
/home/mxk/resband/reistance_band_v0_1/SRC/StdPeriphDriver/CH57x_sys.c:65 (discriminator 3)
                __nop();
2000398a:	0001                	nop
2000398c:	17fd                	addi	a5,a5,-1
/home/mxk/resband/reistance_band_v0_1/SRC/StdPeriphDriver/CH57x_sys.c:62 (discriminator 3)
            for(i = 0; i < 2000; i++)
2000398e:	ffed                	bnez	a5,20003988 <SetSysClock+0xcc>
sys_safe_access_enable():
/home/mxk/resband/reistance_band_v0_1/SRC/StdPeriphDriver/inc/CH57x_sys.h:178
    R8_SAFE_ACCESS_SIG = SAFE_ACCESS_SIG1;
20003990:	400017b7          	lui	a5,0x40001
20003994:	05700693          	li	a3,87
20003998:	04d78023          	sb	a3,64(a5) # 40001040 <_eusrstack+0x1fff9040>
/home/mxk/resband/reistance_band_v0_1/SRC/StdPeriphDriver/inc/CH57x_sys.h:179
    R8_SAFE_ACCESS_SIG = SAFE_ACCESS_SIG2;
2000399c:	fa800713          	li	a4,-88
200039a0:	04e78023          	sb	a4,64(a5)
/home/mxk/resband/reistance_band_v0_1/SRC/StdPeriphDriver/inc/CH57x_sys.h:180
    asm volatile("fence.i");
200039a4:	0000100f          	fence.i
SetSysClock():
/home/mxk/resband/reistance_band_v0_1/SRC/StdPeriphDriver/CH57x_sys.c:69
        R16_CLK_SYS_CFG = (1 << 6) | (sc & 0x1f);
200039a8:	897d                	andi	a0,a0,31
200039aa:	04056513          	ori	a0,a0,64
200039ae:	00a79423          	sh	a0,8(a5)
/home/mxk/resband/reistance_band_v0_1/SRC/StdPeriphDriver/CH57x_sys.c:70
        __nop();
200039b2:	0001                	nop
/home/mxk/resband/reistance_band_v0_1/SRC/StdPeriphDriver/CH57x_sys.c:71
        __nop();
200039b4:	0001                	nop
/home/mxk/resband/reistance_band_v0_1/SRC/StdPeriphDriver/CH57x_sys.c:72
        __nop();
200039b6:	0001                	nop
/home/mxk/resband/reistance_band_v0_1/SRC/StdPeriphDriver/CH57x_sys.c:73
        __nop();
200039b8:	0001                	nop
sys_safe_access_disable():
/home/mxk/resband/reistance_band_v0_1/SRC/StdPeriphDriver/inc/CH57x_sys.h:185
    R8_SAFE_ACCESS_SIG = 0;
200039ba:	04078023          	sb	zero,64(a5)
sys_safe_access_enable():
/home/mxk/resband/reistance_band_v0_1/SRC/StdPeriphDriver/inc/CH57x_sys.h:178
    R8_SAFE_ACCESS_SIG = SAFE_ACCESS_SIG1;
200039be:	04d78023          	sb	a3,64(a5)
/home/mxk/resband/reistance_band_v0_1/SRC/StdPeriphDriver/inc/CH57x_sys.h:179
    R8_SAFE_ACCESS_SIG = SAFE_ACCESS_SIG2;
200039c2:	04e78023          	sb	a4,64(a5)
/home/mxk/resband/reistance_band_v0_1/SRC/StdPeriphDriver/inc/CH57x_sys.h:180
    asm volatile("fence.i");
200039c6:	0000100f          	fence.i
SetSysClock():
/home/mxk/resband/reistance_band_v0_1/SRC/StdPeriphDriver/CH57x_sys.c:76
        R8_FLASH_CFG = 0X53;
200039ca:	40002737          	lui	a4,0x40002
200039ce:	05300693          	li	a3,83
200039d2:	b749                	j	20003954 <SetSysClock+0x98>

200039d4 <SYS_ResetExecute>:
SYS_ResetExecute():
/home/mxk/resband/reistance_band_v0_1/SRC/StdPeriphDriver/CH57x_sys.c:141
 *
 * @return  none
 */
__attribute__((section(".highcode")))
void SYS_ResetExecute(void)
{
200039d4:	1141                	addi	sp,sp,-16
/home/mxk/resband/reistance_band_v0_1/SRC/StdPeriphDriver/CH57x_sys.c:142
    FLASH_ROM_SW_RESET();
200039d6:	4681                	li	a3,0
200039d8:	4601                	li	a2,0
200039da:	4581                	li	a1,0
200039dc:	4511                	li	a0,4
/home/mxk/resband/reistance_band_v0_1/SRC/StdPeriphDriver/CH57x_sys.c:141
{
200039de:	c606                	sw	ra,12(sp)
/home/mxk/resband/reistance_band_v0_1/SRC/StdPeriphDriver/CH57x_sys.c:142
    FLASH_ROM_SW_RESET();
200039e0:	2241                	jal	20003b60 <FLASH_EEPROM_CMD>
sys_safe_access_enable():
/home/mxk/resband/reistance_band_v0_1/SRC/StdPeriphDriver/inc/CH57x_sys.h:178
    R8_SAFE_ACCESS_SIG = SAFE_ACCESS_SIG1;
200039e2:	400017b7          	lui	a5,0x40001
200039e6:	05700713          	li	a4,87
200039ea:	04e78023          	sb	a4,64(a5) # 40001040 <_eusrstack+0x1fff9040>
/home/mxk/resband/reistance_band_v0_1/SRC/StdPeriphDriver/inc/CH57x_sys.h:179
    R8_SAFE_ACCESS_SIG = SAFE_ACCESS_SIG2;
200039ee:	fa800713          	li	a4,-88
200039f2:	04e78023          	sb	a4,64(a5)
/home/mxk/resband/reistance_band_v0_1/SRC/StdPeriphDriver/inc/CH57x_sys.h:180
    asm volatile("fence.i");
200039f6:	0000100f          	fence.i
SYS_ResetExecute():
/home/mxk/resband/reistance_band_v0_1/SRC/StdPeriphDriver/CH57x_sys.c:144
    sys_safe_access_enable();
    R8_RST_WDOG_CTRL |= RB_SOFTWARE_RESET;
200039fa:	0467c703          	lbu	a4,70(a5)
200039fe:	00176713          	ori	a4,a4,1
20003a02:	04e78323          	sb	a4,70(a5)
sys_safe_access_disable():
/home/mxk/resband/reistance_band_v0_1/SRC/StdPeriphDriver/inc/CH57x_sys.h:185
    R8_SAFE_ACCESS_SIG = 0;
20003a06:	04078023          	sb	zero,64(a5)
SYS_ResetExecute():
/home/mxk/resband/reistance_band_v0_1/SRC/StdPeriphDriver/CH57x_sys.c:146
    sys_safe_access_disable();
}
20003a0a:	40b2                	lw	ra,12(sp)
20003a0c:	0141                	addi	sp,sp,16
20003a0e:	8082                	ret

20003a10 <HardFault_Handler>:
HardFault_Handler():
/home/mxk/resband/reistance_band_v0_1/SRC/StdPeriphDriver/CH57x_sys.c:281
__attribute__((interrupt("WCH-Interrupt-fast")))
__attribute__((section(".highcode")))
__attribute__((weak))
void HardFault_Handler(void)
{
    FLASH_ROM_SW_RESET();
20003a10:	4681                	li	a3,0
20003a12:	4601                	li	a2,0
20003a14:	4581                	li	a1,0
20003a16:	4511                	li	a0,4
20003a18:	22a1                	jal	20003b60 <FLASH_EEPROM_CMD>
sys_safe_access_enable():
/home/mxk/resband/reistance_band_v0_1/SRC/StdPeriphDriver/inc/CH57x_sys.h:178
    R8_SAFE_ACCESS_SIG = SAFE_ACCESS_SIG1;
20003a1a:	400017b7          	lui	a5,0x40001
20003a1e:	05700693          	li	a3,87
20003a22:	04d78023          	sb	a3,64(a5) # 40001040 <_eusrstack+0x1fff9040>
/home/mxk/resband/reistance_band_v0_1/SRC/StdPeriphDriver/inc/CH57x_sys.h:179
    R8_SAFE_ACCESS_SIG = SAFE_ACCESS_SIG2;
20003a26:	fa800713          	li	a4,-88
20003a2a:	04e78023          	sb	a4,64(a5)
/home/mxk/resband/reistance_band_v0_1/SRC/StdPeriphDriver/inc/CH57x_sys.h:180
    asm volatile("fence.i");
20003a2e:	0000100f          	fence.i
HardFault_Handler():
/home/mxk/resband/reistance_band_v0_1/SRC/StdPeriphDriver/CH57x_sys.c:283
    sys_safe_access_enable();
    R16_INT32K_TUNE = 0xFFFF;
20003a32:	567d                	li	a2,-1
20003a34:	02c79623          	sh	a2,44(a5)
sys_safe_access_enable():
/home/mxk/resband/reistance_band_v0_1/SRC/StdPeriphDriver/inc/CH57x_sys.h:178
    R8_SAFE_ACCESS_SIG = SAFE_ACCESS_SIG1;
20003a38:	04d78023          	sb	a3,64(a5)
/home/mxk/resband/reistance_band_v0_1/SRC/StdPeriphDriver/inc/CH57x_sys.h:179
    R8_SAFE_ACCESS_SIG = SAFE_ACCESS_SIG2;
20003a3c:	04e78023          	sb	a4,64(a5)
/home/mxk/resband/reistance_band_v0_1/SRC/StdPeriphDriver/inc/CH57x_sys.h:180
    asm volatile("fence.i");
20003a40:	0000100f          	fence.i
HardFault_Handler():
/home/mxk/resband/reistance_band_v0_1/SRC/StdPeriphDriver/CH57x_sys.c:285
    sys_safe_access_enable();
    R8_RST_WDOG_CTRL |= RB_SOFTWARE_RESET;
20003a44:	0467c703          	lbu	a4,70(a5)
20003a48:	00176713          	ori	a4,a4,1
20003a4c:	04e78323          	sb	a4,70(a5)
sys_safe_access_disable():
/home/mxk/resband/reistance_band_v0_1/SRC/StdPeriphDriver/inc/CH57x_sys.h:185
    R8_SAFE_ACCESS_SIG = 0;
20003a50:	04078023          	sb	zero,64(a5)
HardFault_Handler():
/home/mxk/resband/reistance_band_v0_1/SRC/StdPeriphDriver/CH57x_sys.c:287 (discriminator 1)
    sys_safe_access_disable();
    while(1);
20003a54:	a001                	j	20003a54 <HardFault_Handler+0x44>

20003a56 <mDelayuS>:
mDelayuS():
/home/mxk/resband/reistance_band_v0_1/SRC/StdPeriphDriver/CH57x_sys.c:304
__attribute__((section(".highcode")))
void mDelayuS(uint16_t t)
{
    uint32_t i;
#if(FREQ_SYS == 60000000)
    i = t * 15;
20003a56:	47bd                	li	a5,15
20003a58:	02f50533          	mul	a0,a0,a5
/home/mxk/resband/reistance_band_v0_1/SRC/StdPeriphDriver/CH57x_sys.c:326 (discriminator 1)
#elif(FREQ_SYS == 1000000)
    i = t >> 2;
#endif
    do
    {
        __nop();
20003a5c:	0001                	nop
/home/mxk/resband/reistance_band_v0_1/SRC/StdPeriphDriver/CH57x_sys.c:327 (discriminator 1)
    } while(--i);
20003a5e:	157d                	addi	a0,a0,-1
20003a60:	fd75                	bnez	a0,20003a5c <mDelayuS+0x6>
/home/mxk/resband/reistance_band_v0_1/SRC/StdPeriphDriver/CH57x_sys.c:328
}
20003a62:	8082                	ret

20003a64 <mDelaymS>:
mDelaymS():
/home/mxk/resband/reistance_band_v0_1/SRC/StdPeriphDriver/CH57x_sys.c:341
 *
 * @return  none
 */
__attribute__((section(".highcode")))
void mDelaymS(uint16_t t)
{
20003a64:	1141                	addi	sp,sp,-16
20003a66:	c422                	sw	s0,8(sp)
20003a68:	c226                	sw	s1,4(sp)
20003a6a:	c606                	sw	ra,12(sp)
20003a6c:	84aa                	mv	s1,a0
/home/mxk/resband/reistance_band_v0_1/SRC/StdPeriphDriver/CH57x_sys.c:344
    uint16_t i;

    for(i = 0; i < t; i++)
20003a6e:	4401                	li	s0,0
/home/mxk/resband/reistance_band_v0_1/SRC/StdPeriphDriver/CH57x_sys.c:344 (discriminator 1)
20003a70:	00941763          	bne	s0,s1,20003a7e <mDelaymS+0x1a>
/home/mxk/resband/reistance_band_v0_1/SRC/StdPeriphDriver/CH57x_sys.c:348
    {
        mDelayuS(1000);
    }
}
20003a74:	40b2                	lw	ra,12(sp)
20003a76:	4422                	lw	s0,8(sp)
20003a78:	4492                	lw	s1,4(sp)
20003a7a:	0141                	addi	sp,sp,16
20003a7c:	8082                	ret
/home/mxk/resband/reistance_band_v0_1/SRC/StdPeriphDriver/CH57x_sys.c:344 (discriminator 3)
    for(i = 0; i < t; i++)
20003a7e:	0405                	addi	s0,s0,1
/home/mxk/resband/reistance_band_v0_1/SRC/StdPeriphDriver/CH57x_sys.c:346 (discriminator 3)
        mDelayuS(1000);
20003a80:	3e800513          	li	a0,1000
/home/mxk/resband/reistance_band_v0_1/SRC/StdPeriphDriver/CH57x_sys.c:344 (discriminator 3)
    for(i = 0; i < t; i++)
20003a84:	0442                	slli	s0,s0,0x10
/home/mxk/resband/reistance_band_v0_1/SRC/StdPeriphDriver/CH57x_sys.c:346 (discriminator 3)
        mDelayuS(1000);
20003a86:	3fc1                	jal	20003a56 <mDelayuS>
/home/mxk/resband/reistance_band_v0_1/SRC/StdPeriphDriver/CH57x_sys.c:344 (discriminator 3)
    for(i = 0; i < t; i++)
20003a88:	8041                	srli	s0,s0,0x10
20003a8a:	b7dd                	j	20003a70 <mDelaymS+0xc>

20003a8c <RTC_IRQHandler>:
RTC_IRQHandler():
/home/mxk/resband/reistance_band_v0_1/resistance_band/HAL/RTC.c:59
 */
__attribute__((interrupt("WCH-Interrupt-fast")))
__attribute__((section(".highcode")))
void RTC_IRQHandler(void)
{
    R8_RTC_FLAG_CTRL = (RB_RTC_TMR_CLR | RB_RTC_TRIG_CLR);
20003a8c:	400017b7          	lui	a5,0x40001
20003a90:	03000713          	li	a4,48
20003a94:	02e78823          	sb	a4,48(a5) # 40001030 <_eusrstack+0x1fff9030>
/home/mxk/resband/reistance_band_v0_1/resistance_band/HAL/RTC.c:60
    RTCTigFlag = 1;
20003a98:	4785                	li	a5,1
20003a9a:	00000717          	auipc	a4,0x0
20003a9e:	56f72323          	sw	a5,1382(a4) # 20004000 <_data_vma>
/home/mxk/resband/reistance_band_v0_1/resistance_band/HAL/RTC.c:61
}
20003aa2:	30200073          	mret

20003aa6 <FLASH_ROM_BEG>:
FLASH_ROM_BEG():
20003aa6:	80040323          	sb	zero,-2042(s0)
20003aaa:	4795                	li	a5,5
20003aac:	80f40323          	sb	a5,-2042(s0)
20003ab0:	80a40223          	sb	a0,-2044(s0)
20003ab4:	8082                	ret

20003ab6 <FLASH_ROM_END>:
FLASH_ROM_END():
20003ab6:	80640783          	lb	a5,-2042(s0)
20003aba:	fe07cee3          	bltz	a5,20003ab6 <FLASH_ROM_END>
20003abe:	80040323          	sb	zero,-2042(s0)
20003ac2:	8082                	ret

20003ac4 <FLASH_ROM_IN>:
FLASH_ROM_IN():
20003ac4:	80640783          	lb	a5,-2042(s0)
20003ac8:	fe07cee3          	bltz	a5,20003ac4 <FLASH_ROM_IN>
20003acc:	80444503          	lbu	a0,-2044(s0)
20003ad0:	8082                	ret

20003ad2 <FLASH_ROM_OUT>:
FLASH_ROM_OUT():
20003ad2:	80640783          	lb	a5,-2042(s0)
20003ad6:	fe07cee3          	bltz	a5,20003ad2 <FLASH_ROM_OUT>
20003ada:	80a40223          	sb	a0,-2044(s0)
20003ade:	8082                	ret

20003ae0 <FLASH_ROM_ADDR>:
FLASH_ROM_ADDR():
20003ae0:	1141                	addi	sp,sp,-16
20003ae2:	c426                	sw	s1,8(sp)
20003ae4:	c24a                	sw	s2,4(sp)
20003ae6:	c04e                	sw	s3,0(sp)
20003ae8:	c606                	sw	ra,12(sp)
20003aea:	0bf57713          	andi	a4,a0,191
20003aee:	47ad                	li	a5,11
20003af0:	89aa                	mv	s3,a0
20003af2:	892e                	mv	s2,a1
20003af4:	4495                	li	s1,5
20003af6:	00f70663          	beq	a4,a5,20003b02 <FLASH_ROM_ADDR+0x22>
20003afa:	4519                	li	a0,6
20003afc:	376d                	jal	20003aa6 <FLASH_ROM_BEG>
20003afe:	3f65                	jal	20003ab6 <FLASH_ROM_END>
20003b00:	448d                	li	s1,3
20003b02:	854e                	mv	a0,s3
20003b04:	374d                	jal	20003aa6 <FLASH_ROM_BEG>
20003b06:	59fd                	li	s3,-1
20003b08:	14fd                	addi	s1,s1,-1
20003b0a:	01349863          	bne	s1,s3,20003b1a <FLASH_ROM_ADDR+0x3a>
20003b0e:	40b2                	lw	ra,12(sp)
20003b10:	44a2                	lw	s1,8(sp)
20003b12:	4912                	lw	s2,4(sp)
20003b14:	4982                	lw	s3,0(sp)
20003b16:	0141                	addi	sp,sp,16
20003b18:	8082                	ret
20003b1a:	01095513          	srli	a0,s2,0x10
20003b1e:	0ff57513          	andi	a0,a0,255
20003b22:	3f45                	jal	20003ad2 <FLASH_ROM_OUT>
20003b24:	0922                	slli	s2,s2,0x8
20003b26:	b7cd                	j	20003b08 <FLASH_ROM_ADDR+0x28>

20003b28 <FLASH_ROM_WAIT>:
FLASH_ROM_WAIT():
20003b28:	1101                	addi	sp,sp,-32
20003b2a:	cc26                	sw	s1,24(sp)
20003b2c:	ce06                	sw	ra,28(sp)
20003b2e:	000804b7          	lui	s1,0x80
20003b32:	3751                	jal	20003ab6 <FLASH_ROM_END>
20003b34:	4515                	li	a0,5
20003b36:	3f85                	jal	20003aa6 <FLASH_ROM_BEG>
20003b38:	3771                	jal	20003ac4 <FLASH_ROM_IN>
20003b3a:	3769                	jal	20003ac4 <FLASH_ROM_IN>
20003b3c:	c62a                	sw	a0,12(sp)
20003b3e:	3fa5                	jal	20003ab6 <FLASH_ROM_END>
20003b40:	4532                	lw	a0,12(sp)
20003b42:	00157793          	andi	a5,a0,1
20003b46:	eb89                	bnez	a5,20003b58 <FLASH_ROM_WAIT+0x30>
20003b48:	00156513          	ori	a0,a0,1
20003b4c:	0ff57513          	andi	a0,a0,255
20003b50:	40f2                	lw	ra,28(sp)
20003b52:	44e2                	lw	s1,24(sp)
20003b54:	6105                	addi	sp,sp,32
20003b56:	8082                	ret
20003b58:	14fd                	addi	s1,s1,-1
20003b5a:	fce9                	bnez	s1,20003b34 <FLASH_ROM_WAIT+0xc>
20003b5c:	4501                	li	a0,0
20003b5e:	bfcd                	j	20003b50 <FLASH_ROM_WAIT+0x28>

20003b60 <FLASH_EEPROM_CMD>:
FLASH_EEPROM_CMD():
20003b60:	7139                	addi	sp,sp,-64
20003b62:	dc26                	sw	s1,56(sp)
20003b64:	da4a                	sw	s2,52(sp)
20003b66:	d84e                	sw	s3,48(sp)
20003b68:	d652                	sw	s4,44(sp)
20003b6a:	d456                	sw	s5,40(sp)
20003b6c:	d25a                	sw	s6,36(sp)
20003b6e:	d05e                	sw	s7,32(sp)
20003b70:	ce62                	sw	s8,28(sp)
20003b72:	e000e7b7          	lui	a5,0xe000e
20003b76:	de06                	sw	ra,60(sp)
20003b78:	cc66                	sw	s9,24(sp)
20003b7a:	ca6a                	sw	s10,20(sp)
20003b7c:	4741                	li	a4,16
20003b7e:	0407ab83          	lw	s7,64(a5) # e000e040 <_eusrstack+0xc0006040>
20003b82:	c622                	sw	s0,12(sp)
20003b84:	c3b8                	sw	a4,64(a5)
20003b86:	577d                	li	a4,-1
20003b88:	0007ab03          	lw	s6,0(a5)
20003b8c:	0047aa83          	lw	s5,4(a5)
20003b90:	18e7a023          	sw	a4,384(a5)
20003b94:	18e7a223          	sw	a4,388(a5)
20003b98:	400017b7          	lui	a5,0x40001
20003b9c:	05700713          	li	a4,87
20003ba0:	04e78023          	sb	a4,64(a5) # 40001040 <_eusrstack+0x1fff9040>
20003ba4:	fa800713          	li	a4,-88
20003ba8:	04e78023          	sb	a4,64(a5)
20003bac:	0447c783          	lbu	a5,68(a5)
20003bb0:	ff750c13          	addi	s8,a0,-9
20003bb4:	84b6                	mv	s1,a3
20003bb6:	07e2                	slli	a5,a5,0x18
20003bb8:	0ffc7c13          	andi	s8,s8,255
20003bbc:	4685                	li	a3,1
20003bbe:	8a2a                	mv	s4,a0
20003bc0:	892e                	mv	s2,a1
20003bc2:	89b2                	mv	s3,a2
20003bc4:	40002437          	lui	s0,0x40002
20003bc8:	87e1                	srai	a5,a5,0x18
20003bca:	5701                	li	a4,-32
20003bcc:	0186fa63          	bgeu	a3,s8,20003be0 <FLASH_EEPROM_CMD+0x80>
20003bd0:	00d50863          	beq	a0,a3,20003be0 <FLASH_EEPROM_CMD+0x80>
20003bd4:	4689                	li	a3,2
20003bd6:	02000713          	li	a4,32
20003bda:	00d51363          	bne	a0,a3,20003be0 <FLASH_EEPROM_CMD+0x80>
20003bde:	5701                	li	a4,-32
20003be0:	8fd9                	or	a5,a5,a4
20003be2:	0ff7f793          	andi	a5,a5,255
20003be6:	40001d37          	lui	s10,0x40001
20003bea:	04fd0223          	sb	a5,68(s10) # 40001044 <_eusrstack+0x1fff9044>
20003bee:	4711                	li	a4,4
20003bf0:	80e40323          	sb	a4,-2042(s0) # 40001806 <_eusrstack+0x1fff9806>
20003bf4:	0ff00513          	li	a0,255
20003bf8:	357d                	jal	20003aa6 <FLASH_ROM_BEG>
20003bfa:	4c89                	li	s9,2
20003bfc:	3d6d                	jal	20003ab6 <FLASH_ROM_END>
20003bfe:	118ceb63          	bltu	s9,s8,20003d14 <FLASH_EEPROM_CMD+0x1b4>
20003c02:	000707b7          	lui	a5,0x70
20003c06:	993e                	add	s2,s2,a5
20003c08:	00078737          	lui	a4,0x78
20003c0c:	5579                	li	a0,-2
20003c0e:	02e97e63          	bgeu	s2,a4,20003c4a <FLASH_EEPROM_CMD+0xea>
20003c12:	009907b3          	add	a5,s2,s1
20003c16:	02f76a63          	bltu	a4,a5,20003c4a <FLASH_EEPROM_CMD+0xea>
20003c1a:	47a9                	li	a5,10
20003c1c:	06fa1c63          	bne	s4,a5,20003c94 <FLASH_EEPROM_CMD+0x134>
20003c20:	e489                	bnez	s1,20003c2a <FLASH_EEPROM_CMD+0xca>
20003c22:	4481                	li	s1,0
20003c24:	3d49                	jal	20003ab6 <FLASH_ROM_END>
20003c26:	8526                	mv	a0,s1
20003c28:	a00d                	j	20003c4a <FLASH_EEPROM_CMD+0xea>
20003c2a:	85ca                	mv	a1,s2
20003c2c:	4509                	li	a0,2
20003c2e:	3d4d                	jal	20003ae0 <FLASH_ROM_ADDR>
20003c30:	0985                	addi	s3,s3,1
20003c32:	fff9c503          	lbu	a0,-1(s3)
20003c36:	14fd                	addi	s1,s1,-1
20003c38:	0905                	addi	s2,s2,1
20003c3a:	3d61                	jal	20003ad2 <FLASH_ROM_OUT>
20003c3c:	c481                	beqz	s1,20003c44 <FLASH_EEPROM_CMD+0xe4>
20003c3e:	0ff97793          	andi	a5,s2,255
20003c42:	f7fd                	bnez	a5,20003c30 <FLASH_EEPROM_CMD+0xd0>
20003c44:	35d5                	jal	20003b28 <FLASH_ROM_WAIT>
20003c46:	fd69                	bnez	a0,20003c20 <FLASH_EEPROM_CMD+0xc0>
20003c48:	557d                	li	a0,-1
20003c4a:	400017b7          	lui	a5,0x40001
20003c4e:	05700713          	li	a4,87
20003c52:	04e78023          	sb	a4,64(a5) # 40001040 <_eusrstack+0x1fff9040>
20003c56:	fa800713          	li	a4,-88
20003c5a:	04e78023          	sb	a4,64(a5)
20003c5e:	0447c703          	lbu	a4,68(a5)
20003c62:	8b41                	andi	a4,a4,16
20003c64:	04e78223          	sb	a4,68(a5)
20003c68:	e000e7b7          	lui	a5,0xe000e
20003c6c:	0577a023          	sw	s7,64(a5) # e000e040 <_eusrstack+0xc0006040>
20003c70:	50f2                	lw	ra,60(sp)
20003c72:	1167a023          	sw	s6,256(a5)
20003c76:	1157a223          	sw	s5,260(a5)
20003c7a:	54e2                	lw	s1,56(sp)
20003c7c:	4432                	lw	s0,12(sp)
20003c7e:	5952                	lw	s2,52(sp)
20003c80:	59c2                	lw	s3,48(sp)
20003c82:	5a32                	lw	s4,44(sp)
20003c84:	5aa2                	lw	s5,40(sp)
20003c86:	5b12                	lw	s6,36(sp)
20003c88:	5b82                	lw	s7,32(sp)
20003c8a:	4c72                	lw	s8,28(sp)
20003c8c:	4ce2                	lw	s9,24(sp)
20003c8e:	4d52                	lw	s10,20(sp)
20003c90:	6121                	addi	sp,sp,64
20003c92:	8082                	ret
20003c94:	47a5                	li	a5,9
20003c96:	06fa1463          	bne	s4,a5,20003cfe <FLASH_EEPROM_CMD+0x19e>
20003c9a:	6985                	lui	s3,0x1
20003c9c:	0ff00793          	li	a5,255
20003ca0:	009786b3          	add	a3,a5,s1
20003ca4:	00f974b3          	and	s1,s2,a5
20003ca8:	94b6                	add	s1,s1,a3
20003caa:	fff7c793          	not	a5,a5
20003cae:	8cfd                	and	s1,s1,a5
20003cb0:	0127f933          	and	s2,a5,s2
20003cb4:	6a41                	lui	s4,0x10
20003cb6:	6c05                	lui	s8,0x1
20003cb8:	fff98793          	addi	a5,s3,-1 # fff <_data_lma+0x81f>
20003cbc:	0127f7b3          	and	a5,a5,s2
20003cc0:	e399                	bnez	a5,20003cc6 <FLASH_EEPROM_CMD+0x166>
20003cc2:	0134fc63          	bgeu	s1,s3,20003cda <FLASH_EEPROM_CMD+0x17a>
20003cc6:	0049d993          	srli	s3,s3,0x4
20003cca:	47c1                	li	a5,16
20003ccc:	ff37e6e3          	bltu	a5,s3,20003cb8 <FLASH_EEPROM_CMD+0x158>
20003cd0:	bf89                	j	20003c22 <FLASH_EEPROM_CMD+0xc2>
20003cd2:	6785                	lui	a5,0x1
20003cd4:	69c1                	lui	s3,0x10
20003cd6:	17fd                	addi	a5,a5,-1
20003cd8:	b7e1                	j	20003ca0 <FLASH_EEPROM_CMD+0x140>
20003cda:	0d800513          	li	a0,216
20003cde:	01498863          	beq	s3,s4,20003cee <FLASH_EEPROM_CMD+0x18e>
20003ce2:	02000513          	li	a0,32
20003ce6:	01898463          	beq	s3,s8,20003cee <FLASH_EEPROM_CMD+0x18e>
20003cea:	08100513          	li	a0,129
20003cee:	85ca                	mv	a1,s2
20003cf0:	3bc5                	jal	20003ae0 <FLASH_ROM_ADDR>
20003cf2:	3d1d                	jal	20003b28 <FLASH_ROM_WAIT>
20003cf4:	d931                	beqz	a0,20003c48 <FLASH_EEPROM_CMD+0xe8>
20003cf6:	994e                	add	s2,s2,s3
20003cf8:	413484b3          	sub	s1,s1,s3
20003cfc:	b7d9                	j	20003cc2 <FLASH_EEPROM_CMD+0x162>
20003cfe:	85ca                	mv	a1,s2
20003d00:	452d                	li	a0,11
20003d02:	3bf9                	jal	20003ae0 <FLASH_ROM_ADDR>
20003d04:	94ce                	add	s1,s1,s3
20003d06:	f0998ee3          	beq	s3,s1,20003c22 <FLASH_EEPROM_CMD+0xc2>
20003d0a:	0985                	addi	s3,s3,1
20003d0c:	3b65                	jal	20003ac4 <FLASH_ROM_IN>
20003d0e:	fea98fa3          	sb	a0,-1(s3) # ffff <_data_lma+0xf81f>
20003d12:	bfd5                	j	20003d06 <FLASH_EEPROM_CMD+0x1a6>
20003d14:	fffa0793          	addi	a5,s4,-1 # ffff <_data_lma+0xf81f>
20003d18:	0ff7f793          	andi	a5,a5,255
20003d1c:	08fcec63          	bltu	s9,a5,20003db4 <.loop406+0x54>
20003d20:	045d4703          	lbu	a4,69(s10)
20003d24:	000807b7          	lui	a5,0x80
20003d28:	02077713          	andi	a4,a4,32
20003d2c:	e319                	bnez	a4,20003d32 <FLASH_EEPROM_CMD+0x1d2>
20003d2e:	000787b7          	lui	a5,0x78
20003d32:	5579                	li	a0,-2
20003d34:	f0f97be3          	bgeu	s2,a5,20003c4a <FLASH_EEPROM_CMD+0xea>
20003d38:	00990733          	add	a4,s2,s1
20003d3c:	f0e7e7e3          	bltu	a5,a4,20003c4a <FLASH_EEPROM_CMD+0xea>
20003d40:	4789                	li	a5,2
20003d42:	04fa1063          	bne	s4,a5,20003d82 <.loop406+0x22>
20003d46:	8089                	srli	s1,s1,0x2
20003d48:	4a55                	li	s4,21
20003d4a:	ec048ce3          	beqz	s1,20003c22 <FLASH_EEPROM_CMD+0xc2>
20003d4e:	85ca                	mv	a1,s2
20003d50:	4509                	li	a0,2
20003d52:	3379                	jal	20003ae0 <FLASH_ROM_ADDR>
20003d54:	0991                	addi	s3,s3,4
20003d56:	ffc9a703          	lw	a4,-4(s3)
20003d5a:	4791                	li	a5,4
20003d5c:	80e42023          	sw	a4,-2048(s0)

20003d60 <.loop406>:
20003d60:	80640703          	lb	a4,-2042(s0)
20003d64:	fe074ee3          	bltz	a4,20003d60 <.loop406>
20003d68:	81440323          	sb	s4,-2042(s0)
20003d6c:	17fd                	addi	a5,a5,-1
20003d6e:	fbed                	bnez	a5,20003d60 <.loop406>
20003d70:	14fd                	addi	s1,s1,-1
20003d72:	0911                	addi	s2,s2,4
20003d74:	c481                	beqz	s1,20003d7c <.loop406+0x1c>
20003d76:	0ff97793          	andi	a5,s2,255
20003d7a:	ffe9                	bnez	a5,20003d54 <FLASH_EEPROM_CMD+0x1f4>
20003d7c:	3375                	jal	20003b28 <FLASH_ROM_WAIT>
20003d7e:	f571                	bnez	a0,20003d4a <FLASH_EEPROM_CMD+0x1ea>
20003d80:	b5e1                	j	20003c48 <FLASH_EEPROM_CMD+0xe8>
20003d82:	4785                	li	a5,1
20003d84:	f4fa07e3          	beq	s4,a5,20003cd2 <FLASH_EEPROM_CMD+0x172>
20003d88:	85ca                	mv	a1,s2
20003d8a:	452d                	li	a0,11
20003d8c:	3b91                	jal	20003ae0 <FLASH_ROM_ADDR>
20003d8e:	fff48913          	addi	s2,s1,-1 # 7ffff <_data_lma+0x7f81f>
20003d92:	e80488e3          	beqz	s1,20003c22 <FLASH_EEPROM_CMD+0xc2>
20003d96:	333d                	jal	20003ac4 <FLASH_ROM_IN>
20003d98:	00397793          	andi	a5,s2,3
20003d9c:	eb91                	bnez	a5,20003db0 <.loop406+0x50>
20003d9e:	80042683          	lw	a3,-2048(s0)
20003da2:	0009a703          	lw	a4,0(s3)
20003da6:	00498793          	addi	a5,s3,4
20003daa:	e6e69de3          	bne	a3,a4,20003c24 <FLASH_EEPROM_CMD+0xc4>
20003dae:	89be                	mv	s3,a5
20003db0:	84ca                	mv	s1,s2
20003db2:	bff1                	j	20003d8e <.loop406+0x2e>
20003db4:	47b5                	li	a5,13
20003db6:	00fa1663          	bne	s4,a5,20003dc2 <.loop406+0x62>
20003dba:	0b900513          	li	a0,185
20003dbe:	31e5                	jal	20003aa6 <FLASH_ROM_BEG>
20003dc0:	b58d                	j	20003c22 <FLASH_EEPROM_CMD+0xc2>
20003dc2:	47b1                	li	a5,12
20003dc4:	0ab00513          	li	a0,171
20003dc8:	fefa0be3          	beq	s4,a5,20003dbe <.loop406+0x5e>
20003dcc:	4799                	li	a5,6
20003dce:	02fa1e63          	bne	s4,a5,20003e0a <.loop406+0xaa>
20003dd2:	85ca                	mv	a1,s2
20003dd4:	452d                	li	a0,11
20003dd6:	3329                	jal	20003ae0 <FLASH_ROM_ADDR>
20003dd8:	4481                	li	s1,0
20003dda:	4c0d                	li	s8,3
20003ddc:	4a21                	li	s4,8
20003dde:	31dd                	jal	20003ac4 <FLASH_ROM_IN>
20003de0:	01849663          	bne	s1,s8,20003dec <.loop406+0x8c>
20003de4:	80042783          	lw	a5,-2048(s0)
20003de8:	00f9a023          	sw	a5,0(s3)
20003dec:	0485                	addi	s1,s1,1
20003dee:	ff4498e3          	bne	s1,s4,20003dde <.loop406+0x7e>
20003df2:	80042783          	lw	a5,-2048(s0)
20003df6:	01291713          	slli	a4,s2,0x12
20003dfa:	00075563          	bgez	a4,20003e04 <.loop406+0xa4>
20003dfe:	00f99223          	sh	a5,4(s3)
20003e02:	b505                	j	20003c22 <FLASH_EEPROM_CMD+0xc2>
20003e04:	00f9a223          	sw	a5,4(s3)
20003e08:	bd29                	j	20003c22 <FLASH_EEPROM_CMD+0xc2>
20003e0a:	479d                	li	a5,7
20003e0c:	02fa1963          	bne	s4,a5,20003e3e <.loop406+0xde>
20003e10:	4581                	li	a1,0
20003e12:	04b00513          	li	a0,75
20003e16:	31e9                	jal	20003ae0 <FLASH_ROM_ADDR>
20003e18:	44bd                	li	s1,15
20003e1a:	0009a023          	sw	zero,0(s3)
20003e1e:	0009a223          	sw	zero,4(s3)
20003e22:	597d                	li	s2,-1
20003e24:	3145                	jal	20003ac4 <FLASH_ROM_IN>
20003e26:	0074f793          	andi	a5,s1,7
20003e2a:	97ce                	add	a5,a5,s3
20003e2c:	0007c703          	lbu	a4,0(a5) # 78000 <_data_lma+0x77820>
20003e30:	14fd                	addi	s1,s1,-1
20003e32:	8d39                	xor	a0,a0,a4
20003e34:	00a78023          	sb	a0,0(a5)
20003e38:	ff2496e3          	bne	s1,s2,20003e24 <.loop406+0xc4>
20003e3c:	b3dd                	j	20003c22 <FLASH_EEPROM_CMD+0xc2>
20003e3e:	47a1                	li	a5,8
20003e40:	04fa1263          	bne	s4,a5,20003e84 <.loop406+0x124>
20003e44:	31d5                	jal	20003b28 <FLASH_ROM_WAIT>
20003e46:	4481                	li	s1,0
20003e48:	00090d63          	beqz	s2,20003e62 <.loop406+0x102>
20003e4c:	478d                	li	a5,3
20003e4e:	03c00493          	li	s1,60
20003e52:	00f90863          	beq	s2,a5,20003e62 <.loop406+0x102>
20003e56:	05000493          	li	s1,80
20003e5a:	01990463          	beq	s2,s9,20003e62 <.loop406+0x102>
20003e5e:	04400493          	li	s1,68
20003e62:	07c57513          	andi	a0,a0,124
20003e66:	da950ee3          	beq	a0,s1,20003c22 <FLASH_EEPROM_CMD+0xc2>
20003e6a:	4519                	li	a0,6
20003e6c:	392d                	jal	20003aa6 <FLASH_ROM_BEG>
20003e6e:	31a1                	jal	20003ab6 <FLASH_ROM_END>
20003e70:	4505                	li	a0,1
20003e72:	3915                	jal	20003aa6 <FLASH_ROM_BEG>
20003e74:	8526                	mv	a0,s1
20003e76:	39b1                	jal	20003ad2 <FLASH_ROM_OUT>
20003e78:	4509                	li	a0,2
20003e7a:	39a1                	jal	20003ad2 <FLASH_ROM_OUT>
20003e7c:	3175                	jal	20003b28 <FLASH_ROM_WAIT>
20003e7e:	da0512e3          	bnez	a0,20003c22 <FLASH_EEPROM_CMD+0xc2>
20003e82:	b3d9                	j	20003c48 <FLASH_EEPROM_CMD+0xe8>
20003e84:	4791                	li	a5,4
20003e86:	00fa1963          	bne	s4,a5,20003e98 <.loop406+0x138>
20003e8a:	06600513          	li	a0,102
20003e8e:	3921                	jal	20003aa6 <FLASH_ROM_BEG>
20003e90:	311d                	jal	20003ab6 <FLASH_ROM_END>
20003e92:	09900513          	li	a0,153
20003e96:	b725                	j	20003dbe <.loop406+0x5e>
20003e98:	d80a05e3          	beqz	s4,20003c22 <FLASH_EEPROM_CMD+0xc2>
20003e9c:	54f1                	li	s1,-4
20003e9e:	b359                	j	20003c24 <FLASH_EEPROM_CMD+0xc4>

Disassembly of section .text:

000006a4 <handle_reset>:
handle_reset():
/home/mxk/resband/reistance_band_v0_1/SRC/Startup/startup_CH573.S:116
	.weak	handle_reset
	.align	1
handle_reset:
.option push 
.option	norelax 
	la gp, __global_pointer$
 6a4:	20004197          	auipc	gp,0x20004
 6a8:	15c18193          	addi	gp,gp,348 # 20004800 <__global_pointer$>
/home/mxk/resband/reistance_band_v0_1/SRC/Startup/startup_CH573.S:119
.option	pop 
1:
	la sp, _eusrstack 
 6ac:	20008117          	auipc	sp,0x20008
 6b0:	95410113          	addi	sp,sp,-1708 # 20008000 <_eusrstack>
/home/mxk/resband/reistance_band_v0_1/SRC/Startup/startup_CH573.S:123

/* Load highcode code  section from flash to RAM */
2:
    la a0, _highcode_lma
 6b4:	00400513          	li	a0,4
/home/mxk/resband/reistance_band_v0_1/SRC/Startup/startup_CH573.S:124
    la a1, _highcode_vma_start
 6b8:	20003597          	auipc	a1,0x20003
 6bc:	14858593          	addi	a1,a1,328 # 20003800 <_highcode_vma_start>
/home/mxk/resband/reistance_band_v0_1/SRC/Startup/startup_CH573.S:125
    la a2, _highcode_vma_end
 6c0:	20003617          	auipc	a2,0x20003
 6c4:	7e060613          	addi	a2,a2,2016 # 20003ea0 <_highcode_vma_end>
/home/mxk/resband/reistance_band_v0_1/SRC/Startup/startup_CH573.S:126
    bgeu a1, a2, 2f
 6c8:	00c5fa63          	bgeu	a1,a2,6dc <handle_reset+0x38>
/home/mxk/resband/reistance_band_v0_1/SRC/Startup/startup_CH573.S:128
1:
    lw t0, (a0)
 6cc:	00052283          	lw	t0,0(a0)
/home/mxk/resband/reistance_band_v0_1/SRC/Startup/startup_CH573.S:129
    sw t0, (a1)
 6d0:	0055a023          	sw	t0,0(a1)
/home/mxk/resband/reistance_band_v0_1/SRC/Startup/startup_CH573.S:130
    addi a0, a0, 4
 6d4:	0511                	addi	a0,a0,4
/home/mxk/resband/reistance_band_v0_1/SRC/Startup/startup_CH573.S:131
    addi a1, a1, 4
 6d6:	0591                	addi	a1,a1,4
/home/mxk/resband/reistance_band_v0_1/SRC/Startup/startup_CH573.S:132
    bltu a1, a2, 1b
 6d8:	fec5eae3          	bltu	a1,a2,6cc <handle_reset+0x28>
/home/mxk/resband/reistance_band_v0_1/SRC/Startup/startup_CH573.S:136

/* Load data section from flash to RAM */
2:
	la a0, _data_lma
 6dc:	7e000513          	li	a0,2016
/home/mxk/resband/reistance_band_v0_1/SRC/Startup/startup_CH573.S:137
	la a1, _data_vma
 6e0:	20004597          	auipc	a1,0x20004
 6e4:	92058593          	addi	a1,a1,-1760 # 20004000 <_data_vma>
/home/mxk/resband/reistance_band_v0_1/SRC/Startup/startup_CH573.S:138
	la a2, _edata
 6e8:	20004617          	auipc	a2,0x20004
 6ec:	91860613          	addi	a2,a2,-1768 # 20004000 <_data_vma>
/home/mxk/resband/reistance_band_v0_1/SRC/Startup/startup_CH573.S:139
	bgeu a1, a2, 2f
 6f0:	00c5fa63          	bgeu	a1,a2,704 <handle_reset+0x60>
/home/mxk/resband/reistance_band_v0_1/SRC/Startup/startup_CH573.S:141
1:
	lw t0, (a0)
 6f4:	00052283          	lw	t0,0(a0)
/home/mxk/resband/reistance_band_v0_1/SRC/Startup/startup_CH573.S:142
	sw t0, (a1)
 6f8:	0055a023          	sw	t0,0(a1)
/home/mxk/resband/reistance_band_v0_1/SRC/Startup/startup_CH573.S:143
	addi a0, a0, 4
 6fc:	0511                	addi	a0,a0,4
/home/mxk/resband/reistance_band_v0_1/SRC/Startup/startup_CH573.S:144
	addi a1, a1, 4
 6fe:	0591                	addi	a1,a1,4
/home/mxk/resband/reistance_band_v0_1/SRC/Startup/startup_CH573.S:145
	bltu a1, a2, 1b
 700:	fec5eae3          	bltu	a1,a2,6f4 <handle_reset+0x50>
/home/mxk/resband/reistance_band_v0_1/SRC/Startup/startup_CH573.S:148
2:
	/* clear bss section */
	la a0, _sbss
 704:	20004517          	auipc	a0,0x20004
 708:	8fc50513          	addi	a0,a0,-1796 # 20004000 <_data_vma>
/home/mxk/resband/reistance_band_v0_1/SRC/Startup/startup_CH573.S:149
	la a1, _ebss
 70c:	20004597          	auipc	a1,0x20004
 710:	8f858593          	addi	a1,a1,-1800 # 20004004 <_ebss>
/home/mxk/resband/reistance_band_v0_1/SRC/Startup/startup_CH573.S:150
	bgeu a0, a1, 2f
 714:	00b57763          	bgeu	a0,a1,722 <handle_reset+0x7e>
/home/mxk/resband/reistance_band_v0_1/SRC/Startup/startup_CH573.S:152
1:
	sw zero, (a0)
 718:	00052023          	sw	zero,0(a0)
/home/mxk/resband/reistance_band_v0_1/SRC/Startup/startup_CH573.S:153
	addi a0, a0, 4
 71c:	0511                	addi	a0,a0,4
/home/mxk/resband/reistance_band_v0_1/SRC/Startup/startup_CH573.S:154
	bltu a0, a1, 1b
 71e:	feb56de3          	bltu	a0,a1,718 <handle_reset+0x74>
/home/mxk/resband/reistance_band_v0_1/SRC/Startup/startup_CH573.S:156
2:
    li t0, 0x88
 722:	08800293          	li	t0,136
/home/mxk/resband/reistance_band_v0_1/SRC/Startup/startup_CH573.S:157
    csrs mstatus, t0
 726:	3002a073          	csrs	mstatus,t0
/home/mxk/resband/reistance_band_v0_1/SRC/Startup/startup_CH573.S:158
	la t0, _vector_base
 72a:	20003297          	auipc	t0,0x20003
 72e:	0d628293          	addi	t0,t0,214 # 20003800 <_highcode_vma_start>
/home/mxk/resband/reistance_band_v0_1/SRC/Startup/startup_CH573.S:159
    ori t0, t0, 1
 732:	0012e293          	ori	t0,t0,1
/home/mxk/resband/reistance_band_v0_1/SRC/Startup/startup_CH573.S:160
	csrw mtvec, t0
 736:	30529073          	csrw	mtvec,t0
/home/mxk/resband/reistance_band_v0_1/SRC/Startup/startup_CH573.S:162

    lui a4,0x40001
 73a:	40001737          	lui	a4,0x40001
/home/mxk/resband/reistance_band_v0_1/SRC/Startup/startup_CH573.S:163
    li  a5,87
 73e:	05700793          	li	a5,87
/home/mxk/resband/reistance_band_v0_1/SRC/Startup/startup_CH573.S:164
    sb  a5,64(a4)
 742:	04f70023          	sb	a5,64(a4) # 40001040 <_eusrstack+0x1fff9040>
/home/mxk/resband/reistance_band_v0_1/SRC/Startup/startup_CH573.S:165
    li  a5,-88
 746:	fa800793          	li	a5,-88
/home/mxk/resband/reistance_band_v0_1/SRC/Startup/startup_CH573.S:166
    sb  a5,64(a4)
 74a:	04f70023          	sb	a5,64(a4)
/home/mxk/resband/reistance_band_v0_1/SRC/Startup/startup_CH573.S:167
    fence.i
 74e:	0000100f          	fence.i
/home/mxk/resband/reistance_band_v0_1/SRC/Startup/startup_CH573.S:168
    lw  a5,72(a4)
 752:	473c                	lw	a5,72(a4)
/home/mxk/resband/reistance_band_v0_1/SRC/Startup/startup_CH573.S:169
    lui a3,0xfa000
 754:	fa0006b7          	lui	a3,0xfa000
/home/mxk/resband/reistance_band_v0_1/SRC/Startup/startup_CH573.S:170
    addi  a3,a3,-8
 758:	16e1                	addi	a3,a3,-8
/home/mxk/resband/reistance_band_v0_1/SRC/Startup/startup_CH573.S:171
    and a5,a5,a3
 75a:	8ff5                	and	a5,a5,a3
/home/mxk/resband/reistance_band_v0_1/SRC/Startup/startup_CH573.S:172
    lui a3,0x6000
 75c:	060006b7          	lui	a3,0x6000
/home/mxk/resband/reistance_band_v0_1/SRC/Startup/startup_CH573.S:173
    addi a3,a3,5
 760:	0695                	addi	a3,a3,5
/home/mxk/resband/reistance_band_v0_1/SRC/Startup/startup_CH573.S:174
    or  a5,a5,a3
 762:	8fd5                	or	a5,a5,a3
/home/mxk/resband/reistance_band_v0_1/SRC/Startup/startup_CH573.S:175
    sw  a5,72(a4)
 764:	c73c                	sw	a5,72(a4)
/home/mxk/resband/reistance_band_v0_1/SRC/Startup/startup_CH573.S:177

	la t0, main
 766:	00000297          	auipc	t0,0x0
 76a:	01028293          	addi	t0,t0,16 # 776 <main>
/home/mxk/resband/reistance_band_v0_1/SRC/Startup/startup_CH573.S:178
	csrw mepc, t0
 76e:	34129073          	csrw	mepc,t0
/home/mxk/resband/reistance_band_v0_1/SRC/Startup/startup_CH573.S:185
	/* enable vector relocation
	li t0, 0xE000ED14
	li t1, 1
	sw t1, 0(t0)*/
	
	mret
 772:	30200073          	mret

00000776 <main>:
main():
/home/mxk/resband/reistance_band_v0_1/resistance_band/HeartRate/obj/../APP/resband_main.c:55
 * @brief   主函数
 *
 * @return  none
 */
int main(void)
{
 776:	1141                	addi	sp,sp,-16
/home/mxk/resband/reistance_band_v0_1/resistance_band/HeartRate/obj/../APP/resband_main.c:59
#if(defined(DCDC_ENABLE)) && (DCDC_ENABLE == TRUE)
    PWR_DCDCCfg(ENABLE);
#endif
    SetSysClock(CLK_SOURCE_PLL_60MHz);
 778:	04800513          	li	a0,72
/home/mxk/resband/reistance_band_v0_1/resistance_band/HeartRate/obj/../APP/resband_main.c:55
{
 77c:	c606                	sw	ra,12(sp)
 77e:	c422                	sw	s0,8(sp)
 780:	c226                	sw	s1,4(sp)
 782:	c04a                	sw	s2,0(sp)
/home/mxk/resband/reistance_band_v0_1/resistance_band/HeartRate/obj/../APP/resband_main.c:59
    SetSysClock(CLK_SOURCE_PLL_60MHz);
 784:	20003097          	auipc	ra,0x20003
 788:	138080e7          	jalr	312(ra) # 200038bc <SetSysClock>
/home/mxk/resband/reistance_band_v0_1/resistance_band/HeartRate/obj/../APP/resband_main.c:72
    GPIOA_SetBits(bTXD1);
    GPIOA_ModeCfg(bTXD1, GPIO_ModeOut_PP_5mA);
    UART1_DefInit();
#endif
    // 1. 延时一下，等电源稳定
    DelayMs(100); 
 78c:	06400513          	li	a0,100
 790:	20003097          	auipc	ra,0x20003
 794:	2d4080e7          	jalr	724(ra) # 20003a64 <mDelaymS>
/home/mxk/resband/reistance_band_v0_1/resistance_band/HeartRate/obj/../APP/resband_main.c:75

    // 2. 绕过所有宏，直接用你定义的宏手动操作
    LED1_DDR; // 这里会执行 R32_PB_DIR |= BV(7)
 798:	40001737          	lui	a4,0x40001
 79c:	0c072783          	lw	a5,192(a4) # 400010c0 <_eusrstack+0x1fff90c0>
/home/mxk/resband/reistance_band_v0_1/resistance_band/HeartRate/obj/../APP/resband_main.c:78
    
    while(1) {
        R32_PB_CLR = LED1_BV; // 强制点亮
 7a0:	40001437          	lui	s0,0x40001
 7a4:	0cc40493          	addi	s1,s0,204 # 400010cc <_eusrstack+0x1fff90cc>
/home/mxk/resband/reistance_band_v0_1/resistance_band/HeartRate/obj/../APP/resband_main.c:75
    LED1_DDR; // 这里会执行 R32_PB_DIR |= BV(7)
 7a8:	0807e793          	ori	a5,a5,128
 7ac:	0cf72023          	sw	a5,192(a4)
/home/mxk/resband/reistance_band_v0_1/resistance_band/HeartRate/obj/../APP/resband_main.c:78
        R32_PB_CLR = LED1_BV; // 强制点亮
 7b0:	08000913          	li	s2,128
/home/mxk/resband/reistance_band_v0_1/resistance_band/HeartRate/obj/../APP/resband_main.c:78 (discriminator 1)
 7b4:	0124a023          	sw	s2,0(s1)
/home/mxk/resband/reistance_band_v0_1/resistance_band/HeartRate/obj/../APP/resband_main.c:79 (discriminator 1)
        DelayMs(500);
 7b8:	1f400513          	li	a0,500
 7bc:	20003097          	auipc	ra,0x20003
 7c0:	2a8080e7          	jalr	680(ra) # 20003a64 <mDelaymS>
/home/mxk/resband/reistance_band_v0_1/resistance_band/HeartRate/obj/../APP/resband_main.c:80 (discriminator 1)
        R32_PB_OUT |= LED1_BV; // 强制熄灭
 7c4:	0c842783          	lw	a5,200(s0)
/home/mxk/resband/reistance_band_v0_1/resistance_band/HeartRate/obj/../APP/resband_main.c:81 (discriminator 1)
        DelayMs(500);
 7c8:	1f400513          	li	a0,500
/home/mxk/resband/reistance_band_v0_1/resistance_band/HeartRate/obj/../APP/resband_main.c:80 (discriminator 1)
        R32_PB_OUT |= LED1_BV; // 强制熄灭
 7cc:	0807e793          	ori	a5,a5,128
 7d0:	0cf42423          	sw	a5,200(s0)
/home/mxk/resband/reistance_band_v0_1/resistance_band/HeartRate/obj/../APP/resband_main.c:81 (discriminator 1)
        DelayMs(500);
 7d4:	20003097          	auipc	ra,0x20003
 7d8:	290080e7          	jalr	656(ra) # 20003a64 <mDelaymS>
 7dc:	bfe1                	j	7b4 <main+0x3e>
	...
