Archive member included to satisfy reference by file (symbol)

d:/BaiduSyncdisk/Edith/墨小孔实习/resband/SRC/StdPeriphDriver\libISP573.a(ISP573.o)
                              ./StdPeriphDriver/CH57x_flash.o (FLASH_EEPROM_CMD)
d:/BaiduSyncdisk/Edith/墨小孔实习/resband/resistance_band/LIB\libCH57xBLE.a(message.o)
                              ./HAL/MCU.o (tmos_msg_deallocate)
d:/BaiduSyncdisk/Edith/墨小孔实习/resband/resistance_band/LIB\libCH57xBLE.a(tmos.o)
                              ./Profile/battservice.o (tmos_memcpy)
d:/BaiduSyncdisk/Edith/墨小孔实习/resband/resistance_band/LIB\libCH57xBLE.a(tmos_hw.o)
                              d:/BaiduSyncdisk/Edith/墨小孔实习/resband/resistance_band/LIB\libCH57xBLE.a(tmos.o) (RTC_Get32KClock)
d:/BaiduSyncdisk/Edith/墨小孔实习/resband/resistance_band/LIB\libCH57xBLE.a(tmos_snv.o)
                              d:/BaiduSyncdisk/Edith/墨小孔实习/resband/resistance_band/LIB\libCH57xBLE.a(tmos.o) (tmos_snv_init)
d:/BaiduSyncdisk/Edith/墨小孔实习/resband/resistance_band/LIB\libCH57xBLE.a(gap.o)
                              ./APP/resband.o (GAP_GetParamValue)
d:/BaiduSyncdisk/Edith/墨小孔实习/resband/resistance_band/LIB\libCH57xBLE.a(gap_central.o)
                              d:/BaiduSyncdisk/Edith/墨小孔实习/resband/resistance_band/LIB\libCH57xBLE.a(gap.o) (GAP_CentralParamInit)
d:/BaiduSyncdisk/Edith/墨小孔实习/resband/resistance_band/LIB\libCH57xBLE.a(gap_peripheral.o)
                              d:/BaiduSyncdisk/Edith/墨小孔实习/resband/resistance_band/LIB\libCH57xBLE.a(gap.o) (GAP_PeripheralParamInit)
d:/BaiduSyncdisk/Edith/墨小孔实习/resband/resistance_band/LIB\libCH57xBLE.a(gapgattserver.o)
                              ./APP/resband.o (GGS_SetParameter)
d:/BaiduSyncdisk/Edith/墨小孔实习/resband/resistance_band/LIB\libCH57xBLE.a(gatt.o)
                              ./Profile/battservice.o (GATT_bm_alloc)
d:/BaiduSyncdisk/Edith/墨小孔实习/resband/resistance_band/LIB\libCH57xBLE.a(gatt_uuid.o)
                              ./Profile/battservice.o (reportRefUUID)
d:/BaiduSyncdisk/Edith/墨小孔实习/resband/resistance_band/LIB\libCH57xBLE.a(gattclientapp.o)
                              d:/BaiduSyncdisk/Edith/墨小孔实习/resband/resistance_band/LIB\libCH57xBLE.a(gatt.o) (gattGetClientStatus)
d:/BaiduSyncdisk/Edith/墨小孔实习/resband/resistance_band/LIB\libCH57xBLE.a(gattservapp.o)
                              ./Profile/battservice.o (GATTServApp_ReadCharCfg)
d:/BaiduSyncdisk/Edith/墨小孔实习/resband/resistance_band/LIB\libCH57xBLE.a(l2cap.o)
                              d:/BaiduSyncdisk/Edith/墨小孔实习/resband/resistance_band/LIB\libCH57xBLE.a(gatt.o) (L2CAP_GetMTU)
d:/BaiduSyncdisk/Edith/墨小孔实习/resband/resistance_band/LIB\libCH57xBLE.a(l2cap_input.o)
                              d:/BaiduSyncdisk/Edith/墨小孔实习/resband/resistance_band/LIB\libCH57xBLE.a(l2cap.o) (l2capProcessRxData)
d:/BaiduSyncdisk/Edith/墨小孔实习/resband/resistance_band/LIB\libCH57xBLE.a(l2cap_output.o)
                              d:/BaiduSyncdisk/Edith/墨小孔实习/resband/resistance_band/LIB\libCH57xBLE.a(l2cap_input.o) (l2capNotifyData)
d:/BaiduSyncdisk/Edith/墨小孔实习/resband/resistance_band/LIB\libCH57xBLE.a(l2cap_sdu.o)
                              d:/BaiduSyncdisk/Edith/墨小孔实习/resband/resistance_band/LIB\libCH57xBLE.a(l2cap_input.o) (l2capBuildDisconnectRsp)
d:/BaiduSyncdisk/Edith/墨小孔实习/resband/resistance_band/LIB\libCH57xBLE.a(linkdb.o)
                              d:/BaiduSyncdisk/Edith/墨小孔实习/resband/resistance_band/LIB\libCH57xBLE.a(l2cap.o) (linkDB_Init)
d:/BaiduSyncdisk/Edith/墨小孔实习/resband/resistance_band/LIB\libCH57xBLE.a(sm.o)
                              d:/BaiduSyncdisk/Edith/墨小孔实习/resband/resistance_band/LIB\libCH57xBLE.a(gap.o) (smStartEncryption)
d:/BaiduSyncdisk/Edith/墨小孔实习/resband/resistance_band/LIB\libCH57xBLE.a(host_input.o)
                              d:/BaiduSyncdisk/Edith/墨小孔实习/resband/resistance_band/LIB\libCH57xBLE.a(gap.o) (gBleHostPara)
d:/BaiduSyncdisk/Edith/墨小孔实习/resband/resistance_band/LIB\libCH57xBLE.a(host_output.o)
                              d:/BaiduSyncdisk/Edith/墨小孔实习/resband/resistance_band/LIB\libCH57xBLE.a(gap.o) (HCI_DisconnectCmd)
d:/BaiduSyncdisk/Edith/墨小孔实习/resband/resistance_band/LIB\libCH57xBLE.a(ll_connect.o)
                              d:/BaiduSyncdisk/Edith/墨小孔实习/resband/resistance_band/LIB\libCH57xBLE.a(tmos.o) (LL_GetNextConnectEventTime)
d:/BaiduSyncdisk/Edith/墨小孔实习/resband/resistance_band/LIB\libCH57xBLE.a(ll_core.o)
                              d:/BaiduSyncdisk/Edith/墨小孔实习/resband/resistance_band/LIB\libCH57xBLE.a(ll_connect.o) (LL_CoreGetCore)
d:/BaiduSyncdisk/Edith/墨小孔实习/resband/resistance_band/LIB\libCH57xBLE.a(ll_hop.o)
                              d:/BaiduSyncdisk/Edith/墨小孔实习/resband/resistance_band/LIB\libCH57xBLE.a(ll_connect.o) (LL_HopGetChannel)
d:/BaiduSyncdisk/Edith/墨小孔实习/resband/resistance_band/LIB\libCH57xBLE.a(ll_master.o)
                              d:/BaiduSyncdisk/Edith/墨小孔实习/resband/resistance_band/LIB\libCH57xBLE.a(gap_central.o) (LL_SetDataSendPriority)
d:/BaiduSyncdisk/Edith/墨小孔实习/resband/resistance_band/LIB\libCH57xBLE.a(ll_pdu.o)
                              d:/BaiduSyncdisk/Edith/墨小孔实习/resband/resistance_band/LIB\libCH57xBLE.a(ll_master.o) (LL_ConnectionUpdateReq)
d:/BaiduSyncdisk/Edith/墨小孔实习/resband/resistance_band/LIB\libCH57xBLE.a(ll_report.o)
                              d:/BaiduSyncdisk/Edith/墨小孔实习/resband/resistance_band/LIB\libCH57xBLE.a(ll_connect.o) (LL_ReportGenerateEvent)
d:/BaiduSyncdisk/Edith/墨小孔实习/resband/resistance_band/LIB\libCH57xBLE.a(ll_scan.o)
                              d:/BaiduSyncdisk/Edith/墨小孔实习/resband/resistance_band/LIB\libCH57xBLE.a(ll_master.o) (LL_ScanEnable)
d:/BaiduSyncdisk/Edith/墨小孔实习/resband/resistance_band/LIB\libCH57xBLE.a(ll_slave.o)
                              d:/BaiduSyncdisk/Edith/墨小孔实习/resband/resistance_band/LIB\libCH57xBLE.a(ll_connect.o) (ll_hw_timer_slave_recv_timeout)
d:/BaiduSyncdisk/Edith/墨小孔实习/resband/resistance_band/LIB\libCH57xBLE.a(ll_whitelist.o)
                              d:/BaiduSyncdisk/Edith/墨小孔实习/resband/resistance_band/LIB\libCH57xBLE.a(ll_scan.o) (LL_WhitelistLookup)
d:/BaiduSyncdisk/Edith/墨小孔实习/resband/resistance_band/LIB\libCH57xBLE.a(aes.o)
                              d:/BaiduSyncdisk/Edith/墨小孔实习/resband/resistance_band/LIB\libCH57xBLE.a(sm.o) (LL_Encrypt)
d:/BaiduSyncdisk/Edith/墨小孔实习/resband/resistance_band/LIB\libCH57xBLE.a(bb.o)
                              d:/BaiduSyncdisk/Edith/墨小孔实习/resband/resistance_band/LIB\libCH57xBLE.a(tmos.o) (BB_DevInit)
d:/BaiduSyncdisk/Edith/墨小孔实习/resband/resistance_band/LIB\libCH57xBLE.a(dma.o)
                              d:/BaiduSyncdisk/Edith/墨小孔实习/resband/resistance_band/LIB\libCH57xBLE.a(tmos.o) (DMA_DevInit)
d:/BaiduSyncdisk/Edith/墨小孔实习/resband/resistance_band/LIB\libCH57xBLE.a(ip.o)
                              d:/BaiduSyncdisk/Edith/墨小孔实习/resband/resistance_band/LIB\libCH57xBLE.a(ll_master.o) (ll_tx_wait_finish)
d:/BaiduSyncdisk/Edith/墨小孔实习/resband/resistance_band/LIB\libCH57xBLE.a(lle.o)
                              d:/BaiduSyncdisk/Edith/墨小孔实习/resband/resistance_band/LIB\libCH57xBLE.a(tmos.o) (LLE_DevInit)
d:/BaiduSyncdisk/Edith/墨小孔实习/resband/resistance_band/LIB\libCH57xBLE.a(rf_fh.o)
                              d:/BaiduSyncdisk/Edith/墨小孔实习/resband/resistance_band/LIB\libCH57xBLE.a(tmos.o) (RF_FrequencyHoppingChange)
d:/BaiduSyncdisk/Edith/墨小孔实习/resband/resistance_band/LIB\libCH57xBLE.a(rfend.o)
                              d:/BaiduSyncdisk/Edith/墨小孔实习/resband/resistance_band/LIB\libCH57xBLE.a(ip.o) (RFEND_DevInit)
d:/BaiduSyncdisk/Edith/墨小孔实习/resband/resistance_band/LIB\libCH57xBLE.a(api_c.o)
                              d:/BaiduSyncdisk/Edith/墨小孔实习/resband/resistance_band/LIB\libCH57xBLE.a(host_output.o) (API_DisconnectCmd)
d:/BaiduSyncdisk/Edith/墨小孔实习/resband/resistance_band/LIB\libCH57xBLE.a(ctl_input.o)
                              d:/BaiduSyncdisk/Edith/墨小孔实习/resband/resistance_band/LIB\libCH57xBLE.a(api_c.o) (LL_ReceiverTest)
d:/BaiduSyncdisk/Edith/墨小孔实习/resband/resistance_band/LIB\libCH57xBLE.a(ctl_output.o)
                              d:/BaiduSyncdisk/Edith/墨小孔实习/resband/resistance_band/LIB\libCH57xBLE.a(api_c.o) (HCI_SetEventMask)
d:/BaiduSyncdisk/Edith/墨小孔实习/resband/resistance_band/LIB\libCH57xBLE.a(gapbondmgr.o)
                              d:/BaiduSyncdisk/Edith/墨小孔实习/resband/resistance_band/LIB\libCH57xBLE.a(gap_central.o) (GAPBondMgr_GetParameter)
d:/BaiduSyncdisk/Edith/墨小孔实习/resband/resistance_band/LIB\libCH57xBLE.a(peripheral.o)
                              ./APP/resband.o (GAPRole_PeripheralConnParamUpdateReq)
d:/BaiduSyncdisk/Edith/墨小孔实习/resband/resistance_band/LIB\libCH57xBLE.a(role.o)
                              d:/BaiduSyncdisk/Edith/墨小孔实习/resband/resistance_band/LIB\libCH57xBLE.a(gap.o) (GAPRole_ParamInit)
d:/BaiduSyncdisk/Edith/墨小孔实习/resband/resistance_band/LIB\libCH57xBLE.a(memory.o)
                              d:/BaiduSyncdisk/Edith/墨小孔实习/resband/resistance_band/LIB\libCH57xBLE.a(tmos.o) (tmos_memory_init)
d:/BaiduSyncdisk/Edith/墨小孔实习/resband/resistance_band/LIB\libCH57xBLE.a(att.o)
                              d:/BaiduSyncdisk/Edith/墨小孔实习/resband/resistance_band/LIB\libCH57xBLE.a(gatt.o) (ATT_ParamInit)
d:/BaiduSyncdisk/Edith/墨小孔实习/resband/resistance_band/LIB\libCH57xBLE.a(att_client.o)
                              d:/BaiduSyncdisk/Edith/墨小孔实习/resband/resistance_band/LIB\libCH57xBLE.a(gatt.o) (ATT_ParseExchangeMTURsp)
d:/BaiduSyncdisk/Edith/墨小孔实习/resband/resistance_band/LIB\libCH57xBLE.a(att_server.o)
                              d:/BaiduSyncdisk/Edith/墨小孔实习/resband/resistance_band/LIB\libCH57xBLE.a(gattservapp.o) (ATT_ParseExchangeMTUReq)
d:/BaiduSyncdisk/Edith/墨小孔实习/resband/resistance_band/LIB\libCH57xBLE.a(ll.o)
                              d:/BaiduSyncdisk/Edith/墨小孔实习/resband/resistance_band/LIB\libCH57xBLE.a(ctl_input.o) (ll_get_prime_number)
d:/BaiduSyncdisk/Edith/墨小孔实习/resband/resistance_band/LIB\libCH57xBLE.a(ll_advertise.o)
                              d:/BaiduSyncdisk/Edith/墨小孔实习/resband/resistance_band/LIB\libCH57xBLE.a(ctl_input.o) (LL_AdvertiseToStandby)
d:/BaiduSyncdisk/Edith/墨小孔实习/resband/resistance_band/LIB\libCH57xBLE.a(ll_initiate.o)
                              d:/BaiduSyncdisk/Edith/墨小孔实习/resband/resistance_band/LIB\libCH57xBLE.a(ctl_input.o) (LL_InitiateToStandby)
d:/BaiduSyncdisk/Edith/墨小孔实习/resband/resistance_band/LIB\libCH57xBLE.a(ll_resolvinglist.o)
                              d:/BaiduSyncdisk/Edith/墨小孔实习/resband/resistance_band/LIB\libCH57xBLE.a(ll_advertise.o) (ll_resolvinglist_checkRPA)
d:/BaiduSyncdisk/Edith/墨小孔实习/resband/resistance_band/LIB\libCH57xBLE.a(broadcaster.o)
                              d:/BaiduSyncdisk/Edith/墨小孔实习/resband/resistance_band/LIB\libCH57xBLE.a(role.o) (GAPRole_BroadcasterEnable)
d:/BaiduSyncdisk/Edith/墨小孔实习/resband/resistance_band/LIB\libCH57xBLE.a(central.o)
                              d:/BaiduSyncdisk/Edith/墨小孔实习/resband/resistance_band/LIB\libCH57xBLE.a(role.o) (GAPRole_CentralEnable)
d:/BaiduSyncdisk/Edith/墨小孔实习/resband/resistance_band/LIB\libCH57xBLE.a(observer.o)
                              d:/BaiduSyncdisk/Edith/墨小孔实习/resband/resistance_band/LIB\libCH57xBLE.a(role.o) (GAPRole_ObserverEnable)
d:/BaiduSyncdisk/Edith/墨小孔实习/resband/resistance_band/LIB\libCH57xBLE.a(ll_address.o)
                              d:/BaiduSyncdisk/Edith/墨小孔实习/resband/resistance_band/LIB\libCH57xBLE.a(ll_resolvinglist.o) (LL_AddrGenerateResolvableAddress)
d:/lenovosoftstore/install/mounriver_studio2/resources/app/resources/win32/components/wch/toolchain/risc-v embedded gcc/bin/../lib/gcc/riscv-none-embed/8.2.0/rv32imac/ilp32\libgcc.a(_lshrdi3.o)
                              d:/BaiduSyncdisk/Edith/墨小孔实习/resband/resistance_band/LIB\libCH57xBLE.a(ll_hop.o) (__lshrdi3)
d:/lenovosoftstore/install/mounriver_studio2/resources/app/resources/win32/components/wch/toolchain/risc-v embedded gcc/bin/../lib/gcc/riscv-none-embed/8.2.0/rv32imac/ilp32\libgcc.a(_ashrdi3.o)
                              d:/BaiduSyncdisk/Edith/墨小孔实习/resband/resistance_band/LIB\libCH57xBLE.a(ctl_input.o) (__ashrdi3)
d:/lenovosoftstore/install/mounriver_studio2/resources/app/resources/win32/components/wch/toolchain/risc-v embedded gcc/bin/../lib/gcc/riscv-none-embed/8.2.0/rv32imac/ilp32\libgcc.a(_divdi3.o)
                              d:/BaiduSyncdisk/Edith/墨小孔实习/resband/resistance_band/LIB\libCH57xBLE.a(ll_connect.o) (__divdi3)
d:/lenovosoftstore/install/mounriver_studio2/resources/app/resources/win32/components/wch/toolchain/risc-v embedded gcc/bin/../lib/gcc/riscv-none-embed/8.2.0/rv32imac/ilp32\libgcc.a(_udivdi3.o)
                              d:/BaiduSyncdisk/Edith/墨小孔实习/resband/resistance_band/LIB\libCH57xBLE.a(ll_connect.o) (__udivdi3)
d:/lenovosoftstore/install/mounriver_studio2/resources/app/resources/win32/components/wch/toolchain/risc-v embedded gcc/bin/../lib/gcc/riscv-none-embed/8.2.0/rv32imac/ilp32\libgcc.a(muldf3.o)
                              ./StdPeriphDriver/CH57x_clk.o (__muldf3)
d:/lenovosoftstore/install/mounriver_studio2/resources/app/resources/win32/components/wch/toolchain/risc-v embedded gcc/bin/../lib/gcc/riscv-none-embed/8.2.0/rv32imac/ilp32\libgcc.a(floatsidf.o)
                              ./StdPeriphDriver/CH57x_clk.o (__floatsidf)
d:/lenovosoftstore/install/mounriver_studio2/resources/app/resources/win32/components/wch/toolchain/risc-v embedded gcc/bin/../lib/gcc/riscv-none-embed/8.2.0/rv32imac/ilp32\libgcc.a(addsf3.o)
                              ./APP/tension.o (__addsf3)
d:/lenovosoftstore/install/mounriver_studio2/resources/app/resources/win32/components/wch/toolchain/risc-v embedded gcc/bin/../lib/gcc/riscv-none-embed/8.2.0/rv32imac/ilp32\libgcc.a(divsf3.o)
                              ./APP/tension.o (__divsf3)
d:/lenovosoftstore/install/mounriver_studio2/resources/app/resources/win32/components/wch/toolchain/risc-v embedded gcc/bin/../lib/gcc/riscv-none-embed/8.2.0/rv32imac/ilp32\libgcc.a(gesf2.o)
                              ./APP/tension.o (__gesf2)
d:/lenovosoftstore/install/mounriver_studio2/resources/app/resources/win32/components/wch/toolchain/risc-v embedded gcc/bin/../lib/gcc/riscv-none-embed/8.2.0/rv32imac/ilp32\libgcc.a(lesf2.o)
                              ./APP/tension.o (__lesf2)
d:/lenovosoftstore/install/mounriver_studio2/resources/app/resources/win32/components/wch/toolchain/risc-v embedded gcc/bin/../lib/gcc/riscv-none-embed/8.2.0/rv32imac/ilp32\libgcc.a(mulsf3.o)
                              ./StdPeriphDriver/CH57x_clk.o (__mulsf3)
d:/lenovosoftstore/install/mounriver_studio2/resources/app/resources/win32/components/wch/toolchain/risc-v embedded gcc/bin/../lib/gcc/riscv-none-embed/8.2.0/rv32imac/ilp32\libgcc.a(fixsfsi.o)
                              ./StdPeriphDriver/CH57x_clk.o (__fixsfsi)
d:/lenovosoftstore/install/mounriver_studio2/resources/app/resources/win32/components/wch/toolchain/risc-v embedded gcc/bin/../lib/gcc/riscv-none-embed/8.2.0/rv32imac/ilp32\libgcc.a(fixunssfsi.o)
                              ./APP/tension.o (__fixunssfsi)
d:/lenovosoftstore/install/mounriver_studio2/resources/app/resources/win32/components/wch/toolchain/risc-v embedded gcc/bin/../lib/gcc/riscv-none-embed/8.2.0/rv32imac/ilp32\libgcc.a(floatsisf.o)
                              ./StdPeriphDriver/CH57x_clk.o (__floatsisf)
d:/lenovosoftstore/install/mounriver_studio2/resources/app/resources/win32/components/wch/toolchain/risc-v embedded gcc/bin/../lib/gcc/riscv-none-embed/8.2.0/rv32imac/ilp32\libgcc.a(floatunsisf.o)
                              ./APP/tension.o (__floatunsisf)
d:/lenovosoftstore/install/mounriver_studio2/resources/app/resources/win32/components/wch/toolchain/risc-v embedded gcc/bin/../lib/gcc/riscv-none-embed/8.2.0/rv32imac/ilp32\libgcc.a(truncdfsf2.o)
                              ./StdPeriphDriver/CH57x_clk.o (__truncdfsf2)
d:/lenovosoftstore/install/mounriver_studio2/resources/app/resources/win32/components/wch/toolchain/risc-v embedded gcc/bin/../lib/gcc/riscv-none-embed/8.2.0/rv32imac/ilp32\libgcc.a(_clz.o)
                              d:/lenovosoftstore/install/mounriver_studio2/resources/app/resources/win32/components/wch/toolchain/risc-v embedded gcc/bin/../lib/gcc/riscv-none-embed/8.2.0/rv32imac/ilp32\libgcc.a(_divdi3.o) (__clz_tab)
d:/lenovosoftstore/install/mounriver_studio2/resources/app/resources/win32/components/wch/toolchain/risc-v embedded gcc/bin/../lib/gcc/riscv-none-embed/8.2.0/rv32imac/ilp32\libgcc.a(_clzsi2.o)
                              d:/lenovosoftstore/install/mounriver_studio2/resources/app/resources/win32/components/wch/toolchain/risc-v embedded gcc/bin/../lib/gcc/riscv-none-embed/8.2.0/rv32imac/ilp32\libgcc.a(muldf3.o) (__clzsi2)
d:/lenovosoftstore/install/mounriver_studio2/resources/app/resources/win32/components/wch/toolchain/risc-v embedded gcc/bin/../lib/gcc/riscv-none-embed/8.2.0/../../../../riscv-none-embed/lib/rv32imac/ilp32\libg_nano.a(lib_a-memcpy.o)
                              ./APP/tension.o (memcpy)
d:/lenovosoftstore/install/mounriver_studio2/resources/app/resources/win32/components/wch/toolchain/risc-v embedded gcc/bin/../lib/gcc/riscv-none-embed/8.2.0/../../../../riscv-none-embed/lib/rv32imac/ilp32\libg_nano.a(lib_a-memset.o)
                              ./APP/tension.o (memset)

Discarded input sections

 .text          0x0000000000000000        0x0 ./StdPeriphDriver/CH57x_adc.o
 .data          0x0000000000000000        0x0 ./StdPeriphDriver/CH57x_adc.o
 .bss           0x0000000000000000        0x0 ./StdPeriphDriver/CH57x_adc.o
 .text.ADC_DataCalib_Rough
                0x0000000000000000       0x84 ./StdPeriphDriver/CH57x_adc.o
 .text.ADC_ExtSingleChSampInit
                0x0000000000000000       0x24 ./StdPeriphDriver/CH57x_adc.o
 .text.ADC_ExtDiffChSampInit
                0x0000000000000000       0x24 ./StdPeriphDriver/CH57x_adc.o
 .text.ADC_InterBATSampInit
                0x0000000000000000       0x1e ./StdPeriphDriver/CH57x_adc.o
 .text.TouchKey_ChSampInit
                0x0000000000000000       0x1a ./StdPeriphDriver/CH57x_adc.o
 .text.ADC_ExcutSingleConver
                0x0000000000000000       0x20 ./StdPeriphDriver/CH57x_adc.o
 .text.TouchKey_ExcutSingleConver
                0x0000000000000000       0x2e ./StdPeriphDriver/CH57x_adc.o
 .text.ADC_AutoConverCycle
                0x0000000000000000        0xa ./StdPeriphDriver/CH57x_adc.o
 .text.ADC_DMACfg
                0x0000000000000000       0x42 ./StdPeriphDriver/CH57x_adc.o
 .text.adc_to_temperature_celsius
                0x0000000000000000       0x24 ./StdPeriphDriver/CH57x_adc.o
 .text          0x0000000000000000        0x0 ./StdPeriphDriver/CH57x_clk.o
 .data          0x0000000000000000        0x0 ./StdPeriphDriver/CH57x_clk.o
 .bss           0x0000000000000000        0x0 ./StdPeriphDriver/CH57x_clk.o
 .text.LClk32K_Select
                0x0000000000000000       0x38 ./StdPeriphDriver/CH57x_clk.o
 .text.HSECFG_Current
                0x0000000000000000       0x2e ./StdPeriphDriver/CH57x_clk.o
 .text.HSECFG_Capacitance
                0x0000000000000000       0x32 ./StdPeriphDriver/CH57x_clk.o
 .text.LSECFG_Current
                0x0000000000000000       0x2e ./StdPeriphDriver/CH57x_clk.o
 .text.LSECFG_Capacitance
                0x0000000000000000       0x30 ./StdPeriphDriver/CH57x_clk.o
 .text.LSI_SetTune_FLASH
                0x0000000000000000       0x2a ./StdPeriphDriver/CH57x_clk.o
 .text.LSI_SetTune_RAM
                0x0000000000000000       0x2a ./StdPeriphDriver/CH57x_clk.o
 .text.RTC_GetTime
                0x0000000000000000      0x15c ./StdPeriphDriver/CH57x_clk.o
 .text.RTC_SetCycle32k
                0x0000000000000000       0x62 ./StdPeriphDriver/CH57x_clk.o
 .text.RTC_GetCycle32k
                0x0000000000000000       0x18 ./StdPeriphDriver/CH57x_clk.o
 .text.RTC_TMRFunCfg
                0x0000000000000000       0x48 ./StdPeriphDriver/CH57x_clk.o
 .text.RTC_TRIGFunCfg
                0x0000000000000000       0x5e ./StdPeriphDriver/CH57x_clk.o
 .text.RTC_ModeFunDisable
                0x0000000000000000       0x3c ./StdPeriphDriver/CH57x_clk.o
 .text.RTC_GetITFlag
                0x0000000000000000       0x1a ./StdPeriphDriver/CH57x_clk.o
 .text.RTC_ClearITFlag
                0x0000000000000000       0x20 ./StdPeriphDriver/CH57x_clk.o
 .text          0x0000000000000000        0x0 ./StdPeriphDriver/CH57x_flash.o
 .data          0x0000000000000000        0x0 ./StdPeriphDriver/CH57x_flash.o
 .bss           0x0000000000000000        0x0 ./StdPeriphDriver/CH57x_flash.o
 .text.FLASH_ROM_READ
                0x0000000000000000       0x1c ./StdPeriphDriver/CH57x_flash.o
 .text.GET_UNIQUE_ID
                0x0000000000000000       0x2c ./StdPeriphDriver/CH57x_flash.o
 .debug_info    0x0000000000000000      0xc80 ./StdPeriphDriver/CH57x_flash.o
 .debug_abbrev  0x0000000000000000      0x255 ./StdPeriphDriver/CH57x_flash.o
 .debug_loc     0x0000000000000000      0x12b ./StdPeriphDriver/CH57x_flash.o
 .debug_aranges
                0x0000000000000000       0x28 ./StdPeriphDriver/CH57x_flash.o
 .debug_ranges  0x0000000000000000       0x18 ./StdPeriphDriver/CH57x_flash.o
 .debug_line    0x0000000000000000      0x419 ./StdPeriphDriver/CH57x_flash.o
 .debug_str     0x0000000000000000      0x80a ./StdPeriphDriver/CH57x_flash.o
 .comment       0x0000000000000000       0x34 ./StdPeriphDriver/CH57x_flash.o
 .debug_frame   0x0000000000000000       0x40 ./StdPeriphDriver/CH57x_flash.o
 .text          0x0000000000000000        0x0 ./StdPeriphDriver/CH57x_gpio.o
 .data          0x0000000000000000        0x0 ./StdPeriphDriver/CH57x_gpio.o
 .bss           0x0000000000000000        0x0 ./StdPeriphDriver/CH57x_gpio.o
 .text.GPIOA_ModeCfg
                0x0000000000000000       0xa6 ./StdPeriphDriver/CH57x_gpio.o
 .rodata.GPIOA_ModeCfg
                0x0000000000000000       0x14 ./StdPeriphDriver/CH57x_gpio.o
 .text.GPIOA_ITModeCfg
                0x0000000000000000       0x82 ./StdPeriphDriver/CH57x_gpio.o
 .text.GPIOB_ITModeCfg
                0x0000000000000000       0x8a ./StdPeriphDriver/CH57x_gpio.o
 .text.GPIOPinRemap
                0x0000000000000000       0x1a ./StdPeriphDriver/CH57x_gpio.o
 .text.GPIOAGPPCfg
                0x0000000000000000       0x1a ./StdPeriphDriver/CH57x_gpio.o
 .text          0x0000000000000000        0x0 ./StdPeriphDriver/CH57x_pwr.o
 .data          0x0000000000000000        0x0 ./StdPeriphDriver/CH57x_pwr.o
 .bss           0x0000000000000000        0x0 ./StdPeriphDriver/CH57x_pwr.o
 .text.PWR_DCDCCfg
                0x0000000000000000       0x84 ./StdPeriphDriver/CH57x_pwr.o
 .text.PWR_UnitModCfg
                0x0000000000000000       0x60 ./StdPeriphDriver/CH57x_pwr.o
 .text.PWR_PeriphClkCfg
                0x0000000000000000       0x32 ./StdPeriphDriver/CH57x_pwr.o
 .text.PWR_PeriphWakeUpCfg
                0x0000000000000000       0x84 ./StdPeriphDriver/CH57x_pwr.o
 .text.PowerMonitor
                0x0000000000000000       0xa0 ./StdPeriphDriver/CH57x_pwr.o
 .highcode      0x0000000000000000      0x314 ./StdPeriphDriver/CH57x_pwr.o
 .sdata2.CSWTCH.10
                0x0000000000000000        0x4 ./StdPeriphDriver/CH57x_pwr.o
 .debug_info    0x0000000000000000     0x1532 ./StdPeriphDriver/CH57x_pwr.o
 .debug_abbrev  0x0000000000000000      0x358 ./StdPeriphDriver/CH57x_pwr.o
 .debug_loc     0x0000000000000000      0x2f7 ./StdPeriphDriver/CH57x_pwr.o
 .debug_aranges
                0x0000000000000000       0x60 ./StdPeriphDriver/CH57x_pwr.o
 .debug_ranges  0x0000000000000000       0x70 ./StdPeriphDriver/CH57x_pwr.o
 .debug_line    0x0000000000000000     0x12c6 ./StdPeriphDriver/CH57x_pwr.o
 .debug_str     0x0000000000000000      0xbfb ./StdPeriphDriver/CH57x_pwr.o
 .comment       0x0000000000000000       0x34 ./StdPeriphDriver/CH57x_pwr.o
 .debug_frame   0x0000000000000000      0x110 ./StdPeriphDriver/CH57x_pwr.o
 .text          0x0000000000000000        0x0 ./StdPeriphDriver/CH57x_spi0.o
 .data          0x0000000000000000        0x0 ./StdPeriphDriver/CH57x_spi0.o
 .bss           0x0000000000000000        0x0 ./StdPeriphDriver/CH57x_spi0.o
 .text.SPI0_MasterDefInit
                0x0000000000000000       0x32 ./StdPeriphDriver/CH57x_spi0.o
 .text.SPI0_CLKCfg
                0x0000000000000000       0x2a ./StdPeriphDriver/CH57x_spi0.o
 .text.SPI0_DataMode
                0x0000000000000000       0x6a ./StdPeriphDriver/CH57x_spi0.o
 .text.SPI0_MasterSendByte
                0x0000000000000000       0x24 ./StdPeriphDriver/CH57x_spi0.o
 .text.SPI0_MasterRecvByte
                0x0000000000000000       0x2a ./StdPeriphDriver/CH57x_spi0.o
 .text.SPI0_MasterTrans
                0x0000000000000000       0x4c ./StdPeriphDriver/CH57x_spi0.o
 .text.SPI0_MasterRecv
                0x0000000000000000       0x42 ./StdPeriphDriver/CH57x_spi0.o
 .text.SPI0_MasterDMATrans
                0x0000000000000000       0x50 ./StdPeriphDriver/CH57x_spi0.o
 .text.SPI0_MasterDMARecv
                0x0000000000000000       0x50 ./StdPeriphDriver/CH57x_spi0.o
 .text.SPI0_SlaveInit
                0x0000000000000000       0x20 ./StdPeriphDriver/CH57x_spi0.o
 .text.SPI0_SlaveRecvByte
                0x0000000000000000       0x20 ./StdPeriphDriver/CH57x_spi0.o
 .text.SPI0_SlaveSendByte
                0x0000000000000000       0x24 ./StdPeriphDriver/CH57x_spi0.o
 .text.SPI0_SlaveRecv
                0x0000000000000000       0x3e ./StdPeriphDriver/CH57x_spi0.o
 .text.SPI0_SlaveTrans
                0x0000000000000000       0x48 ./StdPeriphDriver/CH57x_spi0.o
 .text.SPI0_SlaveDMARecv
                0x0000000000000000        0x8 ./StdPeriphDriver/CH57x_spi0.o
 .text.SPI0_SlaveDMATrans
                0x0000000000000000        0x8 ./StdPeriphDriver/CH57x_spi0.o
 .debug_info    0x0000000000000000      0xec0 ./StdPeriphDriver/CH57x_spi0.o
 .debug_abbrev  0x0000000000000000      0x304 ./StdPeriphDriver/CH57x_spi0.o
 .debug_loc     0x0000000000000000      0x1b6 ./StdPeriphDriver/CH57x_spi0.o
 .debug_aranges
                0x0000000000000000       0x88 ./StdPeriphDriver/CH57x_spi0.o
 .debug_ranges  0x0000000000000000       0x78 ./StdPeriphDriver/CH57x_spi0.o
 .debug_line    0x0000000000000000      0xc6d ./StdPeriphDriver/CH57x_spi0.o
 .debug_str     0x0000000000000000      0x961 ./StdPeriphDriver/CH57x_spi0.o
 .comment       0x0000000000000000       0x34 ./StdPeriphDriver/CH57x_spi0.o
 .debug_frame   0x0000000000000000      0x110 ./StdPeriphDriver/CH57x_spi0.o
 .text          0x0000000000000000        0x0 ./StdPeriphDriver/CH57x_sys.o
 .data          0x0000000000000000        0x0 ./StdPeriphDriver/CH57x_sys.o
 .bss           0x0000000000000000        0x0 ./StdPeriphDriver/CH57x_sys.o
 .text.GetSysClock
                0x0000000000000000       0x42 ./StdPeriphDriver/CH57x_sys.o
 .text.SYS_GetInfoSta
                0x0000000000000000       0x24 ./StdPeriphDriver/CH57x_sys.o
 .text.SYS_DisableAllIrq
                0x0000000000000000       0x20 ./StdPeriphDriver/CH57x_sys.o
 .text.SYS_RecoverIrq
                0x0000000000000000       0x14 ./StdPeriphDriver/CH57x_sys.o
 .text.WWDG_ITCfg
                0x0000000000000000       0x38 ./StdPeriphDriver/CH57x_sys.o
 .text.WWDG_ResetCfg
                0x0000000000000000       0x38 ./StdPeriphDriver/CH57x_sys.o
 .text.WWDG_ClearFlag
                0x0000000000000000       0x2a ./StdPeriphDriver/CH57x_sys.o
 .text._sbrk    0x0000000000000000       0x34 ./StdPeriphDriver/CH57x_sys.o
 .sdata.curbrk.2944
                0x0000000000000000        0x4 ./StdPeriphDriver/CH57x_sys.o
 .text          0x0000000000000000        0x0 ./StdPeriphDriver/CH57x_uart1.o
 .data          0x0000000000000000        0x0 ./StdPeriphDriver/CH57x_uart1.o
 .bss           0x0000000000000000        0x0 ./StdPeriphDriver/CH57x_uart1.o
 .text.UART1_BaudRateCfg
                0x0000000000000000       0x36 ./StdPeriphDriver/CH57x_uart1.o
 .text.UART1_DefInit
                0x0000000000000000       0x38 ./StdPeriphDriver/CH57x_uart1.o
 .text.UART1_ByteTrigCfg
                0x0000000000000000       0x1a ./StdPeriphDriver/CH57x_uart1.o
 .text.UART1_INTCfg
                0x0000000000000000       0x2a ./StdPeriphDriver/CH57x_uart1.o
 .text.UART1_Reset
                0x0000000000000000        0xe ./StdPeriphDriver/CH57x_uart1.o
 .text.UART1_SendString
                0x0000000000000000       0x28 ./StdPeriphDriver/CH57x_uart1.o
 .text.UART1_RecvString
                0x0000000000000000       0x2a ./StdPeriphDriver/CH57x_uart1.o
 .debug_info    0x0000000000000000      0xd86 ./StdPeriphDriver/CH57x_uart1.o
 .debug_abbrev  0x0000000000000000      0x2aa ./StdPeriphDriver/CH57x_uart1.o
 .debug_loc     0x0000000000000000      0x1ed ./StdPeriphDriver/CH57x_uart1.o
 .debug_aranges
                0x0000000000000000       0x50 ./StdPeriphDriver/CH57x_uart1.o
 .debug_ranges  0x0000000000000000       0x40 ./StdPeriphDriver/CH57x_uart1.o
 .debug_line    0x0000000000000000      0x68b ./StdPeriphDriver/CH57x_uart1.o
 .debug_str     0x0000000000000000      0x8bf ./StdPeriphDriver/CH57x_uart1.o
 .comment       0x0000000000000000       0x34 ./StdPeriphDriver/CH57x_uart1.o
 .debug_frame   0x0000000000000000       0x9c ./StdPeriphDriver/CH57x_uart1.o
 .text          0x0000000000000000        0x0 ./Startup/startup_CH573.o
 .data          0x0000000000000000        0x0 ./Startup/startup_CH573.o
 .bss           0x0000000000000000        0x0 ./Startup/startup_CH573.o
 .text          0x0000000000000000        0x0 ./RVMSIS/core_riscv.o
 .data          0x0000000000000000        0x0 ./RVMSIS/core_riscv.o
 .bss           0x0000000000000000        0x0 ./RVMSIS/core_riscv.o
 .text.__get_MSTATUS
                0x0000000000000000        0x6 ./RVMSIS/core_riscv.o
 .text.__set_MSTATUS
                0x0000000000000000        0x6 ./RVMSIS/core_riscv.o
 .text.__get_MISA
                0x0000000000000000        0x6 ./RVMSIS/core_riscv.o
 .text.__set_MISA
                0x0000000000000000        0x6 ./RVMSIS/core_riscv.o
 .text.__get_MTVEC
                0x0000000000000000        0x6 ./RVMSIS/core_riscv.o
 .text.__set_MTVEC
                0x0000000000000000        0x6 ./RVMSIS/core_riscv.o
 .text.__get_MSCRATCH
                0x0000000000000000        0x6 ./RVMSIS/core_riscv.o
 .text.__set_MSCRATCH
                0x0000000000000000        0x6 ./RVMSIS/core_riscv.o
 .text.__get_MEPC
                0x0000000000000000        0x6 ./RVMSIS/core_riscv.o
 .text.__set_MEPC
                0x0000000000000000        0x6 ./RVMSIS/core_riscv.o
 .text.__get_MCAUSE
                0x0000000000000000        0x6 ./RVMSIS/core_riscv.o
 .text.__set_MCAUSE
                0x0000000000000000        0x6 ./RVMSIS/core_riscv.o
 .text.__get_MTVAL
                0x0000000000000000        0x6 ./RVMSIS/core_riscv.o
 .text.__set_MTVAL
                0x0000000000000000        0x6 ./RVMSIS/core_riscv.o
 .text.__get_MVENDORID
                0x0000000000000000        0x6 ./RVMSIS/core_riscv.o
 .text.__get_MARCHID
                0x0000000000000000        0x6 ./RVMSIS/core_riscv.o
 .text.__get_MIMPID
                0x0000000000000000        0x6 ./RVMSIS/core_riscv.o
 .text.__get_MHARTID
                0x0000000000000000        0x6 ./RVMSIS/core_riscv.o
 .text.__get_SP
                0x0000000000000000        0x4 ./RVMSIS/core_riscv.o
 .debug_info    0x0000000000000000      0x375 ./RVMSIS/core_riscv.o
 .debug_abbrev  0x0000000000000000       0xe0 ./RVMSIS/core_riscv.o
 .debug_aranges
                0x0000000000000000       0xb0 ./RVMSIS/core_riscv.o
 .debug_ranges  0x0000000000000000       0xa0 ./RVMSIS/core_riscv.o
 .debug_line    0x0000000000000000      0x4eb ./RVMSIS/core_riscv.o
 .debug_str     0x0000000000000000      0x2f6 ./RVMSIS/core_riscv.o
 .comment       0x0000000000000000       0x34 ./RVMSIS/core_riscv.o
 .debug_frame   0x0000000000000000      0x140 ./RVMSIS/core_riscv.o
 .text          0x0000000000000000        0x0 ./Profile/battservice.o
 .data          0x0000000000000000        0x0 ./Profile/battservice.o
 .bss           0x0000000000000000        0x0 ./Profile/battservice.o
 .text.Batt_GetParameter
                0x0000000000000000       0x72 ./Profile/battservice.o
 .text.Batt_Setup
                0x0000000000000000       0x2a ./Profile/battservice.o
 .text          0x0000000000000000        0x0 ./Profile/devinfoservice.o
 .data          0x0000000000000000        0x0 ./Profile/devinfoservice.o
 .bss           0x0000000000000000        0x0 ./Profile/devinfoservice.o
 .text.DevInfo_GetParameter
                0x0000000000000000       0x9e ./Profile/devinfoservice.o
 .rodata.DevInfo_GetParameter
                0x0000000000000000       0x24 ./Profile/devinfoservice.o
 .text          0x0000000000000000        0x0 ./Profile/resbandservice.o
 .data          0x0000000000000000        0x0 ./Profile/resbandservice.o
 .bss           0x0000000000000000        0x0 ./Profile/resbandservice.o
 .text.ResBand_SetParameter
                0x0000000000000000       0x1e ./Profile/resbandservice.o
 .text.ResBand_GetParameter
                0x0000000000000000       0x5c ./Profile/resbandservice.o
 .text.ResBand_GetBandParameters
                0x0000000000000000       0x16 ./Profile/resbandservice.o
 .sbss.resBandSensLoc
                0x0000000000000000        0x1 ./Profile/resbandservice.o
 .sdata2.resBandCommandUUID
                0x0000000000000000        0x2 ./Profile/resbandservice.o
 .text          0x0000000000000000        0x0 ./HAL/AS5600.o
 .data          0x0000000000000000        0x0 ./HAL/AS5600.o
 .bss           0x0000000000000000        0x0 ./HAL/AS5600.o
 .text.IIC_Start
                0x0000000000000000       0x6a ./HAL/AS5600.o
 .text.IIC_Stop
                0x0000000000000000       0x68 ./HAL/AS5600.o
 .text.IIC_Wait_Ack
                0x0000000000000000       0x70 ./HAL/AS5600.o
 .text.IIC_Ack  0x0000000000000000       0x62 ./HAL/AS5600.o
 .text.IIC_NAck
                0x0000000000000000       0x62 ./HAL/AS5600.o
 .text.IIC_Send_Byte
                0x0000000000000000       0xae ./HAL/AS5600.o
 .text.IIC_Read_Byte
                0x0000000000000000       0x9a ./HAL/AS5600.o
 .text.AS5600_ReadOneByte
                0x0000000000000000       0x72 ./HAL/AS5600.o
 .text.AS5600_WriteOneByte
                0x0000000000000000       0x6e ./HAL/AS5600.o
 .text.AS5600_ReadTwoByte
                0x0000000000000000       0x2e ./HAL/AS5600.o
 .debug_info    0x0000000000000000     0x1292 ./HAL/AS5600.o
 .debug_abbrev  0x0000000000000000      0x2c3 ./HAL/AS5600.o
 .debug_loc     0x0000000000000000      0x25c ./HAL/AS5600.o
 .debug_aranges
                0x0000000000000000       0x68 ./HAL/AS5600.o
 .debug_ranges  0x0000000000000000       0x58 ./HAL/AS5600.o
 .debug_line    0x0000000000000000      0xbd8 ./HAL/AS5600.o
 .debug_str     0x0000000000000000      0xace ./HAL/AS5600.o
 .comment       0x0000000000000000       0x34 ./HAL/AS5600.o
 .debug_frame   0x0000000000000000      0x198 ./HAL/AS5600.o
 .text          0x0000000000000000        0x0 ./HAL/LED.o
 .data          0x0000000000000000        0x0 ./HAL/LED.o
 .bss           0x0000000000000000        0x0 ./HAL/LED.o
 .text.HalLedGetState
                0x0000000000000000        0xa ./HAL/LED.o
 .text          0x0000000000000000        0x0 ./HAL/MCU.o
 .data          0x0000000000000000        0x0 ./HAL/MCU.o
 .bss           0x0000000000000000        0x0 ./HAL/MCU.o
 .text          0x0000000000000000        0x0 ./HAL/RTC.o
 .data          0x0000000000000000        0x0 ./HAL/RTC.o
 .bss           0x0000000000000000        0x0 ./HAL/RTC.o
 .text.RTC_SetTignTime
                0x0000000000000000       0x28 ./HAL/RTC.o
 .text          0x0000000000000000        0x0 ./HAL/SLEEP.o
 .data          0x0000000000000000        0x0 ./HAL/SLEEP.o
 .bss           0x0000000000000000        0x0 ./HAL/SLEEP.o
 .text.CH57X_LowPower
                0x0000000000000000        0x4 ./HAL/SLEEP.o
 .text.HAL_SleepInit
                0x0000000000000000        0x2 ./HAL/SLEEP.o
 .debug_info    0x0000000000000000      0xd6d ./HAL/SLEEP.o
 .debug_abbrev  0x0000000000000000      0x211 ./HAL/SLEEP.o
 .debug_loc     0x0000000000000000       0x21 ./HAL/SLEEP.o
 .debug_aranges
                0x0000000000000000       0x28 ./HAL/SLEEP.o
 .debug_ranges  0x0000000000000000       0x18 ./HAL/SLEEP.o
 .debug_line    0x0000000000000000      0x3f5 ./HAL/SLEEP.o
 .debug_str     0x0000000000000000      0x97a ./HAL/SLEEP.o
 .comment       0x0000000000000000       0x34 ./HAL/SLEEP.o
 .debug_frame   0x0000000000000000       0x30 ./HAL/SLEEP.o
 .text          0x0000000000000000        0x0 ./APP/OY8699.o
 .data          0x0000000000000000        0x0 ./APP/OY8699.o
 .bss           0x0000000000000000        0x0 ./APP/OY8699.o
 .text.OY_Serial_Resync
                0x0000000000000000       0x4a ./APP/OY8699.o
 .text.OY_SPI_Init
                0x0000000000000000       0x40 ./APP/OY8699.o
 .sbss.Receive_MotionStatus_Buff
                0x0000000000000000        0x2 ./APP/OY8699.o
 .sbss.Receive_X_Buff
                0x0000000000000000        0x2 ./APP/OY8699.o
 .sbss.Receive_Y_Buff
                0x0000000000000000        0x2 ./APP/OY8699.o
 .sdata.Send_MotionStatus_Buff
                0x0000000000000000        0x2 ./APP/OY8699.o
 .sdata.Send_X_Buff
                0x0000000000000000        0x2 ./APP/OY8699.o
 .sdata.Send_Y_Buff
                0x0000000000000000        0x2 ./APP/OY8699.o
 .text          0x0000000000000000        0x0 ./APP/resband.o
 .data          0x0000000000000000        0x0 ./APP/resband.o
 .bss           0x0000000000000000        0x0 ./APP/resband.o
 .text          0x0000000000000000        0x0 ./APP/resband_main.o
 .data          0x0000000000000000        0x0 ./APP/resband_main.o
 .bss           0x0000000000000000        0x0 ./APP/resband_main.o
 .text          0x0000000000000000        0x0 ./APP/tension.o
 .data          0x0000000000000000        0x0 ./APP/tension.o
 .bss           0x0000000000000000        0x0 ./APP/tension.o
 .text.TensionCalculator_Init
                0x0000000000000000       0x28 ./APP/tension.o
 .text.TensionCalculator_SetParameters
                0x0000000000000000       0x6e ./APP/tension.o
 .text.TensionCalculator_CalibrateZero
                0x0000000000000000       0x14 ./APP/tension.o
 .text.TensionCalculator_CalculateTension
                0x0000000000000000       0xde ./APP/tension.o
 .text.TensionCalculator_GetTensionValue
                0x0000000000000000       0x30 ./APP/tension.o
 .text.TensionCalculator_UpdateTrainingStats
                0x0000000000000000       0xf8 ./APP/tension.o
 .text.TensionCalculator_GetTrainingStats
                0x0000000000000000       0x4e ./APP/tension.o
 .text.TensionCalculator_ResetTrainingStats
                0x0000000000000000       0x2e ./APP/tension.o
 .text.TensionCalculator_GetCurrentPullDuration
                0x0000000000000000       0x2c ./APP/tension.o
 .text.TensionCalculator_IsPulling
                0x0000000000000000        0xa ./APP/tension.o
 .text.TensionCalculator_GetTotalPulls
                0x0000000000000000        0xc ./APP/tension.o
 .text.TensionCalculator_GetTotalTrainingTime
                0x0000000000000000        0xc ./APP/tension.o
 .bss.training_stats
                0x0000000000000000       0x1c ./APP/tension.o
 .data.band_params
                0x0000000000000000       0x10 ./APP/tension.o
 .rodata.TensionCalculator_CalculateTension.cst4
                0x0000000000000000       0x10 ./APP/tension.o
 .rodata.TensionCalculator_Init.cst4
                0x0000000000000000        0x4 ./APP/tension.o
 .rodata.TensionCalculator_SetParameters.cst4
                0x0000000000000000        0x8 ./APP/tension.o
 .rodata.TensionCalculator_UpdateTrainingStats.cst4
                0x0000000000000000        0x8 ./APP/tension.o
 .sbss.last_update_time.4353
                0x0000000000000000        0x4 ./APP/tension.o
 .debug_info    0x0000000000000000     0x1236 ./APP/tension.o
 .debug_abbrev  0x0000000000000000      0x3ad ./APP/tension.o
 .debug_loc     0x0000000000000000      0x2f1 ./APP/tension.o
 .debug_aranges
                0x0000000000000000       0x78 ./APP/tension.o
 .debug_ranges  0x0000000000000000       0x88 ./APP/tension.o
 .debug_line    0x0000000000000000      0xb0a ./APP/tension.o
 .debug_str     0x0000000000000000      0xd73 ./APP/tension.o
 .comment       0x0000000000000000       0x34 ./APP/tension.o
 .debug_frame   0x0000000000000000      0x164 ./APP/tension.o
 .text          0x0000000000000000        0x0 d:/BaiduSyncdisk/Edith/墨小孔实习/resband/SRC/StdPeriphDriver\libISP573.a(ISP573.o)
 .data          0x0000000000000000        0x0 d:/BaiduSyncdisk/Edith/墨小孔实习/resband/SRC/StdPeriphDriver\libISP573.a(ISP573.o)
 .bss           0x0000000000000000        0x0 d:/BaiduSyncdisk/Edith/墨小孔实习/resband/SRC/StdPeriphDriver\libISP573.a(ISP573.o)
 .text          0x0000000000000000        0x0 d:/BaiduSyncdisk/Edith/墨小孔实习/resband/resistance_band/LIB\libCH57xBLE.a(message.o)
 .data          0x0000000000000000        0x0 d:/BaiduSyncdisk/Edith/墨小孔实习/resband/resistance_band/LIB\libCH57xBLE.a(message.o)
 .bss           0x0000000000000000        0x0 d:/BaiduSyncdisk/Edith/墨小孔实习/resband/resistance_band/LIB\libCH57xBLE.a(message.o)
 .text.tmos_msg_push
                0x0000000000000000        0xa d:/BaiduSyncdisk/Edith/墨小孔实习/resband/resistance_band/LIB\libCH57xBLE.a(message.o)
 .text.tmos_msg_push_front
                0x0000000000000000       0x70 d:/BaiduSyncdisk/Edith/墨小孔实习/resband/resistance_band/LIB\libCH57xBLE.a(message.o)
 .text          0x0000000000000000        0x0 d:/BaiduSyncdisk/Edith/墨小孔实习/resband/resistance_band/LIB\libCH57xBLE.a(tmos.o)
 .data          0x0000000000000000        0x0 d:/BaiduSyncdisk/Edith/墨小孔实习/resband/resistance_band/LIB\libCH57xBLE.a(tmos.o)
 .bss           0x0000000000000000        0x0 d:/BaiduSyncdisk/Edith/墨小孔实习/resband/resistance_band/LIB\libCH57xBLE.a(tmos.o)
 .text.tmos_get_event
                0x0000000000000000       0x14 d:/BaiduSyncdisk/Edith/墨小孔实习/resband/resistance_band/LIB\libCH57xBLE.a(tmos.o)
 .text.TMOS_ProcessGet
                0x0000000000000000       0x1a d:/BaiduSyncdisk/Edith/墨小孔实习/resband/resistance_band/LIB\libCH57xBLE.a(tmos.o)
 .text.TMOS_SystemProcessRegister
                0x0000000000000000        0xa d:/BaiduSyncdisk/Edith/墨小孔实习/resband/resistance_band/LIB\libCH57xBLE.a(tmos.o)
 .text          0x0000000000000000        0x0 d:/BaiduSyncdisk/Edith/墨小孔实习/resband/resistance_band/LIB\libCH57xBLE.a(tmos_hw.o)
 .data          0x0000000000000000        0x0 d:/BaiduSyncdisk/Edith/墨小孔实习/resband/resistance_band/LIB\libCH57xBLE.a(tmos_hw.o)
 .bss           0x0000000000000000        0x0 d:/BaiduSyncdisk/Edith/墨小孔实习/resband/resistance_band/LIB\libCH57xBLE.a(tmos_hw.o)
 .text          0x0000000000000000        0x0 d:/BaiduSyncdisk/Edith/墨小孔实习/resband/resistance_band/LIB\libCH57xBLE.a(tmos_snv.o)
 .data          0x0000000000000000        0x0 d:/BaiduSyncdisk/Edith/墨小孔实习/resband/resistance_band/LIB\libCH57xBLE.a(tmos_snv.o)
 .bss           0x0000000000000000        0x0 d:/BaiduSyncdisk/Edith/墨小孔实习/resband/resistance_band/LIB\libCH57xBLE.a(tmos_snv.o)
 .text          0x0000000000000000        0x0 d:/BaiduSyncdisk/Edith/墨小孔实习/resband/resistance_band/LIB\libCH57xBLE.a(gap.o)
 .data          0x0000000000000000        0x0 d:/BaiduSyncdisk/Edith/墨小孔实习/resband/resistance_band/LIB\libCH57xBLE.a(gap.o)
 .bss           0x0000000000000000        0x0 d:/BaiduSyncdisk/Edith/墨小孔实习/resband/resistance_band/LIB\libCH57xBLE.a(gap.o)
 .text.GAP_UpdateLinkParamReq
                0x0000000000000000       0xc8 d:/BaiduSyncdisk/Edith/墨小孔实习/resband/resistance_band/LIB\libCH57xBLE.a(gap.o)
 .text.GAP_PasskeyUpdate
                0x0000000000000000       0x42 d:/BaiduSyncdisk/Edith/墨小孔实习/resband/resistance_band/LIB\libCH57xBLE.a(gap.o)
 .text          0x0000000000000000        0x0 d:/BaiduSyncdisk/Edith/墨小孔实习/resband/resistance_band/LIB\libCH57xBLE.a(gap_central.o)
 .data          0x0000000000000000        0x0 d:/BaiduSyncdisk/Edith/墨小孔实习/resband/resistance_band/LIB\libCH57xBLE.a(gap_central.o)
 .bss           0x0000000000000000        0x0 d:/BaiduSyncdisk/Edith/墨小孔实习/resband/resistance_band/LIB\libCH57xBLE.a(gap_central.o)
 .text.GAP_DeviceDiscoveryCancel
                0x0000000000000000       0x4c d:/BaiduSyncdisk/Edith/墨小孔实习/resband/resistance_band/LIB\libCH57xBLE.a(gap_central.o)
 .text.GAP_DeviceDiscoveryRequest
                0x0000000000000000       0xb0 d:/BaiduSyncdisk/Edith/墨小孔实习/resband/resistance_band/LIB\libCH57xBLE.a(gap_central.o)
 .text.GAP_EstablishLinkReq
                0x0000000000000000      0x178 d:/BaiduSyncdisk/Edith/墨小孔实习/resband/resistance_band/LIB\libCH57xBLE.a(gap_central.o)
 .text          0x0000000000000000        0x0 d:/BaiduSyncdisk/Edith/墨小孔实习/resband/resistance_band/LIB\libCH57xBLE.a(gap_peripheral.o)
 .data          0x0000000000000000        0x0 d:/BaiduSyncdisk/Edith/墨小孔实习/resband/resistance_band/LIB\libCH57xBLE.a(gap_peripheral.o)
 .bss           0x0000000000000000        0x0 d:/BaiduSyncdisk/Edith/墨小孔实习/resband/resistance_band/LIB\libCH57xBLE.a(gap_peripheral.o)
 .text.GAP_RemoveAdvToken
                0x0000000000000000       0x58 d:/BaiduSyncdisk/Edith/墨小孔实习/resband/resistance_band/LIB\libCH57xBLE.a(gap_peripheral.o)
 .text.GAP_UpdateAdvTokens
                0x0000000000000000      0x186 d:/BaiduSyncdisk/Edith/墨小孔实习/resband/resistance_band/LIB\libCH57xBLE.a(gap_peripheral.o)
 .text.GAP_SetAdvToken
                0x0000000000000000       0xf0 d:/BaiduSyncdisk/Edith/墨小孔实习/resband/resistance_band/LIB\libCH57xBLE.a(gap_peripheral.o)
 .text.GAP_ConfigDeviceAddr
                0x0000000000000000      0x13e d:/BaiduSyncdisk/Edith/墨小孔实习/resband/resistance_band/LIB\libCH57xBLE.a(gap_peripheral.o)
 .text          0x0000000000000000        0x0 d:/BaiduSyncdisk/Edith/墨小孔实习/resband/resistance_band/LIB\libCH57xBLE.a(gapgattserver.o)
 .data          0x0000000000000000        0x0 d:/BaiduSyncdisk/Edith/墨小孔实习/resband/resistance_band/LIB\libCH57xBLE.a(gapgattserver.o)
 .bss           0x0000000000000000        0x0 d:/BaiduSyncdisk/Edith/墨小孔实习/resband/resistance_band/LIB\libCH57xBLE.a(gapgattserver.o)
 .text.GGS_GetParameter
                0x0000000000000000       0x6c d:/BaiduSyncdisk/Edith/墨小孔实习/resband/resistance_band/LIB\libCH57xBLE.a(gapgattserver.o)
 .text.GGS_SetParamValue
                0x0000000000000000        0x2 d:/BaiduSyncdisk/Edith/墨小孔实习/resband/resistance_band/LIB\libCH57xBLE.a(gapgattserver.o)
 .text.GGS_GetParamValue
                0x0000000000000000        0x4 d:/BaiduSyncdisk/Edith/墨小孔实习/resband/resistance_band/LIB\libCH57xBLE.a(gapgattserver.o)
 .text.GGS_DelService
                0x0000000000000000       0x1a d:/BaiduSyncdisk/Edith/墨小孔实习/resband/resistance_band/LIB\libCH57xBLE.a(gapgattserver.o)
 .text.GGS_RegisterAppCBs
                0x0000000000000000        0xa d:/BaiduSyncdisk/Edith/墨小孔实习/resband/resistance_band/LIB\libCH57xBLE.a(gapgattserver.o)
 .text          0x0000000000000000        0x0 d:/BaiduSyncdisk/Edith/墨小孔实习/resband/resistance_band/LIB\libCH57xBLE.a(gatt.o)
 .data          0x0000000000000000        0x0 d:/BaiduSyncdisk/Edith/墨小孔实习/resband/resistance_band/LIB\libCH57xBLE.a(gatt.o)
 .bss           0x0000000000000000        0x0 d:/BaiduSyncdisk/Edith/墨小孔实习/resband/resistance_band/LIB\libCH57xBLE.a(gatt.o)
 .text.gattRead
                0x0000000000000000       0x58 d:/BaiduSyncdisk/Edith/墨小孔实习/resband/resistance_band/LIB\libCH57xBLE.a(gatt.o)
 .text.gattWrite.part.0
                0x0000000000000000       0x58 d:/BaiduSyncdisk/Edith/墨小孔实习/resband/resistance_band/LIB\libCH57xBLE.a(gatt.o)
 .text.gattReadByType
                0x0000000000000000       0x98 d:/BaiduSyncdisk/Edith/墨小孔实习/resband/resistance_band/LIB\libCH57xBLE.a(gatt.o)
 .text.gattReadLong
                0x0000000000000000       0x58 d:/BaiduSyncdisk/Edith/墨小孔实习/resband/resistance_band/LIB\libCH57xBLE.a(gatt.o)
 .text.gattWrite
                0x0000000000000000       0x12 d:/BaiduSyncdisk/Edith/墨小孔实习/resband/resistance_band/LIB\libCH57xBLE.a(gatt.o)
 .text.GATT_DiscAllCharDescs
                0x0000000000000000       0x5a d:/BaiduSyncdisk/Edith/墨小孔实习/resband/resistance_band/LIB\libCH57xBLE.a(gatt.o)
 .text.GATT_DiscAllChars
                0x0000000000000000       0x2e d:/BaiduSyncdisk/Edith/墨小孔实习/resband/resistance_band/LIB\libCH57xBLE.a(gatt.o)
 .text.GATT_DiscAllPrimaryServices
                0x0000000000000000       0x66 d:/BaiduSyncdisk/Edith/墨小孔实习/resband/resistance_band/LIB\libCH57xBLE.a(gatt.o)
 .text.GATT_DiscCharsByUUID
                0x0000000000000000        0xc d:/BaiduSyncdisk/Edith/墨小孔实习/resband/resistance_band/LIB\libCH57xBLE.a(gatt.o)
 .text.GATT_ExchangeMTU
                0x0000000000000000       0x58 d:/BaiduSyncdisk/Edith/墨小孔实习/resband/resistance_band/LIB\libCH57xBLE.a(gatt.o)
 .text.GATT_FindIncludedServices
                0x0000000000000000       0x2e d:/BaiduSyncdisk/Edith/墨小孔实习/resband/resistance_band/LIB\libCH57xBLE.a(gatt.o)
 .text.GATT_ReadCharDesc
                0x0000000000000000        0x8 d:/BaiduSyncdisk/Edith/墨小孔实习/resband/resistance_band/LIB\libCH57xBLE.a(gatt.o)
 .text.GATT_ReadCharValue
                0x0000000000000000        0x8 d:/BaiduSyncdisk/Edith/墨小孔实习/resband/resistance_band/LIB\libCH57xBLE.a(gatt.o)
 .text.GATT_ReadLongCharDesc
                0x0000000000000000        0x8 d:/BaiduSyncdisk/Edith/墨小孔实习/resband/resistance_band/LIB\libCH57xBLE.a(gatt.o)
 .text.GATT_ReadLongCharValue
                0x0000000000000000        0x8 d:/BaiduSyncdisk/Edith/墨小孔实习/resband/resistance_band/LIB\libCH57xBLE.a(gatt.o)
 .text.GATT_ReadMultiCharValues
                0x0000000000000000       0x58 d:/BaiduSyncdisk/Edith/墨小孔实习/resband/resistance_band/LIB\libCH57xBLE.a(gatt.o)
 .text.GATT_ReadUsingCharUUID
                0x0000000000000000        0xc d:/BaiduSyncdisk/Edith/墨小孔实习/resband/resistance_band/LIB\libCH57xBLE.a(gatt.o)
 .text.GATT_SetHostToAppFlowCtrl
                0x0000000000000000        0xe d:/BaiduSyncdisk/Edith/墨小孔实习/resband/resistance_band/LIB\libCH57xBLE.a(gatt.o)
 .text.GATT_SignedWriteNoRsp
                0x0000000000000000       0x3a d:/BaiduSyncdisk/Edith/墨小孔实习/resband/resistance_band/LIB\libCH57xBLE.a(gatt.o)
 .text.GATT_WriteCharValue
                0x0000000000000000       0x16 d:/BaiduSyncdisk/Edith/墨小孔实习/resband/resistance_band/LIB\libCH57xBLE.a(gatt.o)
 .text.GATT_WriteCharDesc
                0x0000000000000000        0x8 d:/BaiduSyncdisk/Edith/墨小孔实习/resband/resistance_band/LIB\libCH57xBLE.a(gatt.o)
 .text.GATT_WriteNoRsp
                0x0000000000000000       0x4c d:/BaiduSyncdisk/Edith/墨小孔实习/resband/resistance_band/LIB\libCH57xBLE.a(gatt.o)
 .text.gattRegisterClient
                0x0000000000000000        0xa d:/BaiduSyncdisk/Edith/墨小孔实习/resband/resistance_band/LIB\libCH57xBLE.a(gatt.o)
 .text.GATT_SendRsp
                0x0000000000000000      0x138 d:/BaiduSyncdisk/Edith/墨小孔实习/resband/resistance_band/LIB\libCH57xBLE.a(gatt.o)
 .rodata.GATT_SendRsp
                0x0000000000000000       0x64 d:/BaiduSyncdisk/Edith/墨小孔实习/resband/resistance_band/LIB\libCH57xBLE.a(gatt.o)
 .text.gattFindByTypeValue
                0x0000000000000000       0x84 d:/BaiduSyncdisk/Edith/墨小孔实习/resband/resistance_band/LIB\libCH57xBLE.a(gatt.o)
 .text.GATT_DiscPrimaryServiceByUUID
                0x0000000000000000       0x86 d:/BaiduSyncdisk/Edith/墨小孔实习/resband/resistance_band/LIB\libCH57xBLE.a(gatt.o)
 .text.gattPrepareWriteReq
                0x0000000000000000       0x76 d:/BaiduSyncdisk/Edith/墨小孔实习/resband/resistance_band/LIB\libCH57xBLE.a(gatt.o)
 .text.gattProcessReliableWrites
                0x0000000000000000       0xe4 d:/BaiduSyncdisk/Edith/墨小孔实习/resband/resistance_band/LIB\libCH57xBLE.a(gatt.o)
 .text.gattProcessWriteLong
                0x0000000000000000       0xd4 d:/BaiduSyncdisk/Edith/墨小孔实习/resband/resistance_band/LIB\libCH57xBLE.a(gatt.o)
 .text.gattWriteLong
                0x0000000000000000       0x94 d:/BaiduSyncdisk/Edith/墨小孔实习/resband/resistance_band/LIB\libCH57xBLE.a(gatt.o)
 .text.GATT_WriteLongCharValue
                0x0000000000000000        0x8 d:/BaiduSyncdisk/Edith/墨小孔实习/resband/resistance_band/LIB\libCH57xBLE.a(gatt.o)
 .text.GATT_WriteLongCharDesc
                0x0000000000000000        0x8 d:/BaiduSyncdisk/Edith/墨小孔实习/resband/resistance_band/LIB\libCH57xBLE.a(gatt.o)
 .text.GATT_ReliableWrites
                0x0000000000000000       0xee d:/BaiduSyncdisk/Edith/墨小孔实习/resband/resistance_band/LIB\libCH57xBLE.a(gatt.o)
 .text.GATT_RegisterForCentMsgs
                0x0000000000000000        0xa d:/BaiduSyncdisk/Edith/墨小孔实习/resband/resistance_band/LIB\libCH57xBLE.a(gatt.o)
 .text          0x0000000000000000        0x0 d:/BaiduSyncdisk/Edith/墨小孔实习/resband/resistance_band/LIB\libCH57xBLE.a(gatt_uuid.o)
 .data          0x0000000000000000        0x0 d:/BaiduSyncdisk/Edith/墨小孔实习/resband/resistance_band/LIB\libCH57xBLE.a(gatt_uuid.o)
 .bss           0x0000000000000000        0x0 d:/BaiduSyncdisk/Edith/墨小孔实习/resband/resistance_band/LIB\libCH57xBLE.a(gatt_uuid.o)
 .text.GATT_FindUUIDRec
                0x0000000000000000      0x17a d:/BaiduSyncdisk/Edith/墨小孔实习/resband/resistance_band/LIB\libCH57xBLE.a(gatt_uuid.o)
 .sdata2.charAggFormatUUID
                0x0000000000000000        0x2 d:/BaiduSyncdisk/Edith/墨小孔实习/resband/resistance_band/LIB\libCH57xBLE.a(gatt_uuid.o)
 .sdata2.charExtPropsUUID
                0x0000000000000000        0x2 d:/BaiduSyncdisk/Edith/墨小孔实习/resband/resistance_band/LIB\libCH57xBLE.a(gatt_uuid.o)
 .sdata2.charFormatUUID
                0x0000000000000000        0x2 d:/BaiduSyncdisk/Edith/墨小孔实习/resband/resistance_band/LIB\libCH57xBLE.a(gatt_uuid.o)
 .sdata2.charUserDescUUID
                0x0000000000000000        0x2 d:/BaiduSyncdisk/Edith/墨小孔实习/resband/resistance_band/LIB\libCH57xBLE.a(gatt_uuid.o)
 .sdata2.extReportRefUUID
                0x0000000000000000        0x2 d:/BaiduSyncdisk/Edith/墨小孔实习/resband/resistance_band/LIB\libCH57xBLE.a(gatt_uuid.o)
 .sdata2.includeUUID
                0x0000000000000000        0x2 d:/BaiduSyncdisk/Edith/墨小孔实习/resband/resistance_band/LIB\libCH57xBLE.a(gatt_uuid.o)
 .sdata2.periPrivacyFlagUUID
                0x0000000000000000        0x2 d:/BaiduSyncdisk/Edith/墨小孔实习/resband/resistance_band/LIB\libCH57xBLE.a(gatt_uuid.o)
 .sdata2.reconnectAddrUUID
                0x0000000000000000        0x2 d:/BaiduSyncdisk/Edith/墨小孔实习/resband/resistance_band/LIB\libCH57xBLE.a(gatt_uuid.o)
 .sdata2.servCharCfgUUID
                0x0000000000000000        0x2 d:/BaiduSyncdisk/Edith/墨小孔实习/resband/resistance_band/LIB\libCH57xBLE.a(gatt_uuid.o)
 .sdata2.validRangeUUID
                0x0000000000000000        0x2 d:/BaiduSyncdisk/Edith/墨小孔实习/resband/resistance_band/LIB\libCH57xBLE.a(gatt_uuid.o)
 .text          0x0000000000000000        0x0 d:/BaiduSyncdisk/Edith/墨小孔实习/resband/resistance_band/LIB\libCH57xBLE.a(gattclientapp.o)
 .data          0x0000000000000000        0x0 d:/BaiduSyncdisk/Edith/墨小孔实习/resband/resistance_band/LIB\libCH57xBLE.a(gattclientapp.o)
 .bss           0x0000000000000000        0x0 d:/BaiduSyncdisk/Edith/墨小孔实习/resband/resistance_band/LIB\libCH57xBLE.a(gattclientapp.o)
 .text.gattProcessReadByType
                0x0000000000000000      0x1f4 d:/BaiduSyncdisk/Edith/墨小孔实习/resband/resistance_band/LIB\libCH57xBLE.a(gattclientapp.o)
 .text.gattFindClientInfo
                0x0000000000000000       0x34 d:/BaiduSyncdisk/Edith/墨小孔实习/resband/resistance_band/LIB\libCH57xBLE.a(gattclientapp.o)
 .text.gattClientNotifyTxCB
                0x0000000000000000       0x2c d:/BaiduSyncdisk/Edith/墨小孔实习/resband/resistance_band/LIB\libCH57xBLE.a(gattclientapp.o)
 .text.gattGetClientStatus
                0x0000000000000000       0x3a d:/BaiduSyncdisk/Edith/墨小孔实习/resband/resistance_band/LIB\libCH57xBLE.a(gattclientapp.o)
 .text.gattResetClientInfo
                0x0000000000000000       0x8e d:/BaiduSyncdisk/Edith/墨小孔实习/resband/resistance_band/LIB\libCH57xBLE.a(gattclientapp.o)
 .text.gattClientHandleConnStatusCB
                0x0000000000000000       0xb6 d:/BaiduSyncdisk/Edith/墨小孔实习/resband/resistance_band/LIB\libCH57xBLE.a(gattclientapp.o)
 .text.gattClientHandleTimerCB
                0x0000000000000000       0x64 d:/BaiduSyncdisk/Edith/墨小孔实习/resband/resistance_band/LIB\libCH57xBLE.a(gattclientapp.o)
 .text.gattStoreClientInfo
                0x0000000000000000       0x76 d:/BaiduSyncdisk/Edith/墨小孔实习/resband/resistance_band/LIB\libCH57xBLE.a(gattclientapp.o)
 .text.GATT_RegisterForInd
                0x0000000000000000        0xa d:/BaiduSyncdisk/Edith/墨小孔实习/resband/resistance_band/LIB\libCH57xBLE.a(gattclientapp.o)
 .text.gattProcessFindInfo
                0x0000000000000000       0x9a d:/BaiduSyncdisk/Edith/墨小孔实习/resband/resistance_band/LIB\libCH57xBLE.a(gattclientapp.o)
 .text.gattProcessFindByTypeValue
                0x0000000000000000       0x86 d:/BaiduSyncdisk/Edith/墨小孔实习/resband/resistance_band/LIB\libCH57xBLE.a(gattclientapp.o)
 .text.gattProcessReadLong
                0x0000000000000000       0x84 d:/BaiduSyncdisk/Edith/墨小孔实习/resband/resistance_band/LIB\libCH57xBLE.a(gattclientapp.o)
 .text.gattProcessReadByGrpType
                0x0000000000000000       0x9a d:/BaiduSyncdisk/Edith/墨小孔实习/resband/resistance_band/LIB\libCH57xBLE.a(gattclientapp.o)
 .text.gattProcessMultiReqs
                0x0000000000000000      0x168 d:/BaiduSyncdisk/Edith/墨小孔实习/resband/resistance_band/LIB\libCH57xBLE.a(gattclientapp.o)
 .text.gattClientProcessMsgCB
                0x0000000000000000      0x228 d:/BaiduSyncdisk/Edith/墨小孔实习/resband/resistance_band/LIB\libCH57xBLE.a(gattclientapp.o)
 .text.GATT_InitClient
                0x0000000000000000       0xe0 d:/BaiduSyncdisk/Edith/墨小孔实习/resband/resistance_band/LIB\libCH57xBLE.a(gattclientapp.o)
 .sbss.clientInfoTbl
                0x0000000000000000        0x4 d:/BaiduSyncdisk/Edith/墨小孔实习/resband/resistance_band/LIB\libCH57xBLE.a(gattclientapp.o)
 .sbss.indTaskId
                0x0000000000000000        0x1 d:/BaiduSyncdisk/Edith/墨小孔实习/resband/resistance_band/LIB\libCH57xBLE.a(gattclientapp.o)
 .comment       0x0000000000000000       0x34 d:/BaiduSyncdisk/Edith/墨小孔实习/resband/resistance_band/LIB\libCH57xBLE.a(gattclientapp.o)
 .text          0x0000000000000000        0x0 d:/BaiduSyncdisk/Edith/墨小孔实习/resband/resistance_band/LIB\libCH57xBLE.a(gattservapp.o)
 .data          0x0000000000000000        0x0 d:/BaiduSyncdisk/Edith/墨小孔实习/resband/resistance_band/LIB\libCH57xBLE.a(gattservapp.o)
 .bss           0x0000000000000000        0x0 d:/BaiduSyncdisk/Edith/墨小孔实习/resband/resistance_band/LIB\libCH57xBLE.a(gattservapp.o)
 .text.GATTServApp_FindAttr
                0x0000000000000000       0x1c d:/BaiduSyncdisk/Edith/墨小孔实习/resband/resistance_band/LIB\libCH57xBLE.a(gattservapp.o)
 .text.GATTServApp_GetParameter
                0x0000000000000000        0xe d:/BaiduSyncdisk/Edith/墨小孔实习/resband/resistance_band/LIB\libCH57xBLE.a(gattservapp.o)
 .text.gattServApp_SetNumPrepareWrites
                0x0000000000000000       0x3c d:/BaiduSyncdisk/Edith/墨小孔实习/resband/resistance_band/LIB\libCH57xBLE.a(gattservapp.o)
 .text.GATTServApp_SetParameter
                0x0000000000000000       0x60 d:/BaiduSyncdisk/Edith/墨小孔实习/resband/resistance_band/LIB\libCH57xBLE.a(gattservapp.o)
 .text.GATT_DeregisterService
                0x0000000000000000       0x5e d:/BaiduSyncdisk/Edith/墨小孔实习/resband/resistance_band/LIB\libCH57xBLE.a(gattservapp.o)
 .text.GATTServApp_DeregisterService
                0x0000000000000000       0x64 d:/BaiduSyncdisk/Edith/墨小孔实习/resband/resistance_band/LIB\libCH57xBLE.a(gattservapp.o)
 .text.gattServApp_SendNotiInd
                0x0000000000000000       0xa4 d:/BaiduSyncdisk/Edith/墨小孔实习/resband/resistance_band/LIB\libCH57xBLE.a(gattservapp.o)
 .text.GATTServApp_ProcessCharCfg
                0x0000000000000000       0xdc d:/BaiduSyncdisk/Edith/墨小孔实习/resband/resistance_band/LIB\libCH57xBLE.a(gattservapp.o)
 .text.GATT_GetNextHandle
                0x0000000000000000        0xa d:/BaiduSyncdisk/Edith/墨小孔实习/resband/resistance_band/LIB\libCH57xBLE.a(gattservapp.o)
 .text.GATT_RegisterForReq
                0x0000000000000000        0xa d:/BaiduSyncdisk/Edith/墨小孔实习/resband/resistance_band/LIB\libCH57xBLE.a(gattservapp.o)
 .text          0x0000000000000000        0x0 d:/BaiduSyncdisk/Edith/墨小孔实习/resband/resistance_band/LIB\libCH57xBLE.a(l2cap.o)
 .data          0x0000000000000000        0x0 d:/BaiduSyncdisk/Edith/墨小孔实习/resband/resistance_band/LIB\libCH57xBLE.a(l2cap.o)
 .bss           0x0000000000000000        0x0 d:/BaiduSyncdisk/Edith/墨小孔实习/resband/resistance_band/LIB\libCH57xBLE.a(l2cap.o)
 .text.l2capAllocPsm
                0x0000000000000000       0x46 d:/BaiduSyncdisk/Edith/墨小孔实习/resband/resistance_band/LIB\libCH57xBLE.a(l2cap.o)
 .text.L2CAP_ChannelInfo
                0x0000000000000000       0x3e d:/BaiduSyncdisk/Edith/墨小孔实习/resband/resistance_band/LIB\libCH57xBLE.a(l2cap.o)
 .text.L2CAP_DeregisterPsm
                0x0000000000000000       0x42 d:/BaiduSyncdisk/Edith/墨小孔实习/resband/resistance_band/LIB\libCH57xBLE.a(l2cap.o)
 .text.L2CAP_ParseInfoReq
                0x0000000000000000       0x1e d:/BaiduSyncdisk/Edith/墨小孔实习/resband/resistance_band/LIB\libCH57xBLE.a(l2cap.o)
 .text.L2CAP_PsmChannels
                0x0000000000000000       0x98 d:/BaiduSyncdisk/Edith/墨小孔实习/resband/resistance_band/LIB\libCH57xBLE.a(l2cap.o)
 .text.L2CAP_PsmInfo
                0x0000000000000000       0x64 d:/BaiduSyncdisk/Edith/墨小孔实习/resband/resistance_band/LIB\libCH57xBLE.a(l2cap.o)
 .text.L2CAP_RegisterPsm
                0x0000000000000000       0x78 d:/BaiduSyncdisk/Edith/墨小孔实习/resband/resistance_band/LIB\libCH57xBLE.a(l2cap.o)
 .text.L2CAP_SetControllerToHostFlowCtrl
                0x0000000000000000       0x54 d:/BaiduSyncdisk/Edith/墨小孔实习/resband/resistance_band/LIB\libCH57xBLE.a(l2cap.o)
 .text.L2CAP_SetUserConfig
                0x0000000000000000       0x1a d:/BaiduSyncdisk/Edith/墨小孔实习/resband/resistance_band/LIB\libCH57xBLE.a(l2cap.o)
 .text          0x0000000000000000        0x0 d:/BaiduSyncdisk/Edith/墨小孔实习/resband/resistance_band/LIB\libCH57xBLE.a(l2cap_input.o)
 .data          0x0000000000000000        0x0 d:/BaiduSyncdisk/Edith/墨小孔实习/resband/resistance_band/LIB\libCH57xBLE.a(l2cap_input.o)
 .bss           0x0000000000000000        0x0 d:/BaiduSyncdisk/Edith/墨小孔实习/resband/resistance_band/LIB\libCH57xBLE.a(l2cap_input.o)
 .text          0x0000000000000000        0x0 d:/BaiduSyncdisk/Edith/墨小孔实习/resband/resistance_band/LIB\libCH57xBLE.a(l2cap_output.o)
 .data          0x0000000000000000        0x0 d:/BaiduSyncdisk/Edith/墨小孔实习/resband/resistance_band/LIB\libCH57xBLE.a(l2cap_output.o)
 .bss           0x0000000000000000        0x0 d:/BaiduSyncdisk/Edith/墨小孔实习/resband/resistance_band/LIB\libCH57xBLE.a(l2cap_output.o)
 .text.l2capSendFCPkt
                0x0000000000000000       0x12 d:/BaiduSyncdisk/Edith/墨小孔实习/resband/resistance_band/LIB\libCH57xBLE.a(l2cap_output.o)
 .text.L2CAP_SendSDU
                0x0000000000000000       0x94 d:/BaiduSyncdisk/Edith/墨小孔实习/resband/resistance_band/LIB\libCH57xBLE.a(l2cap_output.o)
 .text          0x0000000000000000        0x0 d:/BaiduSyncdisk/Edith/墨小孔实习/resband/resistance_band/LIB\libCH57xBLE.a(l2cap_sdu.o)
 .data          0x0000000000000000        0x0 d:/BaiduSyncdisk/Edith/墨小孔实习/resband/resistance_band/LIB\libCH57xBLE.a(l2cap_sdu.o)
 .bss           0x0000000000000000        0x0 d:/BaiduSyncdisk/Edith/墨小孔实习/resband/resistance_band/LIB\libCH57xBLE.a(l2cap_sdu.o)
 .text.L2CAP_BuildConnectReq
                0x0000000000000000       0x5e d:/BaiduSyncdisk/Edith/墨小孔实习/resband/resistance_band/LIB\libCH57xBLE.a(l2cap_sdu.o)
 .text.L2CAP_ConnectReq
                0x0000000000000000       0x7e d:/BaiduSyncdisk/Edith/墨小孔实习/resband/resistance_band/LIB\libCH57xBLE.a(l2cap_sdu.o)
 .text.L2CAP_ConnectRsp
                0x0000000000000000      0x106 d:/BaiduSyncdisk/Edith/墨小孔实习/resband/resistance_band/LIB\libCH57xBLE.a(l2cap_sdu.o)
 .text          0x0000000000000000        0x0 d:/BaiduSyncdisk/Edith/墨小孔实习/resband/resistance_band/LIB\libCH57xBLE.a(linkdb.o)
 .data          0x0000000000000000        0x0 d:/BaiduSyncdisk/Edith/墨小孔实习/resband/resistance_band/LIB\libCH57xBLE.a(linkdb.o)
 .bss           0x0000000000000000        0x0 d:/BaiduSyncdisk/Edith/墨小孔实习/resband/resistance_band/LIB\libCH57xBLE.a(linkdb.o)
 .text.linkDB_Update
                0x0000000000000000       0x36 d:/BaiduSyncdisk/Edith/墨小孔实习/resband/resistance_band/LIB\libCH57xBLE.a(linkdb.o)
 .text          0x0000000000000000        0x0 d:/BaiduSyncdisk/Edith/墨小孔实习/resband/resistance_band/LIB\libCH57xBLE.a(sm.o)
 .data          0x0000000000000000        0x0 d:/BaiduSyncdisk/Edith/墨小孔实习/resband/resistance_band/LIB\libCH57xBLE.a(sm.o)
 .bss           0x0000000000000000        0x0 d:/BaiduSyncdisk/Edith/墨小孔实习/resband/resistance_band/LIB\libCH57xBLE.a(sm.o)
 .text.smAuthReqToUint8
                0x0000000000000000        0x6 d:/BaiduSyncdisk/Edith/墨小孔实习/resband/resistance_band/LIB\libCH57xBLE.a(sm.o)
 .text.smRegisterInitiator
                0x0000000000000000        0xa d:/BaiduSyncdisk/Edith/墨小孔实习/resband/resistance_band/LIB\libCH57xBLE.a(sm.o)
 .text.smRegisterResponder
                0x0000000000000000        0xa d:/BaiduSyncdisk/Edith/墨小孔实习/resband/resistance_band/LIB\libCH57xBLE.a(sm.o)
 .text.smpParseSecurityReq
                0x0000000000000000       0x14 d:/BaiduSyncdisk/Edith/墨小孔实习/resband/resistance_band/LIB\libCH57xBLE.a(sm.o)
 .text.SM_NewRandKey
                0x0000000000000000       0x54 d:/BaiduSyncdisk/Edith/墨小孔实习/resband/resistance_band/LIB\libCH57xBLE.a(sm.o)
 .text          0x0000000000000000        0x0 d:/BaiduSyncdisk/Edith/墨小孔实习/resband/resistance_band/LIB\libCH57xBLE.a(host_input.o)
 .data          0x0000000000000000        0x0 d:/BaiduSyncdisk/Edith/墨小孔实习/resband/resistance_band/LIB\libCH57xBLE.a(host_input.o)
 .bss           0x0000000000000000        0x0 d:/BaiduSyncdisk/Edith/墨小孔实习/resband/resistance_band/LIB\libCH57xBLE.a(host_input.o)
 .text.HOST_LE_AdvPktReportEvent
                0x0000000000000000       0xa0 d:/BaiduSyncdisk/Edith/墨小孔实习/resband/resistance_band/LIB\libCH57xBLE.a(host_input.o)
 .text.HOST_LE_ReadLocalPublicKeyCompleteEvent
                0x0000000000000000       0x64 d:/BaiduSyncdisk/Edith/墨小孔实习/resband/resistance_band/LIB\libCH57xBLE.a(host_input.o)
 .text.HOST_LE_GenerateDHKeyCompleteEvent
                0x0000000000000000       0x64 d:/BaiduSyncdisk/Edith/墨小孔实习/resband/resistance_band/LIB\libCH57xBLE.a(host_input.o)
 .text.HOST_LE_DirectAdvertisingReportEvent
                0x0000000000000000       0xc2 d:/BaiduSyncdisk/Edith/墨小孔实习/resband/resistance_band/LIB\libCH57xBLE.a(host_input.o)
 .text.HOST_HardwareErrorEvent
                0x0000000000000000       0x46 d:/BaiduSyncdisk/Edith/墨小孔实习/resband/resistance_band/LIB\libCH57xBLE.a(host_input.o)
 .text          0x0000000000000000        0x0 d:/BaiduSyncdisk/Edith/墨小孔实习/resband/resistance_band/LIB\libCH57xBLE.a(host_output.o)
 .data          0x0000000000000000        0x0 d:/BaiduSyncdisk/Edith/墨小孔实习/resband/resistance_band/LIB\libCH57xBLE.a(host_output.o)
 .bss           0x0000000000000000        0x0 d:/BaiduSyncdisk/Edith/墨小孔实习/resband/resistance_band/LIB\libCH57xBLE.a(host_output.o)
 .text.HCI_ReadRemoteVersionInfoCmd
                0x0000000000000000        0x8 d:/BaiduSyncdisk/Edith/墨小孔实习/resband/resistance_band/LIB\libCH57xBLE.a(host_output.o)
 .text.HCI_SetEventMaskCmd
                0x0000000000000000        0x4 d:/BaiduSyncdisk/Edith/墨小孔实习/resband/resistance_band/LIB\libCH57xBLE.a(host_output.o)
 .text.HCI_ResetCmd
                0x0000000000000000        0x8 d:/BaiduSyncdisk/Edith/墨小孔实习/resband/resistance_band/LIB\libCH57xBLE.a(host_output.o)
 .text.HCI_SetDataLengthCmd
                0x0000000000000000        0x8 d:/BaiduSyncdisk/Edith/墨小孔实习/resband/resistance_band/LIB\libCH57xBLE.a(host_output.o)
 .text.HCI_ReadTransmitPowerLevelCmd
                0x0000000000000000        0x8 d:/BaiduSyncdisk/Edith/墨小孔实习/resband/resistance_band/LIB\libCH57xBLE.a(host_output.o)
 .text.HCI_SetControllerToHostFlowCtrlCmd
                0x0000000000000000        0x8 d:/BaiduSyncdisk/Edith/墨小孔实习/resband/resistance_band/LIB\libCH57xBLE.a(host_output.o)
 .text.HCI_HostBufferSizeCmd
                0x0000000000000000        0x4 d:/BaiduSyncdisk/Edith/墨小孔实习/resband/resistance_band/LIB\libCH57xBLE.a(host_output.o)
 .text.HCI_SetEventMaskPage2Cmd
                0x0000000000000000        0x4 d:/BaiduSyncdisk/Edith/墨小孔实习/resband/resistance_band/LIB\libCH57xBLE.a(host_output.o)
 .text.HCI_ReadLocalSupportedCommandsCmd
                0x0000000000000000        0x8 d:/BaiduSyncdisk/Edith/墨小孔实习/resband/resistance_band/LIB\libCH57xBLE.a(host_output.o)
 .text.HCI_ReadLocalSupportedFeaturesCmd
                0x0000000000000000        0x8 d:/BaiduSyncdisk/Edith/墨小孔实习/resband/resistance_band/LIB\libCH57xBLE.a(host_output.o)
 .text.HCI_ReadRssiCmd
                0x0000000000000000        0x8 d:/BaiduSyncdisk/Edith/墨小孔实习/resband/resistance_band/LIB\libCH57xBLE.a(host_output.o)
 .text.HCI_LE_SetEventMaskCmd
                0x0000000000000000        0x4 d:/BaiduSyncdisk/Edith/墨小孔实习/resband/resistance_band/LIB\libCH57xBLE.a(host_output.o)
 .text.HCI_LE_ReadLocalSupportedFeaturesCmd
                0x0000000000000000        0x8 d:/BaiduSyncdisk/Edith/墨小孔实习/resband/resistance_band/LIB\libCH57xBLE.a(host_output.o)
 .text.HCI_LE_SetScanParamCmd
                0x0000000000000000        0x8 d:/BaiduSyncdisk/Edith/墨小孔实习/resband/resistance_band/LIB\libCH57xBLE.a(host_output.o)
 .text.HCI_LE_CreateConnCmd
                0x0000000000000000       0x20 d:/BaiduSyncdisk/Edith/墨小孔实习/resband/resistance_band/LIB\libCH57xBLE.a(host_output.o)
 .text.HCI_LE_ReadWhiteListSizeCmd
                0x0000000000000000        0x8 d:/BaiduSyncdisk/Edith/墨小孔实习/resband/resistance_band/LIB\libCH57xBLE.a(host_output.o)
 .text.HCI_LE_RemoveWhiteListCmd
                0x0000000000000000        0x8 d:/BaiduSyncdisk/Edith/墨小孔实习/resband/resistance_band/LIB\libCH57xBLE.a(host_output.o)
 .text.HCI_LE_SetHostChanClassificationCmd
                0x0000000000000000        0x8 d:/BaiduSyncdisk/Edith/墨小孔实习/resband/resistance_band/LIB\libCH57xBLE.a(host_output.o)
 .text.HCI_LE_ReadChannelMapCmd
                0x0000000000000000        0x8 d:/BaiduSyncdisk/Edith/墨小孔实习/resband/resistance_band/LIB\libCH57xBLE.a(host_output.o)
 .text.HCI_LE_ReadRemoteUsedFeaturesCmd
                0x0000000000000000        0x8 d:/BaiduSyncdisk/Edith/墨小孔实习/resband/resistance_band/LIB\libCH57xBLE.a(host_output.o)
 .text          0x0000000000000000        0x0 d:/BaiduSyncdisk/Edith/墨小孔实习/resband/resistance_band/LIB\libCH57xBLE.a(ll_connect.o)
 .data          0x0000000000000000        0x0 d:/BaiduSyncdisk/Edith/墨小孔实习/resband/resistance_band/LIB\libCH57xBLE.a(ll_connect.o)
 .bss           0x0000000000000000        0x0 d:/BaiduSyncdisk/Edith/墨小孔实习/resband/resistance_band/LIB\libCH57xBLE.a(ll_connect.o)
 .text.LL_ConnectEventRegister
                0x0000000000000000        0xa d:/BaiduSyncdisk/Edith/墨小孔实习/resband/resistance_band/LIB\libCH57xBLE.a(ll_connect.o)
 .text.ll_connect_get_master_number
                0x0000000000000000       0x1c d:/BaiduSyncdisk/Edith/墨小孔实习/resband/resistance_band/LIB\libCH57xBLE.a(ll_connect.o)
 .text.ll_connect_get_start_point
                0x0000000000000000      0x13c d:/BaiduSyncdisk/Edith/墨小孔实习/resband/resistance_band/LIB\libCH57xBLE.a(ll_connect.o)
 .text          0x0000000000000000        0x0 d:/BaiduSyncdisk/Edith/墨小孔实习/resband/resistance_band/LIB\libCH57xBLE.a(ll_core.o)
 .data          0x0000000000000000        0x0 d:/BaiduSyncdisk/Edith/墨小孔实习/resband/resistance_band/LIB\libCH57xBLE.a(ll_core.o)
 .bss           0x0000000000000000        0x0 d:/BaiduSyncdisk/Edith/墨小孔实习/resband/resistance_band/LIB\libCH57xBLE.a(ll_core.o)
 .text          0x0000000000000000        0x0 d:/BaiduSyncdisk/Edith/墨小孔实习/resband/resistance_band/LIB\libCH57xBLE.a(ll_hop.o)
 .data          0x0000000000000000        0x0 d:/BaiduSyncdisk/Edith/墨小孔实习/resband/resistance_band/LIB\libCH57xBLE.a(ll_hop.o)
 .bss           0x0000000000000000        0x0 d:/BaiduSyncdisk/Edith/墨小孔实习/resband/resistance_band/LIB\libCH57xBLE.a(ll_hop.o)
 .text.LL_HopAtleastTwoChannels
                0x0000000000000000       0x40 d:/BaiduSyncdisk/Edith/墨小孔实习/resband/resistance_band/LIB\libCH57xBLE.a(ll_hop.o)
 .text          0x0000000000000000        0x0 d:/BaiduSyncdisk/Edith/墨小孔实习/resband/resistance_band/LIB\libCH57xBLE.a(ll_master.o)
 .data          0x0000000000000000        0x0 d:/BaiduSyncdisk/Edith/墨小孔实习/resband/resistance_band/LIB\libCH57xBLE.a(ll_master.o)
 .bss           0x0000000000000000        0x0 d:/BaiduSyncdisk/Edith/墨小孔实习/resband/resistance_band/LIB\libCH57xBLE.a(ll_master.o)
 .text.LL_MasterSetFirstTimer
                0x0000000000000000      0x140 d:/BaiduSyncdisk/Edith/墨小孔实习/resband/resistance_band/LIB\libCH57xBLE.a(ll_master.o)
 .text.LL_MasterCreateCore
                0x0000000000000000      0x162 d:/BaiduSyncdisk/Edith/墨小孔实习/resband/resistance_band/LIB\libCH57xBLE.a(ll_master.o)
 .text.LL_MasterEnalbe
                0x0000000000000000       0x18 d:/BaiduSyncdisk/Edith/墨小孔实习/resband/resistance_band/LIB\libCH57xBLE.a(ll_master.o)
 .text          0x0000000000000000        0x0 d:/BaiduSyncdisk/Edith/墨小孔实习/resband/resistance_band/LIB\libCH57xBLE.a(ll_pdu.o)
 .data          0x0000000000000000        0x0 d:/BaiduSyncdisk/Edith/墨小孔实习/resband/resistance_band/LIB\libCH57xBLE.a(ll_pdu.o)
 .bss           0x0000000000000000        0x0 d:/BaiduSyncdisk/Edith/墨小孔实习/resband/resistance_band/LIB\libCH57xBLE.a(ll_pdu.o)
 .text          0x0000000000000000        0x0 d:/BaiduSyncdisk/Edith/墨小孔实习/resband/resistance_band/LIB\libCH57xBLE.a(ll_report.o)
 .data          0x0000000000000000        0x0 d:/BaiduSyncdisk/Edith/墨小孔实习/resband/resistance_band/LIB\libCH57xBLE.a(ll_report.o)
 .bss           0x0000000000000000        0x0 d:/BaiduSyncdisk/Edith/墨小孔实习/resband/resistance_band/LIB\libCH57xBLE.a(ll_report.o)
 .text          0x0000000000000000        0x0 d:/BaiduSyncdisk/Edith/墨小孔实习/resband/resistance_band/LIB\libCH57xBLE.a(ll_scan.o)
 .data          0x0000000000000000        0x0 d:/BaiduSyncdisk/Edith/墨小孔实习/resband/resistance_band/LIB\libCH57xBLE.a(ll_scan.o)
 .bss           0x0000000000000000        0x0 d:/BaiduSyncdisk/Edith/墨小孔实习/resband/resistance_band/LIB\libCH57xBLE.a(ll_scan.o)
 .text.llScanTraverseaChannel
                0x0000000000000000       0xe2 d:/BaiduSyncdisk/Edith/墨小孔实习/resband/resistance_band/LIB\libCH57xBLE.a(ll_scan.o)
 .text.llScanSet
                0x0000000000000000      0x152 d:/BaiduSyncdisk/Edith/墨小孔实习/resband/resistance_band/LIB\libCH57xBLE.a(ll_scan.o)
 .text.llScanCreateCore
                0x0000000000000000       0x7a d:/BaiduSyncdisk/Edith/墨小孔实习/resband/resistance_band/LIB\libCH57xBLE.a(ll_scan.o)
 .text.llScanStart
                0x0000000000000000       0x94 d:/BaiduSyncdisk/Edith/墨小孔实习/resband/resistance_band/LIB\libCH57xBLE.a(ll_scan.o)
 .text.ll_scan_filter
                0x0000000000000000      0x152 d:/BaiduSyncdisk/Edith/墨小孔实习/resband/resistance_band/LIB\libCH57xBLE.a(ll_scan.o)
 .text.ll_scan_whitelist
                0x0000000000000000       0x32 d:/BaiduSyncdisk/Edith/墨小孔实习/resband/resistance_band/LIB\libCH57xBLE.a(ll_scan.o)
 .text.ll_scan_add_advertising_to_report
                0x0000000000000000      0x142 d:/BaiduSyncdisk/Edith/墨小孔实习/resband/resistance_band/LIB\libCH57xBLE.a(ll_scan.o)
 .text.ll_scan_remove_all_report
                0x0000000000000000       0x26 d:/BaiduSyncdisk/Edith/墨小孔实习/resband/resistance_band/LIB\libCH57xBLE.a(ll_scan.o)
 .text.ll_scan_rx
                0x0000000000000000      0x2c2 d:/BaiduSyncdisk/Edith/墨小孔实习/resband/resistance_band/LIB\libCH57xBLE.a(ll_scan.o)
 .text.ll_scan_process
                0x0000000000000000      0x198 d:/BaiduSyncdisk/Edith/墨小孔实习/resband/resistance_band/LIB\libCH57xBLE.a(ll_scan.o)
 .text.LL_ScanShut
                0x0000000000000000       0x30 d:/BaiduSyncdisk/Edith/墨小孔实习/resband/resistance_band/LIB\libCH57xBLE.a(ll_scan.o)
 .text.LL_ScanEnable
                0x0000000000000000       0x68 d:/BaiduSyncdisk/Edith/墨小孔实习/resband/resistance_band/LIB\libCH57xBLE.a(ll_scan.o)
 .text          0x0000000000000000        0x0 d:/BaiduSyncdisk/Edith/墨小孔实习/resband/resistance_band/LIB\libCH57xBLE.a(ll_slave.o)
 .data          0x0000000000000000        0x0 d:/BaiduSyncdisk/Edith/墨小孔实习/resband/resistance_band/LIB\libCH57xBLE.a(ll_slave.o)
 .bss           0x0000000000000000        0x0 d:/BaiduSyncdisk/Edith/墨小孔实习/resband/resistance_band/LIB\libCH57xBLE.a(ll_slave.o)
 .text          0x0000000000000000        0x0 d:/BaiduSyncdisk/Edith/墨小孔实习/resband/resistance_band/LIB\libCH57xBLE.a(ll_whitelist.o)
 .data          0x0000000000000000        0x0 d:/BaiduSyncdisk/Edith/墨小孔实习/resband/resistance_band/LIB\libCH57xBLE.a(ll_whitelist.o)
 .bss           0x0000000000000000        0x0 d:/BaiduSyncdisk/Edith/墨小孔实习/resband/resistance_band/LIB\libCH57xBLE.a(ll_whitelist.o)
 .text.LL_WhitelistRemove
                0x0000000000000000       0x92 d:/BaiduSyncdisk/Edith/墨小孔实习/resband/resistance_band/LIB\libCH57xBLE.a(ll_whitelist.o)
 .text          0x0000000000000000        0x0 d:/BaiduSyncdisk/Edith/墨小孔实习/resband/resistance_band/LIB\libCH57xBLE.a(aes.o)
 .data          0x0000000000000000        0x0 d:/BaiduSyncdisk/Edith/墨小孔实习/resband/resistance_band/LIB\libCH57xBLE.a(aes.o)
 .bss           0x0000000000000000        0x0 d:/BaiduSyncdisk/Edith/墨小孔实习/resband/resistance_band/LIB\libCH57xBLE.a(aes.o)
 .text.AES_DevAESDec
                0x0000000000000000      0x1ae d:/BaiduSyncdisk/Edith/墨小孔实习/resband/resistance_band/LIB\libCH57xBLE.a(aes.o)
 .text.LL_Decrypt
                0x0000000000000000       0x14 d:/BaiduSyncdisk/Edith/墨小孔实习/resband/resistance_band/LIB\libCH57xBLE.a(aes.o)
 .text          0x0000000000000000        0x0 d:/BaiduSyncdisk/Edith/墨小孔实习/resband/resistance_band/LIB\libCH57xBLE.a(bb.o)
 .data          0x0000000000000000        0x0 d:/BaiduSyncdisk/Edith/墨小孔实习/resband/resistance_band/LIB\libCH57xBLE.a(bb.o)
 .bss           0x0000000000000000        0x0 d:/BaiduSyncdisk/Edith/墨小孔实习/resband/resistance_band/LIB\libCH57xBLE.a(bb.o)
 .text.BLE_ReadRssi
                0x0000000000000000       0x14 d:/BaiduSyncdisk/Edith/墨小孔实习/resband/resistance_band/LIB\libCH57xBLE.a(bb.o)
 .text          0x0000000000000000        0x0 d:/BaiduSyncdisk/Edith/墨小孔实习/resband/resistance_band/LIB\libCH57xBLE.a(dma.o)
 .data          0x0000000000000000        0x0 d:/BaiduSyncdisk/Edith/墨小孔实习/resband/resistance_band/LIB\libCH57xBLE.a(dma.o)
 .bss           0x0000000000000000        0x0 d:/BaiduSyncdisk/Edith/墨小孔实习/resband/resistance_band/LIB\libCH57xBLE.a(dma.o)
 .text          0x0000000000000000        0x0 d:/BaiduSyncdisk/Edith/墨小孔实习/resband/resistance_band/LIB\libCH57xBLE.a(ip.o)
 .data          0x0000000000000000        0x0 d:/BaiduSyncdisk/Edith/墨小孔实习/resband/resistance_band/LIB\libCH57xBLE.a(ip.o)
 .bss           0x0000000000000000        0x0 d:/BaiduSyncdisk/Edith/墨小孔实习/resband/resistance_band/LIB\libCH57xBLE.a(ip.o)
 .text.BLE_ReadCfo
                0x0000000000000000        0xe d:/BaiduSyncdisk/Edith/墨小孔实习/resband/resistance_band/LIB\libCH57xBLE.a(ip.o)
 .text.GetTxPower
                0x0000000000000000       0x1c d:/BaiduSyncdisk/Edith/墨小孔实习/resband/resistance_band/LIB\libCH57xBLE.a(ip.o)
 .text.ll_hw_api_rx_direct_test
                0x0000000000000000       0x9c d:/BaiduSyncdisk/Edith/墨小孔实习/resband/resistance_band/LIB\libCH57xBLE.a(ip.o)
 .text.BLE_PAControlInit
                0x0000000000000000       0x20 d:/BaiduSyncdisk/Edith/墨小孔实习/resband/resistance_band/LIB\libCH57xBLE.a(ip.o)
 .text.BLE_AccessAddressGenerate
                0x0000000000000000       0xbe d:/BaiduSyncdisk/Edith/墨小孔实习/resband/resistance_band/LIB\libCH57xBLE.a(ip.o)
 .rodata.TX_POWER
                0x0000000000000000       0x20 d:/BaiduSyncdisk/Edith/墨小孔实习/resband/resistance_band/LIB\libCH57xBLE.a(ip.o)
 .text          0x0000000000000000        0x0 d:/BaiduSyncdisk/Edith/墨小孔实习/resband/resistance_band/LIB\libCH57xBLE.a(lle.o)
 .data          0x0000000000000000        0x0 d:/BaiduSyncdisk/Edith/墨小孔实习/resband/resistance_band/LIB\libCH57xBLE.a(lle.o)
 .bss           0x0000000000000000        0x0 d:/BaiduSyncdisk/Edith/墨小孔实习/resband/resistance_band/LIB\libCH57xBLE.a(lle.o)
 .text          0x0000000000000000        0x0 d:/BaiduSyncdisk/Edith/墨小孔实习/resband/resistance_band/LIB\libCH57xBLE.a(rf_fh.o)
 .data          0x0000000000000000        0x0 d:/BaiduSyncdisk/Edith/墨小孔实习/resband/resistance_band/LIB\libCH57xBLE.a(rf_fh.o)
 .bss           0x0000000000000000        0x0 d:/BaiduSyncdisk/Edith/墨小孔实习/resband/resistance_band/LIB\libCH57xBLE.a(rf_fh.o)
 .text.RF_FrequencyHoppingGet
                0x0000000000000000       0xbc d:/BaiduSyncdisk/Edith/墨小孔实习/resband/resistance_band/LIB\libCH57xBLE.a(rf_fh.o)
 .text.rfStop   0x0000000000000000       0x28 d:/BaiduSyncdisk/Edith/墨小孔实习/resband/resistance_band/LIB\libCH57xBLE.a(rf_fh.o)
 .text.RF_TxProcess
                0x0000000000000000      0x15a d:/BaiduSyncdisk/Edith/墨小孔实习/resband/resistance_band/LIB\libCH57xBLE.a(rf_fh.o)
 .text.RF_BondingErase
                0x0000000000000000       0x58 d:/BaiduSyncdisk/Edith/墨小孔实习/resband/resistance_band/LIB\libCH57xBLE.a(rf_fh.o)
 .text.RF_Config
                0x0000000000000000      0x12e d:/BaiduSyncdisk/Edith/墨小孔实习/resband/resistance_band/LIB\libCH57xBLE.a(rf_fh.o)
 .text.RF_Tx    0x0000000000000000      0x2c4 d:/BaiduSyncdisk/Edith/墨小孔实习/resband/resistance_band/LIB\libCH57xBLE.a(rf_fh.o)
 .text.RF_FrequencyHoppingTx
                0x0000000000000000      0x3be d:/BaiduSyncdisk/Edith/墨小孔实习/resband/resistance_band/LIB\libCH57xBLE.a(rf_fh.o)
 .text.RF_RxProcess
                0x0000000000000000      0x3ea d:/BaiduSyncdisk/Edith/墨小孔实习/resband/resistance_band/LIB\libCH57xBLE.a(rf_fh.o)
 .text.RF_Shut  0x0000000000000000       0x9c d:/BaiduSyncdisk/Edith/墨小孔实习/resband/resistance_band/LIB\libCH57xBLE.a(rf_fh.o)
 .text.RF_FrequencyHoppingShut
                0x0000000000000000       0x92 d:/BaiduSyncdisk/Edith/墨小孔实习/resband/resistance_band/LIB\libCH57xBLE.a(rf_fh.o)
 .text.rf_hop_heart_beat
                0x0000000000000000      0x128 d:/BaiduSyncdisk/Edith/墨小孔实习/resband/resistance_band/LIB\libCH57xBLE.a(rf_fh.o)
 .text.RFFH_ProcessEvent
                0x0000000000000000      0x110 d:/BaiduSyncdisk/Edith/墨小孔实习/resband/resistance_band/LIB\libCH57xBLE.a(rf_fh.o)
 .text.RF_FrequencyHoppingRx
                0x0000000000000000      0x3b2 d:/BaiduSyncdisk/Edith/墨小孔实习/resband/resistance_band/LIB\libCH57xBLE.a(rf_fh.o)
 .text.RF_SetChannel
                0x0000000000000000       0x56 d:/BaiduSyncdisk/Edith/墨小孔实习/resband/resistance_band/LIB\libCH57xBLE.a(rf_fh.o)
 .text.RF_RoleInit
                0x0000000000000000       0x58 d:/BaiduSyncdisk/Edith/墨小孔实习/resband/resistance_band/LIB\libCH57xBLE.a(rf_fh.o)
 .rodata.RF_FrequencyHoppingTx.str1.4
                0x0000000000000000        0x7 d:/BaiduSyncdisk/Edith/墨小孔实习/resband/resistance_band/LIB\libCH57xBLE.a(rf_fh.o)
 .text          0x0000000000000000        0x0 d:/BaiduSyncdisk/Edith/墨小孔实习/resband/resistance_band/LIB\libCH57xBLE.a(rfend.o)
 .data          0x0000000000000000        0x0 d:/BaiduSyncdisk/Edith/墨小孔实习/resband/resistance_band/LIB\libCH57xBLE.a(rfend.o)
 .bss           0x0000000000000000        0x0 d:/BaiduSyncdisk/Edith/墨小孔实习/resband/resistance_band/LIB\libCH57xBLE.a(rfend.o)
 .text.RFEND_SetDACREF_TUNE
                0x0000000000000000       0x20 d:/BaiduSyncdisk/Edith/墨小孔实习/resband/resistance_band/LIB\libCH57xBLE.a(rfend.o)
 .text.RFEND_GetDACREF_TUNE
                0x0000000000000000       0x12 d:/BaiduSyncdisk/Edith/墨小孔实习/resband/resistance_band/LIB\libCH57xBLE.a(rfend.o)
 .text.RFEND_SetSensitivity
                0x0000000000000000       0x9a d:/BaiduSyncdisk/Edith/墨小孔实习/resband/resistance_band/LIB\libCH57xBLE.a(rfend.o)
 .text.RFEND_SetAdcMode
                0x0000000000000000        0xa d:/BaiduSyncdisk/Edith/墨小孔实习/resband/resistance_band/LIB\libCH57xBLE.a(rfend.o)
 .text.RFEND_TXCtuneSet
                0x0000000000000000       0x7e d:/BaiduSyncdisk/Edith/墨小孔实习/resband/resistance_band/LIB\libCH57xBLE.a(rfend.o)
 .text.RFEND_TXCtuneGet
                0x0000000000000000       0x70 d:/BaiduSyncdisk/Edith/墨小孔实习/resband/resistance_band/LIB\libCH57xBLE.a(rfend.o)
 .text          0x0000000000000000        0x0 d:/BaiduSyncdisk/Edith/墨小孔实习/resband/resistance_band/LIB\libCH57xBLE.a(api_c.o)
 .data          0x0000000000000000        0x0 d:/BaiduSyncdisk/Edith/墨小孔实习/resband/resistance_band/LIB\libCH57xBLE.a(api_c.o)
 .bss           0x0000000000000000        0x0 d:/BaiduSyncdisk/Edith/墨小孔实习/resband/resistance_band/LIB\libCH57xBLE.a(api_c.o)
 .text.dtmRx    0x0000000000000000       0x52 d:/BaiduSyncdisk/Edith/墨小孔实习/resband/resistance_band/LIB\libCH57xBLE.a(api_c.o)
 .text.API_ReadRemoteVersionInfoCmd
                0x0000000000000000       0x42 d:/BaiduSyncdisk/Edith/墨小孔实习/resband/resistance_band/LIB\libCH57xBLE.a(api_c.o)
 .text.API_SetEventMaskCmd
                0x0000000000000000       0x38 d:/BaiduSyncdisk/Edith/墨小孔实习/resband/resistance_band/LIB\libCH57xBLE.a(api_c.o)
 .text.API_ResetCmd
                0x0000000000000000       0x2e d:/BaiduSyncdisk/Edith/墨小孔实习/resband/resistance_band/LIB\libCH57xBLE.a(api_c.o)
 .text.API_ReadTransmitPowerLevelCmd
                0x0000000000000000       0x3e d:/BaiduSyncdisk/Edith/墨小孔实习/resband/resistance_band/LIB\libCH57xBLE.a(api_c.o)
 .text.API_SetControllerToHostFlowCtrlCmd
                0x0000000000000000       0x4a d:/BaiduSyncdisk/Edith/墨小孔实习/resband/resistance_band/LIB\libCH57xBLE.a(api_c.o)
 .text.API_HostBufferSizeCmd
                0x0000000000000000       0x2c d:/BaiduSyncdisk/Edith/墨小孔实习/resband/resistance_band/LIB\libCH57xBLE.a(api_c.o)
 .text.API_SetEventMaskPage2Cmd
                0x0000000000000000       0x38 d:/BaiduSyncdisk/Edith/墨小孔实习/resband/resistance_band/LIB\libCH57xBLE.a(api_c.o)
 .text.API_ReadAuthPayloadTimeoutCmd
                0x0000000000000000       0x40 d:/BaiduSyncdisk/Edith/墨小孔实习/resband/resistance_band/LIB\libCH57xBLE.a(api_c.o)
 .text.API_WriteAuthPayloadTimeoutCmd
                0x0000000000000000       0x3c d:/BaiduSyncdisk/Edith/墨小孔实习/resband/resistance_band/LIB\libCH57xBLE.a(api_c.o)
 .text.API_ReadLocalVersionInfoCmd
                0x0000000000000000       0x2e d:/BaiduSyncdisk/Edith/墨小孔实习/resband/resistance_band/LIB\libCH57xBLE.a(api_c.o)
 .text.API_ReadLocalSupportedCommandsCmd
                0x0000000000000000       0x5a d:/BaiduSyncdisk/Edith/墨小孔实习/resband/resistance_band/LIB\libCH57xBLE.a(api_c.o)
 .text.API_ReadLocalSupportedFeaturesCmd
                0x0000000000000000       0x2e d:/BaiduSyncdisk/Edith/墨小孔实习/resband/resistance_band/LIB\libCH57xBLE.a(api_c.o)
 .text.API_ReadReadBufferSizeCmd
                0x0000000000000000       0x3a d:/BaiduSyncdisk/Edith/墨小孔实习/resband/resistance_band/LIB\libCH57xBLE.a(api_c.o)
 .text.API_ReadRssiCmd
                0x0000000000000000       0x40 d:/BaiduSyncdisk/Edith/墨小孔实习/resband/resistance_band/LIB\libCH57xBLE.a(api_c.o)
 .text.API_LE_SetEventMaskCmd
                0x0000000000000000       0x36 d:/BaiduSyncdisk/Edith/墨小孔实习/resband/resistance_band/LIB\libCH57xBLE.a(api_c.o)
 .text.API_LE_ReadLocalSupportedFeaturesCmd
                0x0000000000000000       0x2e d:/BaiduSyncdisk/Edith/墨小孔实习/resband/resistance_band/LIB\libCH57xBLE.a(api_c.o)
 .text.API_LE_ReadAdvChanTxPowerCmd
                0x0000000000000000       0x2e d:/BaiduSyncdisk/Edith/墨小孔实习/resband/resistance_band/LIB\libCH57xBLE.a(api_c.o)
 .text.API_LE_SetScanParamCmd
                0x0000000000000000       0x2c d:/BaiduSyncdisk/Edith/墨小孔实习/resband/resistance_band/LIB\libCH57xBLE.a(api_c.o)
 .text.API_LE_CreateConnCmd
                0x0000000000000000       0x3e d:/BaiduSyncdisk/Edith/墨小孔实习/resband/resistance_band/LIB\libCH57xBLE.a(api_c.o)
 .text.API_LE_ReadWhiteListSizeCmd
                0x0000000000000000       0x2e d:/BaiduSyncdisk/Edith/墨小孔实习/resband/resistance_band/LIB\libCH57xBLE.a(api_c.o)
 .text.API_LE_RemoveWhiteListCmd
                0x0000000000000000       0x2c d:/BaiduSyncdisk/Edith/墨小孔实习/resband/resistance_band/LIB\libCH57xBLE.a(api_c.o)
 .text.API_LE_SetHostChanClassificationCmd
                0x0000000000000000       0x2c d:/BaiduSyncdisk/Edith/墨小孔实习/resband/resistance_band/LIB\libCH57xBLE.a(api_c.o)
 .text.API_LE_ReadChannelMapCmd
                0x0000000000000000       0x46 d:/BaiduSyncdisk/Edith/墨小孔实习/resband/resistance_band/LIB\libCH57xBLE.a(api_c.o)
 .text.API_LE_ReadRemoteUsedFeaturesCmd
                0x0000000000000000       0x42 d:/BaiduSyncdisk/Edith/墨小孔实习/resband/resistance_band/LIB\libCH57xBLE.a(api_c.o)
 .text.API_LE_EncryptCmd
                0x0000000000000000       0x2c d:/BaiduSyncdisk/Edith/墨小孔实习/resband/resistance_band/LIB\libCH57xBLE.a(api_c.o)
 .text.API_LE_ReadSupportedStatesCmd
                0x0000000000000000       0x2e d:/BaiduSyncdisk/Edith/墨小孔实习/resband/resistance_band/LIB\libCH57xBLE.a(api_c.o)
 .text.API_LE_ReceiverTestCmd
                0x0000000000000000       0x4c d:/BaiduSyncdisk/Edith/墨小孔实习/resband/resistance_band/LIB\libCH57xBLE.a(api_c.o)
 .text.API_LE_TransmitterTestCmd
                0x0000000000000000       0xa2 d:/BaiduSyncdisk/Edith/墨小孔实习/resband/resistance_band/LIB\libCH57xBLE.a(api_c.o)
 .text.API_LE_TestEndCmd
                0x0000000000000000       0x3e d:/BaiduSyncdisk/Edith/墨小孔实习/resband/resistance_band/LIB\libCH57xBLE.a(api_c.o)
 .text.API_MB_SetTxPowerCmd
                0x0000000000000000       0x2c d:/BaiduSyncdisk/Edith/墨小孔实习/resband/resistance_band/LIB\libCH57xBLE.a(api_c.o)
 .text.API_MB_TuneXT32MCmd
                0x0000000000000000        0x4 d:/BaiduSyncdisk/Edith/墨小孔实习/resband/resistance_band/LIB\libCH57xBLE.a(api_c.o)
 .text.API_MB_SingleCarrierCmd
                0x0000000000000000       0x2c d:/BaiduSyncdisk/Edith/墨小孔实习/resband/resistance_band/LIB\libCH57xBLE.a(api_c.o)
 .text.API_MB_WriteRegisterCmd
                0x0000000000000000       0x2a d:/BaiduSyncdisk/Edith/墨小孔实习/resband/resistance_band/LIB\libCH57xBLE.a(api_c.o)
 .text.API_MB_ReadRegisterCmd
                0x0000000000000000       0x58 d:/BaiduSyncdisk/Edith/墨小孔实习/resband/resistance_band/LIB\libCH57xBLE.a(api_c.o)
 .text.API_LE_SetDataLengthCmd
                0x0000000000000000       0x3a d:/BaiduSyncdisk/Edith/墨小孔实习/resband/resistance_band/LIB\libCH57xBLE.a(api_c.o)
 .text.API_LE_ReadSuggestedDefaultDataLength
                0x0000000000000000       0x30 d:/BaiduSyncdisk/Edith/墨小孔实习/resband/resistance_band/LIB\libCH57xBLE.a(api_c.o)
 .text.API_LE_WriteSuggestedDefaultDataLength
                0x0000000000000000       0x2e d:/BaiduSyncdisk/Edith/墨小孔实习/resband/resistance_band/LIB\libCH57xBLE.a(api_c.o)
 .text.API_LE_ReadLocalPublicKeyCmd
                0x0000000000000000        0x4 d:/BaiduSyncdisk/Edith/墨小孔实习/resband/resistance_band/LIB\libCH57xBLE.a(api_c.o)
 .text.API_LE_GenerateDHKeyCmd
                0x0000000000000000        0x4 d:/BaiduSyncdisk/Edith/墨小孔实习/resband/resistance_band/LIB\libCH57xBLE.a(api_c.o)
 .text.API_LE_RemoveDeviceFromResolvingList
                0x0000000000000000       0x2e d:/BaiduSyncdisk/Edith/墨小孔实习/resband/resistance_band/LIB\libCH57xBLE.a(api_c.o)
 .text.API_LE_ReadResolvingListSizeCmd
                0x0000000000000000       0x30 d:/BaiduSyncdisk/Edith/墨小孔实习/resband/resistance_band/LIB\libCH57xBLE.a(api_c.o)
 .text.API_LE_ReadPeerResolvableAddressCmd
                0x0000000000000000       0x30 d:/BaiduSyncdisk/Edith/墨小孔实习/resband/resistance_band/LIB\libCH57xBLE.a(api_c.o)
 .text.API_LE_ReadLocalResolvableAddressCmd
                0x0000000000000000       0x30 d:/BaiduSyncdisk/Edith/墨小孔实习/resband/resistance_band/LIB\libCH57xBLE.a(api_c.o)
 .text.API_LE_ReadMaximumDataLengthCmd
                0x0000000000000000       0x64 d:/BaiduSyncdisk/Edith/墨小孔实习/resband/resistance_band/LIB\libCH57xBLE.a(api_c.o)
 .text.API_GetConnectNumeber
                0x0000000000000000        0xa d:/BaiduSyncdisk/Edith/墨小孔实习/resband/resistance_band/LIB\libCH57xBLE.a(api_c.o)
 .text          0x0000000000000000        0x0 d:/BaiduSyncdisk/Edith/墨小孔实习/resband/resistance_band/LIB\libCH57xBLE.a(ctl_input.o)
 .data          0x0000000000000000        0x0 d:/BaiduSyncdisk/Edith/墨小孔实习/resband/resistance_band/LIB\libCH57xBLE.a(ctl_input.o)
 .bss           0x0000000000000000        0x0 d:/BaiduSyncdisk/Edith/墨小孔实习/resband/resistance_band/LIB\libCH57xBLE.a(ctl_input.o)
 .text.LL_ReceiverTest
                0x0000000000000000       0x5e d:/BaiduSyncdisk/Edith/墨小孔实习/resband/resistance_band/LIB\libCH57xBLE.a(ctl_input.o)
 .text.LL_TestEnd
                0x0000000000000000       0x84 d:/BaiduSyncdisk/Edith/墨小孔实习/resband/resistance_band/LIB\libCH57xBLE.a(ctl_input.o)
 .text.LL_SetTxPowerLevel
                0x0000000000000000       0xb4 d:/BaiduSyncdisk/Edith/墨小孔实习/resband/resistance_band/LIB\libCH57xBLE.a(ctl_input.o)
 .text.LL_SingleChannel
                0x0000000000000000       0x9e d:/BaiduSyncdisk/Edith/墨小孔实习/resband/resistance_band/LIB\libCH57xBLE.a(ctl_input.o)
 .text.LL_ReadRemoteVersionInfo
                0x0000000000000000       0x6c d:/BaiduSyncdisk/Edith/墨小孔实习/resband/resistance_band/LIB\libCH57xBLE.a(ctl_input.o)
 .text.LL_Reset
                0x0000000000000000       0x7e d:/BaiduSyncdisk/Edith/墨小孔实习/resband/resistance_band/LIB\libCH57xBLE.a(ctl_input.o)
 .text.LL_ReadTxPowerLevel
                0x0000000000000000       0x44 d:/BaiduSyncdisk/Edith/墨小孔实习/resband/resistance_band/LIB\libCH57xBLE.a(ctl_input.o)
 .text.LL_SetControllerToHostFlowCtrl
                0x0000000000000000       0x18 d:/BaiduSyncdisk/Edith/墨小孔实习/resband/resistance_band/LIB\libCH57xBLE.a(ctl_input.o)
 .text.LL_ReadAuthPayloadTimeout
                0x0000000000000000       0x2c d:/BaiduSyncdisk/Edith/墨小孔实习/resband/resistance_band/LIB\libCH57xBLE.a(ctl_input.o)
 .text.LL_WriteAuthPayloadTimeout
                0x0000000000000000       0x6a d:/BaiduSyncdisk/Edith/墨小孔实习/resband/resistance_band/LIB\libCH57xBLE.a(ctl_input.o)
 .text.LL_ReadLocalVersionInfo
                0x0000000000000000       0x52 d:/BaiduSyncdisk/Edith/墨小孔实习/resband/resistance_band/LIB\libCH57xBLE.a(ctl_input.o)
 .text.LL_ReadLocalSupportedCommands
                0x0000000000000000       0x20 d:/BaiduSyncdisk/Edith/墨小孔实习/resband/resistance_band/LIB\libCH57xBLE.a(ctl_input.o)
 .text.LL_ReadLocalSupportedFeatures
                0x0000000000000000       0x1e d:/BaiduSyncdisk/Edith/墨小孔实习/resband/resistance_band/LIB\libCH57xBLE.a(ctl_input.o)
 .text.LL_ReadRssi
                0x0000000000000000       0x26 d:/BaiduSyncdisk/Edith/墨小孔实习/resband/resistance_band/LIB\libCH57xBLE.a(ctl_input.o)
 .text.LL_LE_ReadLocalSupportedFeatures
                0x0000000000000000        0x8 d:/BaiduSyncdisk/Edith/墨小孔实习/resband/resistance_band/LIB\libCH57xBLE.a(ctl_input.o)
 .text.LL_ReadAdvChanTxPower
                0x0000000000000000       0x16 d:/BaiduSyncdisk/Edith/墨小孔实习/resband/resistance_band/LIB\libCH57xBLE.a(ctl_input.o)
 .text.LL_SetScanParam
                0x0000000000000000       0x70 d:/BaiduSyncdisk/Edith/墨小孔实习/resband/resistance_band/LIB\libCH57xBLE.a(ctl_input.o)
 .text.LL_CreateConn
                0x0000000000000000      0x1e6 d:/BaiduSyncdisk/Edith/墨小孔实习/resband/resistance_band/LIB\libCH57xBLE.a(ctl_input.o)
 .text.LL_ReadSuggestedDefaultDataLength
                0x0000000000000000       0x30 d:/BaiduSyncdisk/Edith/墨小孔实习/resband/resistance_band/LIB\libCH57xBLE.a(ctl_input.o)
 .text.LL_WriteSuggestedDefaultDataLength
                0x0000000000000000       0x14 d:/BaiduSyncdisk/Edith/墨小孔实习/resband/resistance_band/LIB\libCH57xBLE.a(ctl_input.o)
 .text.LL_SetDataLength
                0x0000000000000000       0x80 d:/BaiduSyncdisk/Edith/墨小孔实习/resband/resistance_band/LIB\libCH57xBLE.a(ctl_input.o)
 .text.LL_ReadSupportedStates
                0x0000000000000000       0x4e d:/BaiduSyncdisk/Edith/墨小孔实习/resband/resistance_band/LIB\libCH57xBLE.a(ctl_input.o)
 .text.LL_RemoveWhiteListDevice
                0x0000000000000000       0x76 d:/BaiduSyncdisk/Edith/墨小孔实习/resband/resistance_band/LIB\libCH57xBLE.a(ctl_input.o)
 .text.LL_ReadWlSize
                0x0000000000000000       0x10 d:/BaiduSyncdisk/Edith/墨小孔实习/resband/resistance_band/LIB\libCH57xBLE.a(ctl_input.o)
 .text.LL_SetHostChanClassification
                0x0000000000000000       0x46 d:/BaiduSyncdisk/Edith/墨小孔实习/resband/resistance_band/LIB\libCH57xBLE.a(ctl_input.o)
 .text.LL_ReadChanMap
                0x0000000000000000       0x32 d:/BaiduSyncdisk/Edith/墨小孔实习/resband/resistance_band/LIB\libCH57xBLE.a(ctl_input.o)
 .text.LL_ReadRemoteUsedFeatures
                0x0000000000000000       0x32 d:/BaiduSyncdisk/Edith/墨小孔实习/resband/resistance_band/LIB\libCH57xBLE.a(ctl_input.o)
 .text.LL_RemoveDeviceFromResolvingList
                0x0000000000000000       0x7a d:/BaiduSyncdisk/Edith/墨小孔实习/resband/resistance_band/LIB\libCH57xBLE.a(ctl_input.o)
 .text.LL_ReadResolvingListSize
                0x0000000000000000       0x10 d:/BaiduSyncdisk/Edith/墨小孔实习/resband/resistance_band/LIB\libCH57xBLE.a(ctl_input.o)
 .text.LL_ReadPeerResolvableAddress
                0x0000000000000000       0x44 d:/BaiduSyncdisk/Edith/墨小孔实习/resband/resistance_band/LIB\libCH57xBLE.a(ctl_input.o)
 .text.LL_ReadLocalResolvableAddress
                0x0000000000000000       0x44 d:/BaiduSyncdisk/Edith/墨小孔实习/resband/resistance_band/LIB\libCH57xBLE.a(ctl_input.o)
 .rodata.supportedCmdsTable
                0x0000000000000000       0x40 d:/BaiduSyncdisk/Edith/墨小孔实习/resband/resistance_band/LIB\libCH57xBLE.a(ctl_input.o)
 .text          0x0000000000000000        0x0 d:/BaiduSyncdisk/Edith/墨小孔实习/resband/resistance_band/LIB\libCH57xBLE.a(ctl_output.o)
 .data          0x0000000000000000        0x0 d:/BaiduSyncdisk/Edith/墨小孔实习/resband/resistance_band/LIB\libCH57xBLE.a(ctl_output.o)
 .bss           0x0000000000000000        0x0 d:/BaiduSyncdisk/Edith/墨小孔实习/resband/resistance_band/LIB\libCH57xBLE.a(ctl_output.o)
 .text.HCI_SetEventMask
                0x0000000000000000        0x2 d:/BaiduSyncdisk/Edith/墨小孔实习/resband/resistance_band/LIB\libCH57xBLE.a(ctl_output.o)
 .text.HCI_SetEventMaskPage2
                0x0000000000000000        0x2 d:/BaiduSyncdisk/Edith/墨小孔实习/resband/resistance_band/LIB\libCH57xBLE.a(ctl_output.o)
 .text.HCI_SetLeEventMask
                0x0000000000000000       0x14 d:/BaiduSyncdisk/Edith/墨小孔实习/resband/resistance_band/LIB\libCH57xBLE.a(ctl_output.o)
 .text.HCI_LE_AdvertisingReportCback
                0x0000000000000000        0xc d:/BaiduSyncdisk/Edith/墨小孔实习/resband/resistance_band/LIB\libCH57xBLE.a(ctl_output.o)
 .text.HCI_LE_ReadLocalPublicKeyCompleteCback
                0x0000000000000000        0x8 d:/BaiduSyncdisk/Edith/墨小孔实习/resband/resistance_band/LIB\libCH57xBLE.a(ctl_output.o)
 .text.HCI_LE_GenerateDHKeyCompleteCback
                0x0000000000000000        0x8 d:/BaiduSyncdisk/Edith/墨小孔实习/resband/resistance_band/LIB\libCH57xBLE.a(ctl_output.o)
 .text.HCI_LE_DirectAdvertisingReportCback
                0x0000000000000000        0xc d:/BaiduSyncdisk/Edith/墨小孔实习/resband/resistance_band/LIB\libCH57xBLE.a(ctl_output.o)
 .text.HCI_HardwareErrorCback
                0x0000000000000000        0x8 d:/BaiduSyncdisk/Edith/墨小孔实习/resband/resistance_band/LIB\libCH57xBLE.a(ctl_output.o)
 .text          0x0000000000000000        0x0 d:/BaiduSyncdisk/Edith/墨小孔实习/resband/resistance_band/LIB\libCH57xBLE.a(gapbondmgr.o)
 .data          0x0000000000000000        0x0 d:/BaiduSyncdisk/Edith/墨小孔实习/resband/resistance_band/LIB\libCH57xBLE.a(gapbondmgr.o)
 .bss           0x0000000000000000        0x0 d:/BaiduSyncdisk/Edith/墨小孔实习/resband/resistance_band/LIB\libCH57xBLE.a(gapbondmgr.o)
 .text.GAPBondMgr_CentralRegister
                0x0000000000000000       0x46 d:/BaiduSyncdisk/Edith/墨小孔实习/resband/resistance_band/LIB\libCH57xBLE.a(gapbondmgr.o)
 .text.GAPBondMgr_PasscodeRsp
                0x0000000000000000       0x4a d:/BaiduSyncdisk/Edith/墨小孔实习/resband/resistance_band/LIB\libCH57xBLE.a(gapbondmgr.o)
 .text.GAPBondMgr_CheckNVLen
                0x0000000000000000       0x3a d:/BaiduSyncdisk/Edith/墨小孔实习/resband/resistance_band/LIB\libCH57xBLE.a(gapbondmgr.o)
 .rodata.GAPBondMgr_CheckNVLen
                0x0000000000000000       0x18 d:/BaiduSyncdisk/Edith/墨小孔实习/resband/resistance_band/LIB\libCH57xBLE.a(gapbondmgr.o)
 .text          0x0000000000000000        0x0 d:/BaiduSyncdisk/Edith/墨小孔实习/resband/resistance_band/LIB\libCH57xBLE.a(peripheral.o)
 .data          0x0000000000000000        0x0 d:/BaiduSyncdisk/Edith/墨小孔实习/resband/resistance_band/LIB\libCH57xBLE.a(peripheral.o)
 .bss           0x0000000000000000        0x0 d:/BaiduSyncdisk/Edith/墨小孔实习/resband/resistance_band/LIB\libCH57xBLE.a(peripheral.o)
 .text.GAPRole_PeripheralLinkNum
                0x0000000000000000        0x8 d:/BaiduSyncdisk/Edith/墨小孔实习/resband/resistance_band/LIB\libCH57xBLE.a(peripheral.o)
 .text          0x0000000000000000        0x0 d:/BaiduSyncdisk/Edith/墨小孔实习/resband/resistance_band/LIB\libCH57xBLE.a(role.o)
 .data          0x0000000000000000        0x0 d:/BaiduSyncdisk/Edith/墨小孔实习/resband/resistance_band/LIB\libCH57xBLE.a(role.o)
 .bss           0x0000000000000000        0x0 d:/BaiduSyncdisk/Edith/墨小孔实习/resband/resistance_band/LIB\libCH57xBLE.a(role.o)
 .text.GAPRole_RegisterCentralTaskID
                0x0000000000000000       0x2e d:/BaiduSyncdisk/Edith/墨小孔实习/resband/resistance_band/LIB\libCH57xBLE.a(role.o)
 .text.GAPRole_ReadRssiCmd
                0x0000000000000000        0x8 d:/BaiduSyncdisk/Edith/墨小孔实习/resband/resistance_band/LIB\libCH57xBLE.a(role.o)
 .text.GAPRole_TerminateLink
                0x0000000000000000       0x2c d:/BaiduSyncdisk/Edith/墨小孔实习/resband/resistance_band/LIB\libCH57xBLE.a(role.o)
 .text.GAPRole_ObserverInit
                0x0000000000000000       0xa8 d:/BaiduSyncdisk/Edith/墨小孔实习/resband/resistance_band/LIB\libCH57xBLE.a(role.o)
 .text.GAPRole_BroadcasterInit
                0x0000000000000000       0xa8 d:/BaiduSyncdisk/Edith/墨小孔实习/resband/resistance_band/LIB\libCH57xBLE.a(role.o)
 .text.GAPRole_CentralInit
                0x0000000000000000       0xbe d:/BaiduSyncdisk/Edith/墨小孔实习/resband/resistance_band/LIB\libCH57xBLE.a(role.o)
 .text          0x0000000000000000        0x0 d:/BaiduSyncdisk/Edith/墨小孔实习/resband/resistance_band/LIB\libCH57xBLE.a(memory.o)
 .data          0x0000000000000000        0x0 d:/BaiduSyncdisk/Edith/墨小孔实习/resband/resistance_band/LIB\libCH57xBLE.a(memory.o)
 .bss           0x0000000000000000        0x0 d:/BaiduSyncdisk/Edith/墨小孔实习/resband/resistance_band/LIB\libCH57xBLE.a(memory.o)
 .text.tmos_memory_getlen
                0x0000000000000000       0x2c d:/BaiduSyncdisk/Edith/墨小孔实习/resband/resistance_band/LIB\libCH57xBLE.a(memory.o)
 .text.tmos_memory_get_max_block_len
                0x0000000000000000       0x30 d:/BaiduSyncdisk/Edith/墨小孔实习/resband/resistance_band/LIB\libCH57xBLE.a(memory.o)
 .text          0x0000000000000000        0x0 d:/BaiduSyncdisk/Edith/墨小孔实习/resband/resistance_band/LIB\libCH57xBLE.a(att.o)
 .data          0x0000000000000000        0x0 d:/BaiduSyncdisk/Edith/墨小孔实习/resband/resistance_band/LIB\libCH57xBLE.a(att.o)
 .bss           0x0000000000000000        0x0 d:/BaiduSyncdisk/Edith/墨小孔实习/resband/resistance_band/LIB\libCH57xBLE.a(att.o)
 .text.ATT_ConvertUUIDto16
                0x0000000000000000       0x5c d:/BaiduSyncdisk/Edith/墨小孔实习/resband/resistance_band/LIB\libCH57xBLE.a(att.o)
 .text.ATT_RegisterClient
                0x0000000000000000        0xa d:/BaiduSyncdisk/Edith/墨小孔实习/resband/resistance_band/LIB\libCH57xBLE.a(att.o)
 .text.ATT_ParseErrorRsp
                0x0000000000000000       0x2e d:/BaiduSyncdisk/Edith/墨小孔实习/resband/resistance_band/LIB\libCH57xBLE.a(att.o)
 .text.ATT_HandleValueCfm
                0x0000000000000000       0x36 d:/BaiduSyncdisk/Edith/墨小孔实习/resband/resistance_band/LIB\libCH57xBLE.a(att.o)
 .text          0x0000000000000000        0x0 d:/BaiduSyncdisk/Edith/墨小孔实习/resband/resistance_band/LIB\libCH57xBLE.a(att_client.o)
 .data          0x0000000000000000        0x0 d:/BaiduSyncdisk/Edith/墨小孔实习/resband/resistance_band/LIB\libCH57xBLE.a(att_client.o)
 .bss           0x0000000000000000        0x0 d:/BaiduSyncdisk/Edith/墨小孔实习/resband/resistance_band/LIB\libCH57xBLE.a(att_client.o)
 .text.ATT_BuildExchangeMTUReq
                0x0000000000000000       0x16 d:/BaiduSyncdisk/Edith/墨小孔实习/resband/resistance_band/LIB\libCH57xBLE.a(att_client.o)
 .text.ATT_BuildFindInfoReq
                0x0000000000000000       0x28 d:/BaiduSyncdisk/Edith/墨小孔实习/resband/resistance_band/LIB\libCH57xBLE.a(att_client.o)
 .text.ATT_BuildFindByTypeValueReq
                0x0000000000000000       0x40 d:/BaiduSyncdisk/Edith/墨小孔实习/resband/resistance_band/LIB\libCH57xBLE.a(att_client.o)
 .text.ATT_BuildReadReq
                0x0000000000000000       0x16 d:/BaiduSyncdisk/Edith/墨小孔实习/resband/resistance_band/LIB\libCH57xBLE.a(att_client.o)
 .text.ATT_BuildReadBlobReq
                0x0000000000000000       0x28 d:/BaiduSyncdisk/Edith/墨小孔实习/resband/resistance_band/LIB\libCH57xBLE.a(att_client.o)
 .text.ATT_BuildReadMultiReq
                0x0000000000000000        0xc d:/BaiduSyncdisk/Edith/墨小孔实习/resband/resistance_band/LIB\libCH57xBLE.a(att_client.o)
 .text.ATT_BuildWriteReq
                0x0000000000000000       0x1e d:/BaiduSyncdisk/Edith/墨小孔实习/resband/resistance_band/LIB\libCH57xBLE.a(att_client.o)
 .text.ATT_BuildPrepareWriteReq
                0x0000000000000000       0x30 d:/BaiduSyncdisk/Edith/墨小孔实习/resband/resistance_band/LIB\libCH57xBLE.a(att_client.o)
 .text.ATT_BuildExecuteWriteReq
                0x0000000000000000        0xc d:/BaiduSyncdisk/Edith/墨小孔实习/resband/resistance_band/LIB\libCH57xBLE.a(att_client.o)
 .text.ATT_BuildReadByTypeReq
                0x0000000000000000       0x4a d:/BaiduSyncdisk/Edith/墨小孔实习/resband/resistance_band/LIB\libCH57xBLE.a(att_client.o)
 .text.ATT_ParseExchangeMTURsp
                0x0000000000000000       0x1e d:/BaiduSyncdisk/Edith/墨小孔实习/resband/resistance_band/LIB\libCH57xBLE.a(att_client.o)
 .text.ATT_ExchangeMTUReq
                0x0000000000000000       0x50 d:/BaiduSyncdisk/Edith/墨小孔实习/resband/resistance_band/LIB\libCH57xBLE.a(att_client.o)
 .text.ATT_ParseFindInfoRsp
                0x0000000000000000       0x48 d:/BaiduSyncdisk/Edith/墨小孔实习/resband/resistance_band/LIB\libCH57xBLE.a(att_client.o)
 .text.ATT_FindInfoReq
                0x0000000000000000       0x16 d:/BaiduSyncdisk/Edith/墨小孔实习/resband/resistance_band/LIB\libCH57xBLE.a(att_client.o)
 .text.ATT_ParseFindByTypeValueRsp
                0x0000000000000000       0x1c d:/BaiduSyncdisk/Edith/墨小孔实习/resband/resistance_band/LIB\libCH57xBLE.a(att_client.o)
 .text.ATT_FindByTypeValueReq
                0x0000000000000000       0x48 d:/BaiduSyncdisk/Edith/墨小孔实习/resband/resistance_band/LIB\libCH57xBLE.a(att_client.o)
 .text.ATT_ParseReadByTypeRsp
                0x0000000000000000       0x32 d:/BaiduSyncdisk/Edith/墨小孔实习/resband/resistance_band/LIB\libCH57xBLE.a(att_client.o)
 .text.ATT_ReadByTypeReq
                0x0000000000000000       0x2a d:/BaiduSyncdisk/Edith/墨小孔实习/resband/resistance_band/LIB\libCH57xBLE.a(att_client.o)
 .text.ATT_ParseReadRsp
                0x0000000000000000        0xe d:/BaiduSyncdisk/Edith/墨小孔实习/resband/resistance_band/LIB\libCH57xBLE.a(att_client.o)
 .text.ATT_ReadReq
                0x0000000000000000       0x16 d:/BaiduSyncdisk/Edith/墨小孔实习/resband/resistance_band/LIB\libCH57xBLE.a(att_client.o)
 .text.ATT_ParseReadBlobRsp
                0x0000000000000000        0xe d:/BaiduSyncdisk/Edith/墨小孔实习/resband/resistance_band/LIB\libCH57xBLE.a(att_client.o)
 .text.ATT_ReadBlobReq
                0x0000000000000000       0x16 d:/BaiduSyncdisk/Edith/墨小孔实习/resband/resistance_band/LIB\libCH57xBLE.a(att_client.o)
 .text.ATT_ParseReadMultiRsp
                0x0000000000000000        0xe d:/BaiduSyncdisk/Edith/墨小孔实习/resband/resistance_band/LIB\libCH57xBLE.a(att_client.o)
 .text.ATT_ReadMultiReq
                0x0000000000000000       0x4e d:/BaiduSyncdisk/Edith/墨小孔实习/resband/resistance_band/LIB\libCH57xBLE.a(att_client.o)
 .text.ATT_ParseReadByGrpTypeRsp
                0x0000000000000000       0x34 d:/BaiduSyncdisk/Edith/墨小孔实习/resband/resistance_band/LIB\libCH57xBLE.a(att_client.o)
 .text.ATT_ReadByGrpTypeReq
                0x0000000000000000       0x2a d:/BaiduSyncdisk/Edith/墨小孔实习/resband/resistance_band/LIB\libCH57xBLE.a(att_client.o)
 .text.ATT_ParseWriteRsp
                0x0000000000000000        0xa d:/BaiduSyncdisk/Edith/墨小孔实习/resband/resistance_band/LIB\libCH57xBLE.a(att_client.o)
 .text.ATT_WriteReq
                0x0000000000000000       0x78 d:/BaiduSyncdisk/Edith/墨小孔实习/resband/resistance_band/LIB\libCH57xBLE.a(att_client.o)
 .text.ATT_ParsePrepareWriteRsp
                0x0000000000000000       0x44 d:/BaiduSyncdisk/Edith/墨小孔实习/resband/resistance_band/LIB\libCH57xBLE.a(att_client.o)
 .text.ATT_PrepareWriteReq
                0x0000000000000000       0x38 d:/BaiduSyncdisk/Edith/墨小孔实习/resband/resistance_band/LIB\libCH57xBLE.a(att_client.o)
 .text.ATT_ParseExecuteWriteRsp
                0x0000000000000000        0xa d:/BaiduSyncdisk/Edith/墨小孔实习/resband/resistance_band/LIB\libCH57xBLE.a(att_client.o)
 .text.ATT_ExecuteWriteReq
                0x0000000000000000       0x16 d:/BaiduSyncdisk/Edith/墨小孔实习/resband/resistance_band/LIB\libCH57xBLE.a(att_client.o)
 .text.ATT_ParseHandleValueInd
                0x0000000000000000       0x34 d:/BaiduSyncdisk/Edith/墨小孔实习/resband/resistance_band/LIB\libCH57xBLE.a(att_client.o)
 .text.ATT_HandleValueConfirmation
                0x0000000000000000       0x10 d:/BaiduSyncdisk/Edith/墨小孔实习/resband/resistance_band/LIB\libCH57xBLE.a(att_client.o)
 .comment       0x0000000000000000       0x34 d:/BaiduSyncdisk/Edith/墨小孔实习/resband/resistance_band/LIB\libCH57xBLE.a(att_client.o)
 .text          0x0000000000000000        0x0 d:/BaiduSyncdisk/Edith/墨小孔实习/resband/resistance_band/LIB\libCH57xBLE.a(att_server.o)
 .data          0x0000000000000000        0x0 d:/BaiduSyncdisk/Edith/墨小孔实习/resband/resistance_band/LIB\libCH57xBLE.a(att_server.o)
 .bss           0x0000000000000000        0x0 d:/BaiduSyncdisk/Edith/墨小孔实习/resband/resistance_band/LIB\libCH57xBLE.a(att_server.o)
 .text.ATT_ParseHandleValueCfm
                0x0000000000000000        0xa d:/BaiduSyncdisk/Edith/墨小孔实习/resband/resistance_band/LIB\libCH57xBLE.a(att_server.o)
 .text          0x0000000000000000        0x0 d:/BaiduSyncdisk/Edith/墨小孔实习/resband/resistance_band/LIB\libCH57xBLE.a(ll.o)
 .data          0x0000000000000000        0x0 d:/BaiduSyncdisk/Edith/墨小孔实习/resband/resistance_band/LIB\libCH57xBLE.a(ll.o)
 .bss           0x0000000000000000        0x0 d:/BaiduSyncdisk/Edith/墨小孔实习/resband/resistance_band/LIB\libCH57xBLE.a(ll.o)
 .text          0x0000000000000000        0x0 d:/BaiduSyncdisk/Edith/墨小孔实习/resband/resistance_band/LIB\libCH57xBLE.a(ll_advertise.o)
 .data          0x0000000000000000        0x0 d:/BaiduSyncdisk/Edith/墨小孔实习/resband/resistance_band/LIB\libCH57xBLE.a(ll_advertise.o)
 .bss           0x0000000000000000        0x0 d:/BaiduSyncdisk/Edith/墨小孔实习/resband/resistance_band/LIB\libCH57xBLE.a(ll_advertise.o)
 .text.LL_AdvertiseShut
                0x0000000000000000       0x2c d:/BaiduSyncdisk/Edith/墨小孔实习/resband/resistance_band/LIB\libCH57xBLE.a(ll_advertise.o)
 .text.LL_AdvertiseEventRegister
                0x0000000000000000        0xa d:/BaiduSyncdisk/Edith/墨小孔实习/resband/resistance_band/LIB\libCH57xBLE.a(ll_advertise.o)
 .text          0x0000000000000000        0x0 d:/BaiduSyncdisk/Edith/墨小孔实习/resband/resistance_band/LIB\libCH57xBLE.a(ll_initiate.o)
 .data          0x0000000000000000        0x0 d:/BaiduSyncdisk/Edith/墨小孔实习/resband/resistance_band/LIB\libCH57xBLE.a(ll_initiate.o)
 .bss           0x0000000000000000        0x0 d:/BaiduSyncdisk/Edith/墨小孔实习/resband/resistance_band/LIB\libCH57xBLE.a(ll_initiate.o)
 .text.llInitiateStart
                0x0000000000000000       0x86 d:/BaiduSyncdisk/Edith/墨小孔实习/resband/resistance_band/LIB\libCH57xBLE.a(ll_initiate.o)
 .text.llInitiateTraverseaChannel
                0x0000000000000000       0xea d:/BaiduSyncdisk/Edith/墨小孔实习/resband/resistance_band/LIB\libCH57xBLE.a(ll_initiate.o)
 .text.llInitiateSet
                0x0000000000000000      0x188 d:/BaiduSyncdisk/Edith/墨小孔实习/resband/resistance_band/LIB\libCH57xBLE.a(ll_initiate.o)
 .text.llInitiateCreateCore
                0x0000000000000000       0x72 d:/BaiduSyncdisk/Edith/墨小孔实习/resband/resistance_band/LIB\libCH57xBLE.a(ll_initiate.o)
 .text.ll_initiate_filter
                0x0000000000000000      0x192 d:/BaiduSyncdisk/Edith/墨小孔实习/resband/resistance_band/LIB\libCH57xBLE.a(ll_initiate.o)
 .text.ll_initiate_process
                0x0000000000000000      0x518 d:/BaiduSyncdisk/Edith/墨小孔实习/resband/resistance_band/LIB\libCH57xBLE.a(ll_initiate.o)
 .text.LL_InitiateShut
                0x0000000000000000       0xa6 d:/BaiduSyncdisk/Edith/墨小孔实习/resband/resistance_band/LIB\libCH57xBLE.a(ll_initiate.o)
 .text.LL_InitiateEnable
                0x0000000000000000       0x22 d:/BaiduSyncdisk/Edith/墨小孔实习/resband/resistance_band/LIB\libCH57xBLE.a(ll_initiate.o)
 .text          0x0000000000000000        0x0 d:/BaiduSyncdisk/Edith/墨小孔实习/resband/resistance_band/LIB\libCH57xBLE.a(ll_resolvinglist.o)
 .data          0x0000000000000000        0x0 d:/BaiduSyncdisk/Edith/墨小孔实习/resband/resistance_band/LIB\libCH57xBLE.a(ll_resolvinglist.o)
 .bss           0x0000000000000000        0x0 d:/BaiduSyncdisk/Edith/墨小孔实习/resband/resistance_band/LIB\libCH57xBLE.a(ll_resolvinglist.o)
 .text.LL_ResolvinglistRemove
                0x0000000000000000       0xae d:/BaiduSyncdisk/Edith/墨小孔实习/resband/resistance_band/LIB\libCH57xBLE.a(ll_resolvinglist.o)
 .text.LL_ResolvinglistLocalRpaAddressGetIrk
                0x0000000000000000       0x40 d:/BaiduSyncdisk/Edith/墨小孔实习/resband/resistance_band/LIB\libCH57xBLE.a(ll_resolvinglist.o)
 .text.LL_ResolvinglistCheckPeerResolution
                0x0000000000000000       0x62 d:/BaiduSyncdisk/Edith/墨小孔实习/resband/resistance_band/LIB\libCH57xBLE.a(ll_resolvinglist.o)
 .text.LL_ResolvinglistCheckLocalResolution
                0x0000000000000000       0x62 d:/BaiduSyncdisk/Edith/墨小孔实习/resband/resistance_band/LIB\libCH57xBLE.a(ll_resolvinglist.o)
 .text          0x0000000000000000        0x0 d:/BaiduSyncdisk/Edith/墨小孔实习/resband/resistance_band/LIB\libCH57xBLE.a(broadcaster.o)
 .data          0x0000000000000000        0x0 d:/BaiduSyncdisk/Edith/墨小孔实习/resband/resistance_band/LIB\libCH57xBLE.a(broadcaster.o)
 .bss           0x0000000000000000        0x0 d:/BaiduSyncdisk/Edith/墨小孔实习/resband/resistance_band/LIB\libCH57xBLE.a(broadcaster.o)
 .text.GAPRole_BroadcasterProcessEvent
                0x0000000000000000      0x1e6 d:/BaiduSyncdisk/Edith/墨小孔实习/resband/resistance_band/LIB\libCH57xBLE.a(broadcaster.o)
 .text.GAPRole_BroadcasterStartDevice
                0x0000000000000000       0x46 d:/BaiduSyncdisk/Edith/墨小孔实习/resband/resistance_band/LIB\libCH57xBLE.a(broadcaster.o)
 .text.GAPRole_BroadcasterSetCB
                0x0000000000000000        0xa d:/BaiduSyncdisk/Edith/墨小孔实习/resband/resistance_band/LIB\libCH57xBLE.a(broadcaster.o)
 .text.GAPRole_BroadcasterEnable
                0x0000000000000000       0x86 d:/BaiduSyncdisk/Edith/墨小孔实习/resband/resistance_band/LIB\libCH57xBLE.a(broadcaster.o)
 .text          0x0000000000000000        0x0 d:/BaiduSyncdisk/Edith/墨小孔实习/resband/resistance_band/LIB\libCH57xBLE.a(central.o)
 .data          0x0000000000000000        0x0 d:/BaiduSyncdisk/Edith/墨小孔实习/resband/resistance_band/LIB\libCH57xBLE.a(central.o)
 .bss           0x0000000000000000        0x0 d:/BaiduSyncdisk/Edith/墨小孔实习/resband/resistance_band/LIB\libCH57xBLE.a(central.o)
 .text.GAPRole_CentralProcessEvent
                0x0000000000000000      0x20e d:/BaiduSyncdisk/Edith/墨小孔实习/resband/resistance_band/LIB\libCH57xBLE.a(central.o)
 .text.GAPRole_CentralStartDevice
                0x0000000000000000       0x76 d:/BaiduSyncdisk/Edith/墨小孔实习/resband/resistance_band/LIB\libCH57xBLE.a(central.o)
 .text.GAPRole_CentralEstablishLink
                0x0000000000000000       0x3e d:/BaiduSyncdisk/Edith/墨小孔实习/resband/resistance_band/LIB\libCH57xBLE.a(central.o)
 .text.GAPRole_UpdateLink
                0x0000000000000000        0xc d:/BaiduSyncdisk/Edith/墨小孔实习/resband/resistance_band/LIB\libCH57xBLE.a(central.o)
 .text.GAPRole_CentralStartDiscovery
                0x0000000000000000       0x30 d:/BaiduSyncdisk/Edith/墨小孔实习/resband/resistance_band/LIB\libCH57xBLE.a(central.o)
 .text.GAPRole_CentralCancelDiscovery
                0x0000000000000000       0x10 d:/BaiduSyncdisk/Edith/墨小孔实习/resband/resistance_band/LIB\libCH57xBLE.a(central.o)
 .text.GAPRole_CentralEnable
                0x0000000000000000       0xe0 d:/BaiduSyncdisk/Edith/墨小孔实习/resband/resistance_band/LIB\libCH57xBLE.a(central.o)
 .sbss.gapCentralRoleTaskId
                0x0000000000000000        0x1 d:/BaiduSyncdisk/Edith/墨小孔实习/resband/resistance_band/LIB\libCH57xBLE.a(central.o)
 .sbss.pGapCentralRoleCB
                0x0000000000000000        0x4 d:/BaiduSyncdisk/Edith/墨小孔实习/resband/resistance_band/LIB\libCH57xBLE.a(central.o)
 .comment       0x0000000000000000       0x34 d:/BaiduSyncdisk/Edith/墨小孔实习/resband/resistance_band/LIB\libCH57xBLE.a(central.o)
 .text          0x0000000000000000        0x0 d:/BaiduSyncdisk/Edith/墨小孔实习/resband/resistance_band/LIB\libCH57xBLE.a(observer.o)
 .data          0x0000000000000000        0x0 d:/BaiduSyncdisk/Edith/墨小孔实习/resband/resistance_band/LIB\libCH57xBLE.a(observer.o)
 .bss           0x0000000000000000        0x0 d:/BaiduSyncdisk/Edith/墨小孔实习/resband/resistance_band/LIB\libCH57xBLE.a(observer.o)
 .text.GAPRole_ObserverProcessEvent
                0x0000000000000000       0x86 d:/BaiduSyncdisk/Edith/墨小孔实习/resband/resistance_band/LIB\libCH57xBLE.a(observer.o)
 .text.GAPRole_ObserverStartDevice
                0x0000000000000000       0x2a d:/BaiduSyncdisk/Edith/墨小孔实习/resband/resistance_band/LIB\libCH57xBLE.a(observer.o)
 .text.GAPRole_ObserverStartDiscovery
                0x0000000000000000       0x30 d:/BaiduSyncdisk/Edith/墨小孔实习/resband/resistance_band/LIB\libCH57xBLE.a(observer.o)
 .text.GAPRole_ObserverCancelDiscovery
                0x0000000000000000       0x10 d:/BaiduSyncdisk/Edith/墨小孔实习/resband/resistance_band/LIB\libCH57xBLE.a(observer.o)
 .text.GAPRole_ObserverEnable
                0x0000000000000000       0x5a d:/BaiduSyncdisk/Edith/墨小孔实习/resband/resistance_band/LIB\libCH57xBLE.a(observer.o)
 .sbss.pGapObserverRoleCB
                0x0000000000000000        0x4 d:/BaiduSyncdisk/Edith/墨小孔实习/resband/resistance_band/LIB\libCH57xBLE.a(observer.o)
 .comment       0x0000000000000000       0x34 d:/BaiduSyncdisk/Edith/墨小孔实习/resband/resistance_band/LIB\libCH57xBLE.a(observer.o)
 .text          0x0000000000000000        0x0 d:/BaiduSyncdisk/Edith/墨小孔实习/resband/resistance_band/LIB\libCH57xBLE.a(ll_address.o)
 .data          0x0000000000000000        0x0 d:/BaiduSyncdisk/Edith/墨小孔实习/resband/resistance_band/LIB\libCH57xBLE.a(ll_address.o)
 .bss           0x0000000000000000        0x0 d:/BaiduSyncdisk/Edith/墨小孔实习/resband/resistance_band/LIB\libCH57xBLE.a(ll_address.o)
 .text.LL_AddrCreateOwnAddress
                0x0000000000000000        0x2 d:/BaiduSyncdisk/Edith/墨小孔实习/resband/resistance_band/LIB\libCH57xBLE.a(ll_address.o)
 .text          0x0000000000000000        0x0 d:/lenovosoftstore/install/mounriver_studio2/resources/app/resources/win32/components/wch/toolchain/risc-v embedded gcc/bin/../lib/gcc/riscv-none-embed/8.2.0/rv32imac/ilp32\libgcc.a(_lshrdi3.o)
 .data          0x0000000000000000        0x0 d:/lenovosoftstore/install/mounriver_studio2/resources/app/resources/win32/components/wch/toolchain/risc-v embedded gcc/bin/../lib/gcc/riscv-none-embed/8.2.0/rv32imac/ilp32\libgcc.a(_lshrdi3.o)
 .bss           0x0000000000000000        0x0 d:/lenovosoftstore/install/mounriver_studio2/resources/app/resources/win32/components/wch/toolchain/risc-v embedded gcc/bin/../lib/gcc/riscv-none-embed/8.2.0/rv32imac/ilp32\libgcc.a(_lshrdi3.o)
 .text          0x0000000000000000        0x0 d:/lenovosoftstore/install/mounriver_studio2/resources/app/resources/win32/components/wch/toolchain/risc-v embedded gcc/bin/../lib/gcc/riscv-none-embed/8.2.0/rv32imac/ilp32\libgcc.a(_ashrdi3.o)
 .data          0x0000000000000000        0x0 d:/lenovosoftstore/install/mounriver_studio2/resources/app/resources/win32/components/wch/toolchain/risc-v embedded gcc/bin/../lib/gcc/riscv-none-embed/8.2.0/rv32imac/ilp32\libgcc.a(_ashrdi3.o)
 .bss           0x0000000000000000        0x0 d:/lenovosoftstore/install/mounriver_studio2/resources/app/resources/win32/components/wch/toolchain/risc-v embedded gcc/bin/../lib/gcc/riscv-none-embed/8.2.0/rv32imac/ilp32\libgcc.a(_ashrdi3.o)
 .text.__ashrdi3
                0x0000000000000000       0x2e d:/lenovosoftstore/install/mounriver_studio2/resources/app/resources/win32/components/wch/toolchain/risc-v embedded gcc/bin/../lib/gcc/riscv-none-embed/8.2.0/rv32imac/ilp32\libgcc.a(_ashrdi3.o)
 .debug_frame   0x0000000000000000       0x20 d:/lenovosoftstore/install/mounriver_studio2/resources/app/resources/win32/components/wch/toolchain/risc-v embedded gcc/bin/../lib/gcc/riscv-none-embed/8.2.0/rv32imac/ilp32\libgcc.a(_ashrdi3.o)
 .text          0x0000000000000000        0x0 d:/lenovosoftstore/install/mounriver_studio2/resources/app/resources/win32/components/wch/toolchain/risc-v embedded gcc/bin/../lib/gcc/riscv-none-embed/8.2.0/rv32imac/ilp32\libgcc.a(_divdi3.o)
 .data          0x0000000000000000        0x0 d:/lenovosoftstore/install/mounriver_studio2/resources/app/resources/win32/components/wch/toolchain/risc-v embedded gcc/bin/../lib/gcc/riscv-none-embed/8.2.0/rv32imac/ilp32\libgcc.a(_divdi3.o)
 .bss           0x0000000000000000        0x0 d:/lenovosoftstore/install/mounriver_studio2/resources/app/resources/win32/components/wch/toolchain/risc-v embedded gcc/bin/../lib/gcc/riscv-none-embed/8.2.0/rv32imac/ilp32\libgcc.a(_divdi3.o)
 .text.__divdi3
                0x0000000000000000      0x3d8 d:/lenovosoftstore/install/mounriver_studio2/resources/app/resources/win32/components/wch/toolchain/risc-v embedded gcc/bin/../lib/gcc/riscv-none-embed/8.2.0/rv32imac/ilp32\libgcc.a(_divdi3.o)
 .eh_frame      0x0000000000000000       0x28 d:/lenovosoftstore/install/mounriver_studio2/resources/app/resources/win32/components/wch/toolchain/risc-v embedded gcc/bin/../lib/gcc/riscv-none-embed/8.2.0/rv32imac/ilp32\libgcc.a(_divdi3.o)
 .text          0x0000000000000000        0x0 d:/lenovosoftstore/install/mounriver_studio2/resources/app/resources/win32/components/wch/toolchain/risc-v embedded gcc/bin/../lib/gcc/riscv-none-embed/8.2.0/rv32imac/ilp32\libgcc.a(_udivdi3.o)
 .data          0x0000000000000000        0x0 d:/lenovosoftstore/install/mounriver_studio2/resources/app/resources/win32/components/wch/toolchain/risc-v embedded gcc/bin/../lib/gcc/riscv-none-embed/8.2.0/rv32imac/ilp32\libgcc.a(_udivdi3.o)
 .bss           0x0000000000000000        0x0 d:/lenovosoftstore/install/mounriver_studio2/resources/app/resources/win32/components/wch/toolchain/risc-v embedded gcc/bin/../lib/gcc/riscv-none-embed/8.2.0/rv32imac/ilp32\libgcc.a(_udivdi3.o)
 .eh_frame      0x0000000000000000       0x28 d:/lenovosoftstore/install/mounriver_studio2/resources/app/resources/win32/components/wch/toolchain/risc-v embedded gcc/bin/../lib/gcc/riscv-none-embed/8.2.0/rv32imac/ilp32\libgcc.a(_udivdi3.o)
 .text          0x0000000000000000        0x0 d:/lenovosoftstore/install/mounriver_studio2/resources/app/resources/win32/components/wch/toolchain/risc-v embedded gcc/bin/../lib/gcc/riscv-none-embed/8.2.0/rv32imac/ilp32\libgcc.a(muldf3.o)
 .data          0x0000000000000000        0x0 d:/lenovosoftstore/install/mounriver_studio2/resources/app/resources/win32/components/wch/toolchain/risc-v embedded gcc/bin/../lib/gcc/riscv-none-embed/8.2.0/rv32imac/ilp32\libgcc.a(muldf3.o)
 .bss           0x0000000000000000        0x0 d:/lenovosoftstore/install/mounriver_studio2/resources/app/resources/win32/components/wch/toolchain/risc-v embedded gcc/bin/../lib/gcc/riscv-none-embed/8.2.0/rv32imac/ilp32\libgcc.a(muldf3.o)
 .text          0x0000000000000000        0x0 d:/lenovosoftstore/install/mounriver_studio2/resources/app/resources/win32/components/wch/toolchain/risc-v embedded gcc/bin/../lib/gcc/riscv-none-embed/8.2.0/rv32imac/ilp32\libgcc.a(floatsidf.o)
 .data          0x0000000000000000        0x0 d:/lenovosoftstore/install/mounriver_studio2/resources/app/resources/win32/components/wch/toolchain/risc-v embedded gcc/bin/../lib/gcc/riscv-none-embed/8.2.0/rv32imac/ilp32\libgcc.a(floatsidf.o)
 .bss           0x0000000000000000        0x0 d:/lenovosoftstore/install/mounriver_studio2/resources/app/resources/win32/components/wch/toolchain/risc-v embedded gcc/bin/../lib/gcc/riscv-none-embed/8.2.0/rv32imac/ilp32\libgcc.a(floatsidf.o)
 .text          0x0000000000000000        0x0 d:/lenovosoftstore/install/mounriver_studio2/resources/app/resources/win32/components/wch/toolchain/risc-v embedded gcc/bin/../lib/gcc/riscv-none-embed/8.2.0/rv32imac/ilp32\libgcc.a(addsf3.o)
 .data          0x0000000000000000        0x0 d:/lenovosoftstore/install/mounriver_studio2/resources/app/resources/win32/components/wch/toolchain/risc-v embedded gcc/bin/../lib/gcc/riscv-none-embed/8.2.0/rv32imac/ilp32\libgcc.a(addsf3.o)
 .bss           0x0000000000000000        0x0 d:/lenovosoftstore/install/mounriver_studio2/resources/app/resources/win32/components/wch/toolchain/risc-v embedded gcc/bin/../lib/gcc/riscv-none-embed/8.2.0/rv32imac/ilp32\libgcc.a(addsf3.o)
 .text.__addsf3
                0x0000000000000000      0x36e d:/lenovosoftstore/install/mounriver_studio2/resources/app/resources/win32/components/wch/toolchain/risc-v embedded gcc/bin/../lib/gcc/riscv-none-embed/8.2.0/rv32imac/ilp32\libgcc.a(addsf3.o)
 .debug_frame   0x0000000000000000       0x40 d:/lenovosoftstore/install/mounriver_studio2/resources/app/resources/win32/components/wch/toolchain/risc-v embedded gcc/bin/../lib/gcc/riscv-none-embed/8.2.0/rv32imac/ilp32\libgcc.a(addsf3.o)
 .text          0x0000000000000000        0x0 d:/lenovosoftstore/install/mounriver_studio2/resources/app/resources/win32/components/wch/toolchain/risc-v embedded gcc/bin/../lib/gcc/riscv-none-embed/8.2.0/rv32imac/ilp32\libgcc.a(divsf3.o)
 .data          0x0000000000000000        0x0 d:/lenovosoftstore/install/mounriver_studio2/resources/app/resources/win32/components/wch/toolchain/risc-v embedded gcc/bin/../lib/gcc/riscv-none-embed/8.2.0/rv32imac/ilp32\libgcc.a(divsf3.o)
 .bss           0x0000000000000000        0x0 d:/lenovosoftstore/install/mounriver_studio2/resources/app/resources/win32/components/wch/toolchain/risc-v embedded gcc/bin/../lib/gcc/riscv-none-embed/8.2.0/rv32imac/ilp32\libgcc.a(divsf3.o)
 .text.__divsf3
                0x0000000000000000      0x2ba d:/lenovosoftstore/install/mounriver_studio2/resources/app/resources/win32/components/wch/toolchain/risc-v embedded gcc/bin/../lib/gcc/riscv-none-embed/8.2.0/rv32imac/ilp32\libgcc.a(divsf3.o)
 .rodata.__divsf3
                0x0000000000000000       0x80 d:/lenovosoftstore/install/mounriver_studio2/resources/app/resources/win32/components/wch/toolchain/risc-v embedded gcc/bin/../lib/gcc/riscv-none-embed/8.2.0/rv32imac/ilp32\libgcc.a(divsf3.o)
 .debug_frame   0x0000000000000000       0x50 d:/lenovosoftstore/install/mounriver_studio2/resources/app/resources/win32/components/wch/toolchain/risc-v embedded gcc/bin/../lib/gcc/riscv-none-embed/8.2.0/rv32imac/ilp32\libgcc.a(divsf3.o)
 .text          0x0000000000000000        0x0 d:/lenovosoftstore/install/mounriver_studio2/resources/app/resources/win32/components/wch/toolchain/risc-v embedded gcc/bin/../lib/gcc/riscv-none-embed/8.2.0/rv32imac/ilp32\libgcc.a(gesf2.o)
 .data          0x0000000000000000        0x0 d:/lenovosoftstore/install/mounriver_studio2/resources/app/resources/win32/components/wch/toolchain/risc-v embedded gcc/bin/../lib/gcc/riscv-none-embed/8.2.0/rv32imac/ilp32\libgcc.a(gesf2.o)
 .bss           0x0000000000000000        0x0 d:/lenovosoftstore/install/mounriver_studio2/resources/app/resources/win32/components/wch/toolchain/risc-v embedded gcc/bin/../lib/gcc/riscv-none-embed/8.2.0/rv32imac/ilp32\libgcc.a(gesf2.o)
 .text.__gesf2  0x0000000000000000       0x86 d:/lenovosoftstore/install/mounriver_studio2/resources/app/resources/win32/components/wch/toolchain/risc-v embedded gcc/bin/../lib/gcc/riscv-none-embed/8.2.0/rv32imac/ilp32\libgcc.a(gesf2.o)
 .debug_frame   0x0000000000000000       0x20 d:/lenovosoftstore/install/mounriver_studio2/resources/app/resources/win32/components/wch/toolchain/risc-v embedded gcc/bin/../lib/gcc/riscv-none-embed/8.2.0/rv32imac/ilp32\libgcc.a(gesf2.o)
 .text          0x0000000000000000        0x0 d:/lenovosoftstore/install/mounriver_studio2/resources/app/resources/win32/components/wch/toolchain/risc-v embedded gcc/bin/../lib/gcc/riscv-none-embed/8.2.0/rv32imac/ilp32\libgcc.a(lesf2.o)
 .data          0x0000000000000000        0x0 d:/lenovosoftstore/install/mounriver_studio2/resources/app/resources/win32/components/wch/toolchain/risc-v embedded gcc/bin/../lib/gcc/riscv-none-embed/8.2.0/rv32imac/ilp32\libgcc.a(lesf2.o)
 .bss           0x0000000000000000        0x0 d:/lenovosoftstore/install/mounriver_studio2/resources/app/resources/win32/components/wch/toolchain/risc-v embedded gcc/bin/../lib/gcc/riscv-none-embed/8.2.0/rv32imac/ilp32\libgcc.a(lesf2.o)
 .text.__lesf2  0x0000000000000000       0x8c d:/lenovosoftstore/install/mounriver_studio2/resources/app/resources/win32/components/wch/toolchain/risc-v embedded gcc/bin/../lib/gcc/riscv-none-embed/8.2.0/rv32imac/ilp32\libgcc.a(lesf2.o)
 .debug_frame   0x0000000000000000       0x20 d:/lenovosoftstore/install/mounriver_studio2/resources/app/resources/win32/components/wch/toolchain/risc-v embedded gcc/bin/../lib/gcc/riscv-none-embed/8.2.0/rv32imac/ilp32\libgcc.a(lesf2.o)
 .text          0x0000000000000000        0x0 d:/lenovosoftstore/install/mounriver_studio2/resources/app/resources/win32/components/wch/toolchain/risc-v embedded gcc/bin/../lib/gcc/riscv-none-embed/8.2.0/rv32imac/ilp32\libgcc.a(mulsf3.o)
 .data          0x0000000000000000        0x0 d:/lenovosoftstore/install/mounriver_studio2/resources/app/resources/win32/components/wch/toolchain/risc-v embedded gcc/bin/../lib/gcc/riscv-none-embed/8.2.0/rv32imac/ilp32\libgcc.a(mulsf3.o)
 .bss           0x0000000000000000        0x0 d:/lenovosoftstore/install/mounriver_studio2/resources/app/resources/win32/components/wch/toolchain/risc-v embedded gcc/bin/../lib/gcc/riscv-none-embed/8.2.0/rv32imac/ilp32\libgcc.a(mulsf3.o)
 .text          0x0000000000000000        0x0 d:/lenovosoftstore/install/mounriver_studio2/resources/app/resources/win32/components/wch/toolchain/risc-v embedded gcc/bin/../lib/gcc/riscv-none-embed/8.2.0/rv32imac/ilp32\libgcc.a(fixsfsi.o)
 .data          0x0000000000000000        0x0 d:/lenovosoftstore/install/mounriver_studio2/resources/app/resources/win32/components/wch/toolchain/risc-v embedded gcc/bin/../lib/gcc/riscv-none-embed/8.2.0/rv32imac/ilp32\libgcc.a(fixsfsi.o)
 .bss           0x0000000000000000        0x0 d:/lenovosoftstore/install/mounriver_studio2/resources/app/resources/win32/components/wch/toolchain/risc-v embedded gcc/bin/../lib/gcc/riscv-none-embed/8.2.0/rv32imac/ilp32\libgcc.a(fixsfsi.o)
 .text          0x0000000000000000        0x0 d:/lenovosoftstore/install/mounriver_studio2/resources/app/resources/win32/components/wch/toolchain/risc-v embedded gcc/bin/../lib/gcc/riscv-none-embed/8.2.0/rv32imac/ilp32\libgcc.a(fixunssfsi.o)
 .data          0x0000000000000000        0x0 d:/lenovosoftstore/install/mounriver_studio2/resources/app/resources/win32/components/wch/toolchain/risc-v embedded gcc/bin/../lib/gcc/riscv-none-embed/8.2.0/rv32imac/ilp32\libgcc.a(fixunssfsi.o)
 .bss           0x0000000000000000        0x0 d:/lenovosoftstore/install/mounriver_studio2/resources/app/resources/win32/components/wch/toolchain/risc-v embedded gcc/bin/../lib/gcc/riscv-none-embed/8.2.0/rv32imac/ilp32\libgcc.a(fixunssfsi.o)
 .text.__fixunssfsi
                0x0000000000000000       0x56 d:/lenovosoftstore/install/mounriver_studio2/resources/app/resources/win32/components/wch/toolchain/risc-v embedded gcc/bin/../lib/gcc/riscv-none-embed/8.2.0/rv32imac/ilp32\libgcc.a(fixunssfsi.o)
 .debug_frame   0x0000000000000000       0x20 d:/lenovosoftstore/install/mounriver_studio2/resources/app/resources/win32/components/wch/toolchain/risc-v embedded gcc/bin/../lib/gcc/riscv-none-embed/8.2.0/rv32imac/ilp32\libgcc.a(fixunssfsi.o)
 .text          0x0000000000000000        0x0 d:/lenovosoftstore/install/mounriver_studio2/resources/app/resources/win32/components/wch/toolchain/risc-v embedded gcc/bin/../lib/gcc/riscv-none-embed/8.2.0/rv32imac/ilp32\libgcc.a(floatsisf.o)
 .data          0x0000000000000000        0x0 d:/lenovosoftstore/install/mounriver_studio2/resources/app/resources/win32/components/wch/toolchain/risc-v embedded gcc/bin/../lib/gcc/riscv-none-embed/8.2.0/rv32imac/ilp32\libgcc.a(floatsisf.o)
 .bss           0x0000000000000000        0x0 d:/lenovosoftstore/install/mounriver_studio2/resources/app/resources/win32/components/wch/toolchain/risc-v embedded gcc/bin/../lib/gcc/riscv-none-embed/8.2.0/rv32imac/ilp32\libgcc.a(floatsisf.o)
 .text          0x0000000000000000        0x0 d:/lenovosoftstore/install/mounriver_studio2/resources/app/resources/win32/components/wch/toolchain/risc-v embedded gcc/bin/../lib/gcc/riscv-none-embed/8.2.0/rv32imac/ilp32\libgcc.a(floatunsisf.o)
 .data          0x0000000000000000        0x0 d:/lenovosoftstore/install/mounriver_studio2/resources/app/resources/win32/components/wch/toolchain/risc-v embedded gcc/bin/../lib/gcc/riscv-none-embed/8.2.0/rv32imac/ilp32\libgcc.a(floatunsisf.o)
 .bss           0x0000000000000000        0x0 d:/lenovosoftstore/install/mounriver_studio2/resources/app/resources/win32/components/wch/toolchain/risc-v embedded gcc/bin/../lib/gcc/riscv-none-embed/8.2.0/rv32imac/ilp32\libgcc.a(floatunsisf.o)
 .text.__floatunsisf
                0x0000000000000000       0xd4 d:/lenovosoftstore/install/mounriver_studio2/resources/app/resources/win32/components/wch/toolchain/risc-v embedded gcc/bin/../lib/gcc/riscv-none-embed/8.2.0/rv32imac/ilp32\libgcc.a(floatunsisf.o)
 .debug_frame   0x0000000000000000       0x44 d:/lenovosoftstore/install/mounriver_studio2/resources/app/resources/win32/components/wch/toolchain/risc-v embedded gcc/bin/../lib/gcc/riscv-none-embed/8.2.0/rv32imac/ilp32\libgcc.a(floatunsisf.o)
 .text          0x0000000000000000        0x0 d:/lenovosoftstore/install/mounriver_studio2/resources/app/resources/win32/components/wch/toolchain/risc-v embedded gcc/bin/../lib/gcc/riscv-none-embed/8.2.0/rv32imac/ilp32\libgcc.a(truncdfsf2.o)
 .data          0x0000000000000000        0x0 d:/lenovosoftstore/install/mounriver_studio2/resources/app/resources/win32/components/wch/toolchain/risc-v embedded gcc/bin/../lib/gcc/riscv-none-embed/8.2.0/rv32imac/ilp32\libgcc.a(truncdfsf2.o)
 .bss           0x0000000000000000        0x0 d:/lenovosoftstore/install/mounriver_studio2/resources/app/resources/win32/components/wch/toolchain/risc-v embedded gcc/bin/../lib/gcc/riscv-none-embed/8.2.0/rv32imac/ilp32\libgcc.a(truncdfsf2.o)
 .text          0x0000000000000000        0x0 d:/lenovosoftstore/install/mounriver_studio2/resources/app/resources/win32/components/wch/toolchain/risc-v embedded gcc/bin/../lib/gcc/riscv-none-embed/8.2.0/rv32imac/ilp32\libgcc.a(_clz.o)
 .data          0x0000000000000000        0x0 d:/lenovosoftstore/install/mounriver_studio2/resources/app/resources/win32/components/wch/toolchain/risc-v embedded gcc/bin/../lib/gcc/riscv-none-embed/8.2.0/rv32imac/ilp32\libgcc.a(_clz.o)
 .bss           0x0000000000000000        0x0 d:/lenovosoftstore/install/mounriver_studio2/resources/app/resources/win32/components/wch/toolchain/risc-v embedded gcc/bin/../lib/gcc/riscv-none-embed/8.2.0/rv32imac/ilp32\libgcc.a(_clz.o)
 .text          0x0000000000000000        0x0 d:/lenovosoftstore/install/mounriver_studio2/resources/app/resources/win32/components/wch/toolchain/risc-v embedded gcc/bin/../lib/gcc/riscv-none-embed/8.2.0/rv32imac/ilp32\libgcc.a(_clzsi2.o)
 .data          0x0000000000000000        0x0 d:/lenovosoftstore/install/mounriver_studio2/resources/app/resources/win32/components/wch/toolchain/risc-v embedded gcc/bin/../lib/gcc/riscv-none-embed/8.2.0/rv32imac/ilp32\libgcc.a(_clzsi2.o)
 .bss           0x0000000000000000        0x0 d:/lenovosoftstore/install/mounriver_studio2/resources/app/resources/win32/components/wch/toolchain/risc-v embedded gcc/bin/../lib/gcc/riscv-none-embed/8.2.0/rv32imac/ilp32\libgcc.a(_clzsi2.o)
 .text          0x0000000000000000        0x0 d:/lenovosoftstore/install/mounriver_studio2/resources/app/resources/win32/components/wch/toolchain/risc-v embedded gcc/bin/../lib/gcc/riscv-none-embed/8.2.0/../../../../riscv-none-embed/lib/rv32imac/ilp32\libg_nano.a(lib_a-memcpy.o)
 .data          0x0000000000000000        0x0 d:/lenovosoftstore/install/mounriver_studio2/resources/app/resources/win32/components/wch/toolchain/risc-v embedded gcc/bin/../lib/gcc/riscv-none-embed/8.2.0/../../../../riscv-none-embed/lib/rv32imac/ilp32\libg_nano.a(lib_a-memcpy.o)
 .bss           0x0000000000000000        0x0 d:/lenovosoftstore/install/mounriver_studio2/resources/app/resources/win32/components/wch/toolchain/risc-v embedded gcc/bin/../lib/gcc/riscv-none-embed/8.2.0/../../../../riscv-none-embed/lib/rv32imac/ilp32\libg_nano.a(lib_a-memcpy.o)
 .text          0x0000000000000000       0xa8 d:/lenovosoftstore/install/mounriver_studio2/resources/app/resources/win32/components/wch/toolchain/risc-v embedded gcc/bin/../lib/gcc/riscv-none-embed/8.2.0/../../../../riscv-none-embed/lib/rv32imac/ilp32\libg_nano.a(lib_a-memset.o)
 .data          0x0000000000000000        0x0 d:/lenovosoftstore/install/mounriver_studio2/resources/app/resources/win32/components/wch/toolchain/risc-v embedded gcc/bin/../lib/gcc/riscv-none-embed/8.2.0/../../../../riscv-none-embed/lib/rv32imac/ilp32\libg_nano.a(lib_a-memset.o)
 .bss           0x0000000000000000        0x0 d:/lenovosoftstore/install/mounriver_studio2/resources/app/resources/win32/components/wch/toolchain/risc-v embedded gcc/bin/../lib/gcc/riscv-none-embed/8.2.0/../../../../riscv-none-embed/lib/rv32imac/ilp32\libg_nano.a(lib_a-memset.o)

Memory Configuration

Name             Origin             Length             Attributes
FLASH            0x0000000000000000 0x0000000000070000 xr
RAM              0x0000000020003800 0x0000000000004800 xrw
*default*        0x0000000000000000 0xffffffffffffffff

Linker script and memory map

LOAD ./StdPeriphDriver/CH57x_adc.o
LOAD ./StdPeriphDriver/CH57x_clk.o
LOAD ./StdPeriphDriver/CH57x_flash.o
LOAD ./StdPeriphDriver/CH57x_gpio.o
LOAD ./StdPeriphDriver/CH57x_pwr.o
LOAD ./StdPeriphDriver/CH57x_spi0.o
LOAD ./StdPeriphDriver/CH57x_sys.o
LOAD ./StdPeriphDriver/CH57x_uart1.o
LOAD ./Startup/startup_CH573.o
LOAD ./RVMSIS/core_riscv.o
LOAD ./Profile/battservice.o
LOAD ./Profile/devinfoservice.o
LOAD ./Profile/resbandservice.o
LOAD ./HAL/AS5600.o
LOAD ./HAL/LED.o
LOAD ./HAL/MCU.o
LOAD ./HAL/RTC.o
LOAD ./HAL/SLEEP.o
LOAD ./APP/OY8699.o
LOAD ./APP/resband.o
LOAD ./APP/resband_main.o
LOAD ./APP/tension.o
LOAD d:/BaiduSyncdisk/Edith/墨小孔实习/resband/SRC/StdPeriphDriver\libISP573.a
LOAD d:/BaiduSyncdisk/Edith/墨小孔实习/resband/resistance_band/LIB\libCH57xBLE.a
LOAD d:/lenovosoftstore/install/mounriver_studio2/resources/app/resources/win32/components/wch/toolchain/risc-v embedded gcc/bin/../lib/gcc/riscv-none-embed/8.2.0/../../../../riscv-none-embed/lib/rv32imac/ilp32\libm.a
LOAD d:/lenovosoftstore/install/mounriver_studio2/resources/app/resources/win32/components/wch/toolchain/risc-v embedded gcc/bin/../lib/gcc/riscv-none-embed/8.2.0/rv32imac/ilp32\libgcc.a
LOAD d:/lenovosoftstore/install/mounriver_studio2/resources/app/resources/win32/components/wch/toolchain/risc-v embedded gcc/bin/../lib/gcc/riscv-none-embed/8.2.0/../../../../riscv-none-embed/lib/rv32imac/ilp32\libg_nano.a
LOAD d:/lenovosoftstore/install/mounriver_studio2/resources/app/resources/win32/components/wch/toolchain/risc-v embedded gcc/bin/../lib/gcc/riscv-none-embed/8.2.0/../../../../riscv-none-embed/lib/rv32imac/ilp32\libc_nano.a
LOAD d:/lenovosoftstore/install/mounriver_studio2/resources/app/resources/win32/components/wch/toolchain/risc-v embedded gcc/bin/../lib/gcc/riscv-none-embed/8.2.0/rv32imac/ilp32\libgcc.a
START GROUP
LOAD d:/lenovosoftstore/install/mounriver_studio2/resources/app/resources/win32/components/wch/toolchain/risc-v embedded gcc/bin/../lib/gcc/riscv-none-embed/8.2.0/rv32imac/ilp32\libgcc.a
LOAD d:/lenovosoftstore/install/mounriver_studio2/resources/app/resources/win32/components/wch/toolchain/risc-v embedded gcc/bin/../lib/gcc/riscv-none-embed/8.2.0/../../../../riscv-none-embed/lib/rv32imac/ilp32\libc_nano.a
LOAD d:/lenovosoftstore/install/mounriver_studio2/resources/app/resources/win32/components/wch/toolchain/risc-v embedded gcc/bin/../lib/gcc/riscv-none-embed/8.2.0/../../../../riscv-none-embed/lib/rv32imac/ilp32\libnosys.a
END GROUP
START GROUP
LOAD d:/lenovosoftstore/install/mounriver_studio2/resources/app/resources/win32/components/wch/toolchain/risc-v embedded gcc/bin/../lib/gcc/riscv-none-embed/8.2.0/rv32imac/ilp32\libgcc.a
LOAD d:/lenovosoftstore/install/mounriver_studio2/resources/app/resources/win32/components/wch/toolchain/risc-v embedded gcc/bin/../lib/gcc/riscv-none-embed/8.2.0/../../../../riscv-none-embed/lib/rv32imac/ilp32\libc_nano.a
LOAD d:/lenovosoftstore/install/mounriver_studio2/resources/app/resources/win32/components/wch/toolchain/risc-v embedded gcc/bin/../lib/gcc/riscv-none-embed/8.2.0/../../../../riscv-none-embed/lib/rv32imac/ilp32\libnosys.a
END GROUP
                0x0000000000000200                __stack_size = 0x200
                [!provide]                        PROVIDE (_stack_size = __stack_size)

.init           0x0000000000000000        0x4
                0x0000000000000000                _sinit = .
                0x0000000000000000                . = ALIGN (0x4)
 *(SORT_NONE(.init))
 .init          0x0000000000000000        0x4 ./Startup/startup_CH573.o
                0x0000000000000000                _start
                0x0000000000000004                . = ALIGN (0x4)
                0x0000000000000004                _einit = .

.highcodelalign
                0x0000000000000004        0x0
                0x0000000000000004                . = ALIGN (0x4)
                0x0000000000000004                PROVIDE (_highcode_lma = .)

.highcode       0x0000000020003800     0x11c4 load address 0x0000000000000004
                0x0000000020003800                . = ALIGN (0x4)
                0x0000000020003800                PROVIDE (_highcode_vma_start = .)
 *(.vector)
 .vector        0x0000000020003800       0x90 ./Startup/startup_CH573.o
 *(SORT_NONE(.vector_handler))
 .vector_handler
                0x0000000020003890       0x2c ./Startup/startup_CH573.o
                0x0000000020003890                NMI_Handler
                0x0000000020003894                SysTick_Handler
                0x0000000020003896                SW_Handler
                0x0000000020003898                TMR0_IRQHandler
                0x000000002000389a                GPIOA_IRQHandler
                0x000000002000389c                GPIOB_IRQHandler
                0x000000002000389e                SPI0_IRQHandler
                0x00000000200038a0                BB_IRQHandler
                0x00000000200038a2                LLE_IRQHandler
                0x00000000200038a4                USB_IRQHandler
                0x00000000200038a6                TMR1_IRQHandler
                0x00000000200038a8                TMR2_IRQHandler
                0x00000000200038aa                UART0_IRQHandler
                0x00000000200038ac                UART1_IRQHandler
                0x00000000200038b0                ADC_IRQHandler
                0x00000000200038b2                PWMX_IRQHandler
                0x00000000200038b4                TMR3_IRQHandler
                0x00000000200038b6                UART2_IRQHandler
                0x00000000200038b8                UART3_IRQHandler
                0x00000000200038ba                WDOG_BAT_IRQHandler
 *(.highcode)
 .highcode      0x00000000200038bc       0x4e ./StdPeriphDriver/CH57x_clk.o
                0x00000000200038bc                Get_Calibration_Cnt_RAM
 .highcode      0x000000002000390a      0x1d0 ./StdPeriphDriver/CH57x_sys.o
                0x000000002000390a                SetSysClock
                0x0000000020003a22                SYS_ResetExecute
                0x0000000020003a5e                HardFault_Handler
                0x0000000020003aa4                mDelayuS
                0x0000000020003ab2                mDelaymS
 .highcode      0x0000000020003ada       0x16 ./HAL/RTC.o
                0x0000000020003ada                RTC_IRQHandler
 .highcode      0x0000000020003af0        0x8 ./APP/resband_main.o
                0x0000000020003af0                Main_Circulation
 .highcode      0x0000000020003af8      0x3fa d:/BaiduSyncdisk/Edith/墨小孔实习/resband/SRC/StdPeriphDriver\libISP573.a(ISP573.o)
                0x0000000020003af8                FLASH_ROM_BEG
                0x0000000020003b08                FLASH_ROM_END
                0x0000000020003b16                FLASH_ROM_IN
                0x0000000020003b24                FLASH_ROM_OUT
                0x0000000020003b32                FLASH_ROM_ADDR
                0x0000000020003b7a                FLASH_ROM_WAIT
                0x0000000020003bb2                FLASH_EEPROM_CMD
 .highcode      0x0000000020003ef2      0x230 d:/BaiduSyncdisk/Edith/墨小孔实习/resband/resistance_band/LIB\libCH57xBLE.a(tmos.o)
                0x0000000020003f0e                tmos_memcpy
                0x0000000020003f2e                tmos_memcpy_word
                0x0000000020003f4a                TMOS_SystemProcess
 .highcode      0x0000000020004122       0xc2 d:/BaiduSyncdisk/Edith/墨小孔实习/resband/resistance_band/LIB\libCH57xBLE.a(tmos_hw.o)
                0x0000000020004122                BLE_GetHSEClock
                0x0000000020004160                RTC_Get32KClock
                0x0000000020004178                SYS_GetTickCount
 .highcode      0x00000000200041e4      0x138 d:/BaiduSyncdisk/Edith/墨小孔实习/resband/resistance_band/LIB\libCH57xBLE.a(ll_connect.o)
                0x00000000200041e4                ll_connect_process_data
                0x0000000020004232                ll_connect_event_continue
 .highcode      0x000000002000431c      0x1c4 d:/BaiduSyncdisk/Edith/墨小孔实习/resband/resistance_band/LIB\libCH57xBLE.a(bb.o)
                0x000000002000431c                BB_IRQLibHandler
                0x0000000020004496                BB_IRQLibFunction
 .highcode      0x00000000200044e0      0x156 d:/BaiduSyncdisk/Edith/墨小孔实习/resband/resistance_band/LIB\libCH57xBLE.a(ip.o)
                0x00000000200044e0                ll_tx_wait_finish
                0x000000002000450c                ll_tx_wait_tx_dma_finish
                0x0000000020004546                ll_rx_wait_finish
                0x000000002000457c                ll_rx_wait_tx_dma_finish
                0x00000000200045ac                ble_ll_chkcrc
 .highcode      0x0000000020004636      0x1a4 d:/BaiduSyncdisk/Edith/墨小孔实习/resband/resistance_band/LIB\libCH57xBLE.a(lle.o)
                0x0000000020004636                LLE_IRQLibHandler
                0x0000000020004790                LLE_IRQLibFunction
 .highcode      0x00000000200047da       0x82 d:/BaiduSyncdisk/Edith/墨小孔实习/resband/resistance_band/LIB\libCH57xBLE.a(rf_fh.o)
                0x00000000200047da                RF_HopGetChannel
 .highcode      0x000000002000485c       0x2c d:/BaiduSyncdisk/Edith/墨小孔实习/resband/resistance_band/LIB\libCH57xBLE.a(rfend.o)
                0x000000002000485c                RFEND_WaitTune
 .highcode      0x0000000020004888      0x13a d:/BaiduSyncdisk/Edith/墨小孔实习/resband/resistance_band/LIB\libCH57xBLE.a(memory.o)
                0x0000000020004888                tmos_memory_allocate
                0x0000000020004922                tmos_memory_free
 *(.highcode.*)
                0x00000000200049c4                . = ALIGN (0x4)
 *fill*         0x00000000200049c2        0x2 
                0x00000000200049c4                PROVIDE (_highcode_vma_end = .)

.text           0x00000000000011c8    0x1b368
                0x00000000000011c8                . = ALIGN (0x4)
 *(SORT_NONE(.handle_reset))
 .handle_reset  0x00000000000011c8       0xce ./Startup/startup_CH573.o
                0x00000000000011c8                handle_reset
 *(.text)
 *(.text.*)
 .text.ADC_InterTSSampInit
                0x0000000000001296       0x28 ./StdPeriphDriver/CH57x_adc.o
                0x0000000000001296                ADC_InterTSSampInit
 .text.Calibration_LSI_FLASH
                0x00000000000012be      0x290 ./StdPeriphDriver/CH57x_clk.o
                0x00000000000012be                Calibration_LSI_FLASH
 .text.Calibration_LSI_RAM
                0x000000000000154e      0x246 ./StdPeriphDriver/CH57x_clk.o
                0x000000000000154e                Calibration_LSI_RAM
 .text.RTC_InitTime
                0x0000000000001794      0x138 ./StdPeriphDriver/CH57x_clk.o
                0x0000000000001794                RTC_InitTime
 .text.GPIOB_ModeCfg
                0x00000000000018cc       0xa6 ./StdPeriphDriver/CH57x_gpio.o
                0x00000000000018cc                GPIOB_ModeCfg
 .text.SYS_GetSysTickCnt
                0x0000000000001972        0xa ./StdPeriphDriver/CH57x_sys.o
                0x0000000000001972                SYS_GetSysTickCnt
 .text.battMeasure
                0x000000000000197c       0x7c ./Profile/battservice.o
 .text.battWriteAttrCB
                0x00000000000019f8       0x5e ./Profile/battservice.o
 .text.battReadAttrCB
                0x0000000000001a56       0x7e ./Profile/battservice.o
 .text.battNotifyCB
                0x0000000000001ad4       0x76 ./Profile/battservice.o
 .text.Batt_AddService
                0x0000000000001b4a       0x2c ./Profile/battservice.o
                0x0000000000001b4a                Batt_AddService
 .text.Batt_Register
                0x0000000000001b76        0x6 ./Profile/battservice.o
                0x0000000000001b76                Batt_Register
 .text.Batt_SetParameter
                0x0000000000001b7c       0x3a ./Profile/battservice.o
                0x0000000000001b7c                Batt_SetParameter
 .text.Batt_MeasLevel
                0x0000000000001bb6       0x2e ./Profile/battservice.o
                0x0000000000001bb6                Batt_MeasLevel
 .text.Batt_HandleConnStatusCB
                0x0000000000001be4       0x3e ./Profile/battservice.o
                0x0000000000001be4                Batt_HandleConnStatusCB
 .text.devInfo_ReadAttrCB
                0x0000000000001c22      0x196 ./Profile/devinfoservice.o
 .text.DevInfo_AddService
                0x0000000000001db8       0x18 ./Profile/devinfoservice.o
                0x0000000000001db8                DevInfo_AddService
 .text.DevInfo_SetParameter
                0x0000000000001dd0       0x24 ./Profile/devinfoservice.o
                0x0000000000001dd0                DevInfo_SetParameter
 .text.resBand_ReadAttrCB
                0x0000000000001df4        0xa ./Profile/resbandservice.o
 .text.resBand_WriteAttrCB
                0x0000000000001dfe       0xac ./Profile/resbandservice.o
 .text.ResBand_AddService
                0x0000000000001eaa       0x40 ./Profile/resbandservice.o
                0x0000000000001eaa                ResBand_AddService
 .text.ResBand_Register
                0x0000000000001eea        0x6 ./Profile/resbandservice.o
                0x0000000000001eea                ResBand_Register
 .text.ResBand_MeasNotify
                0x0000000000001ef0       0x46 ./Profile/resbandservice.o
                0x0000000000001ef0                ResBand_MeasNotify
 .text.ResBand_HandleConnStatusCB
                0x0000000000001f36       0x3e ./Profile/resbandservice.o
                0x0000000000001f36                ResBand_HandleConnStatusCB
 .text.HalLedBlink.part.2
                0x0000000000001f74       0x9c ./HAL/LED.o
 .text.HalLedOnOff
                0x0000000000002010       0x46 ./HAL/LED.o
                0x0000000000002010                HalLedOnOff
 .text.HalLedSet.part.1
                0x0000000000002056       0x56 ./HAL/LED.o
 .text.HalLedBlink
                0x00000000000020ac       0x1c ./HAL/LED.o
                0x00000000000020ac                HalLedBlink
 .text.HalLedSet
                0x00000000000020c8       0x44 ./HAL/LED.o
                0x00000000000020c8                HalLedSet
 .text.HAL_LedInit
                0x000000000000210c       0x32 ./HAL/LED.o
                0x000000000000210c                HAL_LedInit
 .text.HalLedUpdate
                0x000000000000213e      0x16c ./HAL/LED.o
                0x000000000000213e                HalLedUpdate
 .text.Lib_Calibration_LSI
                0x00000000000022aa       0x30 ./HAL/MCU.o
                0x00000000000022aa                Lib_Calibration_LSI
 .text.Lib_Read_Flash
                0x00000000000022da       0x1c ./HAL/MCU.o
                0x00000000000022da                Lib_Read_Flash
 .text.Lib_Write_Flash
                0x00000000000022f6       0x40 ./HAL/MCU.o
                0x00000000000022f6                Lib_Write_Flash
 .text.HAL_GetInterTempValue
                0x0000000000002336       0x72 ./HAL/MCU.o
                0x0000000000002336                HAL_GetInterTempValue
 .text.HAL_ProcessEvent
                0x00000000000023a8       0x76 ./HAL/MCU.o
                0x00000000000023a8                HAL_ProcessEvent
 .text.CH57X_BLEInit
                0x000000000000241e      0x112 ./HAL/MCU.o
                0x000000000000241e                CH57X_BLEInit
 .text.HAL_Init
                0x0000000000002530       0x36 ./HAL/MCU.o
                0x0000000000002530                HAL_Init
 .text.HAL_TimeInit
                0x0000000000002566       0x66 ./HAL/RTC.o
                0x0000000000002566                HAL_TimeInit
 .text.OY_Read_Reg
                0x00000000000025cc      0x106 ./APP/OY8699.o
                0x00000000000025cc                OY_Read_Reg
 .text.OY_GPIO_Test
                0x00000000000026d2       0x3e ./APP/OY8699.o
                0x00000000000026d2                OY_GPIO_Test
 .text.ResBandGapStateCB
                0x0000000000002710      0x128 ./APP/resband.o
 .text.resBandBattCB
                0x0000000000002838       0x34 ./APP/resband.o
 .text.resBandCB
                0x000000000000286c       0x64 ./APP/resband.o
 .text.ResBand_ProcessEvent
                0x00000000000028d0      0x158 ./APP/resband.o
                0x00000000000028d0                ResBand_ProcessEvent
 .text.ResBand_Init
                0x0000000000002a28      0x118 ./APP/resband.o
                0x0000000000002a28                ResBand_Init
 .text.startup.main
                0x0000000000002b40       0x40 ./APP/resband_main.o
                0x0000000000002b40                main
 .text.tmos_msg_enqueue
                0x0000000000002b80       0x1e d:/BaiduSyncdisk/Edith/墨小孔实习/resband/resistance_band/LIB\libCH57xBLE.a(message.o)
                0x0000000000002b80                tmos_msg_enqueue
 .text.tmos_msg_deallocate
                0x0000000000002b9e       0x2c d:/BaiduSyncdisk/Edith/墨小孔实习/resband/resistance_band/LIB\libCH57xBLE.a(message.o)
                0x0000000000002b9e                tmos_msg_deallocate
 .text.tmos_msg_allocate
                0x0000000000002bca       0x3e d:/BaiduSyncdisk/Edith/墨小孔实习/resband/resistance_band/LIB\libCH57xBLE.a(message.o)
                0x0000000000002bca                tmos_msg_allocate
 .text.tmos_msg_receive
                0x0000000000002c08       0x68 d:/BaiduSyncdisk/Edith/墨小孔实习/resband/resistance_band/LIB\libCH57xBLE.a(message.o)
                0x0000000000002c08                tmos_msg_receive
 .text.tmos_msg_send
                0x0000000000002c70       0x56 d:/BaiduSyncdisk/Edith/墨小孔实习/resband/resistance_band/LIB\libCH57xBLE.a(message.o)
                0x0000000000002c70                tmos_msg_send
 .text.tmos_msg_init
                0x0000000000002cc6        0x6 d:/BaiduSyncdisk/Edith/墨小孔实习/resband/resistance_band/LIB\libCH57xBLE.a(message.o)
                0x0000000000002cc6                tmos_msg_init
 .text.tmosFindTask
                0x0000000000002ccc       0x20 d:/BaiduSyncdisk/Edith/墨小孔实习/resband/resistance_band/LIB\libCH57xBLE.a(tmos.o)
 .text.TMOS_CbTimerProcessEvent
                0x0000000000002cec       0x7c d:/BaiduSyncdisk/Edith/墨小孔实习/resband/resistance_band/LIB\libCH57xBLE.a(tmos.o)
                0x0000000000002cec                TMOS_CbTimerProcessEvent
 .text.tmos_rand
                0x0000000000002d68       0x54 d:/BaiduSyncdisk/Edith/墨小孔实习/resband/resistance_band/LIB\libCH57xBLE.a(tmos.o)
                0x0000000000002d68                tmos_rand
 .text.tmos_query_sleep_time
                0x0000000000002dbc      0x178 d:/BaiduSyncdisk/Edith/墨小孔实习/resband/resistance_band/LIB\libCH57xBLE.a(tmos.o)
                0x0000000000002dbc                tmos_query_sleep_time
 .text.tmos_memset
                0x0000000000002f34       0x12 d:/BaiduSyncdisk/Edith/墨小孔实习/resband/resistance_band/LIB\libCH57xBLE.a(tmos.o)
                0x0000000000002f34                tmos_memset
 .text.tmos_strlen
                0x0000000000002f46       0x14 d:/BaiduSyncdisk/Edith/墨小孔实习/resband/resistance_band/LIB\libCH57xBLE.a(tmos.o)
                0x0000000000002f46                tmos_strlen
 .text.tmos_memdup
                0x0000000000002f5a       0x3c d:/BaiduSyncdisk/Edith/墨小孔实习/resband/resistance_band/LIB\libCH57xBLE.a(tmos.o)
                0x0000000000002f5a                tmos_memdup
 .text.tmos_memcmp
                0x0000000000002f96       0x24 d:/BaiduSyncdisk/Edith/墨小孔实习/resband/resistance_band/LIB\libCH57xBLE.a(tmos.o)
                0x0000000000002f96                tmos_memcmp
 .text.tmos_revmemcpy
                0x0000000000002fba       0x1c d:/BaiduSyncdisk/Edith/墨小孔实习/resband/resistance_band/LIB\libCH57xBLE.a(tmos.o)
                0x0000000000002fba                tmos_revmemcpy
 .text.tmos_isbufset
                0x0000000000002fd6       0x1e d:/BaiduSyncdisk/Edith/墨小孔实习/resband/resistance_band/LIB\libCH57xBLE.a(tmos.o)
                0x0000000000002fd6                tmos_isbufset
 .text.TMOS_GetSystemClock
                0x0000000000002ff4        0xc d:/BaiduSyncdisk/Edith/墨小孔实习/resband/resistance_band/LIB\libCH57xBLE.a(tmos.o)
                0x0000000000002ff4                TMOS_GetSystemClock
 .text.tmos_set_event
                0x0000000000003000       0x2a d:/BaiduSyncdisk/Edith/墨小孔实习/resband/resistance_band/LIB\libCH57xBLE.a(tmos.o)
                0x0000000000003000                tmos_set_event
 .text.tmos_query_system_time
                0x000000000000302a       0xce d:/BaiduSyncdisk/Edith/墨小孔实习/resband/resistance_band/LIB\libCH57xBLE.a(tmos.o)
                0x000000000000302a                tmos_query_system_time
 .text.tmos_clear_event
                0x00000000000030f8       0x2e d:/BaiduSyncdisk/Edith/墨小孔实习/resband/resistance_band/LIB\libCH57xBLE.a(tmos.o)
                0x00000000000030f8                tmos_clear_event
 .text.tmos_start_task
                0x0000000000003126       0x8e d:/BaiduSyncdisk/Edith/墨小孔实习/resband/resistance_band/LIB\libCH57xBLE.a(tmos.o)
                0x0000000000003126                tmos_start_task
 .text.tmos_start_callback_task
                0x00000000000031b4       0xac d:/BaiduSyncdisk/Edith/墨小孔实习/resband/resistance_band/LIB\libCH57xBLE.a(tmos.o)
                0x00000000000031b4                tmos_start_callback_task
 .text.tmos_start_reload_task
                0x0000000000003260       0x30 d:/BaiduSyncdisk/Edith/墨小孔实习/resband/resistance_band/LIB\libCH57xBLE.a(tmos.o)
                0x0000000000003260                tmos_start_reload_task
 .text.tmos_stop_task
                0x0000000000003290       0x42 d:/BaiduSyncdisk/Edith/墨小孔实习/resband/resistance_band/LIB\libCH57xBLE.a(tmos.o)
                0x0000000000003290                tmos_stop_task
 .text.tmos_stop_callback_task
                0x00000000000032d2       0x5c d:/BaiduSyncdisk/Edith/墨小孔实习/resband/resistance_band/LIB\libCH57xBLE.a(tmos.o)
                0x00000000000032d2                tmos_stop_callback_task
 .text.tmos_get_task_timer
                0x000000000000332e       0x16 d:/BaiduSyncdisk/Edith/墨小孔实习/resband/resistance_band/LIB\libCH57xBLE.a(tmos.o)
                0x000000000000332e                tmos_get_task_timer
 .text.tmos_update_callback_timer
                0x0000000000003344       0x62 d:/BaiduSyncdisk/Edith/墨小孔实习/resband/resistance_band/LIB\libCH57xBLE.a(tmos.o)
                0x0000000000003344                tmos_update_callback_timer
 .text.TMOS_Set32KTuneValue
                0x00000000000033a6        0xa d:/BaiduSyncdisk/Edith/墨小孔实习/resband/resistance_band/LIB\libCH57xBLE.a(tmos.o)
                0x00000000000033a6                TMOS_Set32KTuneValue
 .text.TMOS_TimerRegister
                0x00000000000033b0       0x1a d:/BaiduSyncdisk/Edith/墨小孔实习/resband/resistance_band/LIB\libCH57xBLE.a(tmos.o)
                0x00000000000033b0                TMOS_TimerRegister
 .text.TMOS_ProcessRegister
                0x00000000000033ca       0x16 d:/BaiduSyncdisk/Edith/墨小孔实习/resband/resistance_band/LIB\libCH57xBLE.a(tmos.o)
                0x00000000000033ca                TMOS_ProcessRegister
 .text.TMOS_Init
                0x00000000000033e0       0xe6 d:/BaiduSyncdisk/Edith/墨小孔实习/resband/resistance_band/LIB\libCH57xBLE.a(tmos.o)
                0x00000000000033e0                TMOS_Init
 .text.TMOS_ProcessEventRegister
                0x00000000000034c6       0x38 d:/BaiduSyncdisk/Edith/墨小孔实习/resband/resistance_band/LIB\libCH57xBLE.a(tmos.o)
                0x00000000000034c6                TMOS_ProcessEventRegister
 .text.BLE_LibInit
                0x00000000000034fe      0x1aa d:/BaiduSyncdisk/Edith/墨小孔实习/resband/resistance_band/LIB\libCH57xBLE.a(tmos.o)
                0x00000000000034fe                BLE_LibInit
 .text.ble_ll_common_rand8
                0x00000000000036a8       0x24 d:/BaiduSyncdisk/Edith/墨小孔实习/resband/resistance_band/LIB\libCH57xBLE.a(tmos_hw.o)
                0x00000000000036a8                ble_ll_common_rand8
 .text.ble_ll_common_rand16
                0x00000000000036cc       0x24 d:/BaiduSyncdisk/Edith/墨小孔实习/resband/resistance_band/LIB\libCH57xBLE.a(tmos_hw.o)
                0x00000000000036cc                ble_ll_common_rand16
 .text.ble_ll_common_rand32
                0x00000000000036f0       0x20 d:/BaiduSyncdisk/Edith/墨小孔实习/resband/resistance_band/LIB\libCH57xBLE.a(tmos_hw.o)
                0x00000000000036f0                ble_ll_common_rand32
 .text.ll_hw_temp_sample
                0x0000000000003710       0xc0 d:/BaiduSyncdisk/Edith/墨小孔实习/resband/resistance_band/LIB\libCH57xBLE.a(tmos_hw.o)
                0x0000000000003710                ll_hw_temp_sample
 .text.TMOS_TimerInit
                0x00000000000037d0       0x5c d:/BaiduSyncdisk/Edith/墨小孔实习/resband/resistance_band/LIB\libCH57xBLE.a(tmos_hw.o)
                0x00000000000037d0                TMOS_TimerInit
 .text.tmos_snv_init
                0x000000000000382c       0xbc d:/BaiduSyncdisk/Edith/墨小孔实习/resband/resistance_band/LIB\libCH57xBLE.a(tmos_snv.o)
                0x000000000000382c                tmos_snv_init
 .text.tmos_snv_clear
                0x00000000000038e8       0xae d:/BaiduSyncdisk/Edith/墨小孔实习/resband/resistance_band/LIB\libCH57xBLE.a(tmos_snv.o)
                0x00000000000038e8                tmos_snv_clear
 .text.tmos_snv_read
                0x0000000000003996      0x292 d:/BaiduSyncdisk/Edith/墨小孔实习/resband/resistance_band/LIB\libCH57xBLE.a(tmos_snv.o)
                0x0000000000003996                tmos_snv_read
 .text.tmos_snv_notify
                0x0000000000003c28       0x5a d:/BaiduSyncdisk/Edith/墨小孔实习/resband/resistance_band/LIB\libCH57xBLE.a(tmos_snv.o)
                0x0000000000003c28                tmos_snv_notify
 .text.tmos_snv_write
                0x0000000000003c82      0x2ce d:/BaiduSyncdisk/Edith/墨小孔实习/resband/resistance_band/LIB\libCH57xBLE.a(tmos_snv.o)
                0x0000000000003c82                tmos_snv_write
 .text.tmos_snv_compact
                0x0000000000003f50        0x4 d:/BaiduSyncdisk/Edith/墨小孔实习/resband/resistance_band/LIB\libCH57xBLE.a(tmos_snv.o)
                0x0000000000003f50                tmos_snv_compact
 .text.disconnectNext
                0x0000000000003f54       0x22 d:/BaiduSyncdisk/Edith/墨小孔实习/resband/resistance_band/LIB\libCH57xBLE.a(gap.o)
 .text.GAP_ParamInit
                0x0000000000003f76       0x88 d:/BaiduSyncdisk/Edith/墨小孔实习/resband/resistance_band/LIB\libCH57xBLE.a(gap.o)
                0x0000000000003f76                GAP_ParamInit
 .text.sendTerminateEvent
                0x0000000000003ffe       0x58 d:/BaiduSyncdisk/Edith/墨小孔实习/resband/resistance_band/LIB\libCH57xBLE.a(gap.o)
                0x0000000000003ffe                sendTerminateEvent
 .text.gapRegisterCentral
                0x0000000000004056        0x6 d:/BaiduSyncdisk/Edith/墨小孔实习/resband/resistance_band/LIB\libCH57xBLE.a(gap.o)
                0x0000000000004056                gapRegisterCentral
 .text.gapRegisterCentralConn
                0x000000000000405c        0x6 d:/BaiduSyncdisk/Edith/墨小孔实习/resband/resistance_band/LIB\libCH57xBLE.a(gap.o)
                0x000000000000405c                gapRegisterCentralConn
 .text.gapRegisterPeripheral
                0x0000000000004062        0x6 d:/BaiduSyncdisk/Edith/墨小孔实习/resband/resistance_band/LIB\libCH57xBLE.a(gap.o)
                0x0000000000004062                gapRegisterPeripheral
 .text.gapRegisterPeripheralConn
                0x0000000000004068        0x6 d:/BaiduSyncdisk/Edith/墨小孔实习/resband/resistance_band/LIB\libCH57xBLE.a(gap.o)
                0x0000000000004068                gapRegisterPeripheralConn
 .text.smGenerateRandBuf
                0x000000000000406e       0x56 d:/BaiduSyncdisk/Edith/墨小孔实习/resband/resistance_band/LIB\libCH57xBLE.a(gap.o)
                0x000000000000406e                smGenerateRandBuf
 .text.gapL2capConnParamUpdateReq
                0x00000000000040c4       0x32 d:/BaiduSyncdisk/Edith/墨小孔实习/resband/resistance_band/LIB\libCH57xBLE.a(gap.o)
                0x00000000000040c4                gapL2capConnParamUpdateReq
 .text.gapValidADType
                0x00000000000040f6       0x16 d:/BaiduSyncdisk/Edith/墨小孔实习/resband/resistance_band/LIB\libCH57xBLE.a(gap.o)
                0x00000000000040f6                gapValidADType
 .text.gapFindADType
                0x000000000000410c       0x8e d:/BaiduSyncdisk/Edith/墨小孔实习/resband/resistance_band/LIB\libCH57xBLE.a(gap.o)
                0x000000000000410c                gapFindADType
 .text.GAP_SecParamsInit
                0x000000000000419a       0x9a d:/BaiduSyncdisk/Edith/墨小孔实习/resband/resistance_band/LIB\libCH57xBLE.a(gap.o)
                0x000000000000419a                GAP_SecParamsInit
 .text.GAP_ParamsInit
                0x0000000000004234       0x48 d:/BaiduSyncdisk/Edith/墨小孔实习/resband/resistance_band/LIB\libCH57xBLE.a(gap.o)
                0x0000000000004234                GAP_ParamsInit
 .text.gapAddAddrAdj
                0x000000000000427c       0x48 d:/BaiduSyncdisk/Edith/墨小孔实习/resband/resistance_band/LIB\libCH57xBLE.a(gap.o)
                0x000000000000427c                gapAddAddrAdj
 .text.gapDetermineAddrType
                0x00000000000042c4       0x28 d:/BaiduSyncdisk/Edith/墨小孔实习/resband/resistance_band/LIB\libCH57xBLE.a(gap.o)
                0x00000000000042c4                gapDetermineAddrType
 .text.gapFreeAuthLink
                0x00000000000042ec       0x4a d:/BaiduSyncdisk/Edith/墨小孔实习/resband/resistance_band/LIB\libCH57xBLE.a(gap.o)
                0x00000000000042ec                gapFreeAuthLink
 .text.gapGetDevAddress
                0x0000000000004336       0x24 d:/BaiduSyncdisk/Edith/墨小孔实习/resband/resistance_band/LIB\libCH57xBLE.a(gap.o)
                0x0000000000004336                gapGetDevAddress
 .text.gapGetDevAddressMode
                0x000000000000435a        0xa d:/BaiduSyncdisk/Edith/墨小孔实习/resband/resistance_band/LIB\libCH57xBLE.a(gap.o)
                0x000000000000435a                gapGetDevAddressMode
 .text.gapGetIRK
                0x0000000000004364        0xc d:/BaiduSyncdisk/Edith/墨小孔实习/resband/resistance_band/LIB\libCH57xBLE.a(gap.o)
                0x0000000000004364                gapGetIRK
 .text.gapGetSRK
                0x0000000000004370        0xc d:/BaiduSyncdisk/Edith/墨小孔实习/resband/resistance_band/LIB\libCH57xBLE.a(gap.o)
                0x0000000000004370                gapGetSRK
 .text.gapGetSignCounter
                0x000000000000437c        0xe d:/BaiduSyncdisk/Edith/墨小孔实习/resband/resistance_band/LIB\libCH57xBLE.a(gap.o)
                0x000000000000437c                gapGetSignCounter
 .text.gapIncSignCounter
                0x000000000000438a       0x28 d:/BaiduSyncdisk/Edith/墨小孔实习/resband/resistance_band/LIB\libCH57xBLE.a(gap.o)
                0x000000000000438a                gapIncSignCounter
 .text.gapProcessConnEvt
                0x00000000000043b2       0x48 d:/BaiduSyncdisk/Edith/墨小孔实习/resband/resistance_band/LIB\libCH57xBLE.a(gap.o)
                0x00000000000043b2                gapProcessConnEvt
 .text.gapProcessDisconnectCompleteEvt
                0x00000000000043fa       0xa8 d:/BaiduSyncdisk/Edith/墨小孔实习/resband/resistance_band/LIB\libCH57xBLE.a(gap.o)
                0x00000000000043fa                gapProcessDisconnectCompleteEvt
 .text.sendAuthEvent
                0x00000000000044a2      0x11a d:/BaiduSyncdisk/Edith/墨小孔实习/resband/resistance_band/LIB\libCH57xBLE.a(gap.o)
                0x00000000000044a2                sendAuthEvent
 .text.gapSendBondCompleteEvent
                0x00000000000045bc       0x70 d:/BaiduSyncdisk/Edith/墨小孔实习/resband/resistance_band/LIB\libCH57xBLE.a(gap.o)
                0x00000000000045bc                gapSendBondCompleteEvent
 .text.gapSendPairingReqEvent
                0x000000000000462c       0x92 d:/BaiduSyncdisk/Edith/墨小孔实习/resband/resistance_band/LIB\libCH57xBLE.a(gap.o)
                0x000000000000462c                gapSendPairingReqEvent
 .text.gapSendSlaveSecurityReqEvent
                0x00000000000046be       0x68 d:/BaiduSyncdisk/Edith/墨小孔实习/resband/resistance_band/LIB\libCH57xBLE.a(gap.o)
                0x00000000000046be                gapSendSlaveSecurityReqEvent
 .text.gapSendDeviceInitDoneEvent
                0x0000000000004726       0x88 d:/BaiduSyncdisk/Edith/墨小孔实习/resband/resistance_band/LIB\libCH57xBLE.a(gap.o)
                0x0000000000004726                gapSendDeviceInitDoneEvent
 .text.gapSendLinkUpdateEvent
                0x00000000000047ae       0x84 d:/BaiduSyncdisk/Edith/墨小孔实习/resband/resistance_band/LIB\libCH57xBLE.a(gap.o)
                0x00000000000047ae                gapSendLinkUpdateEvent
 .text.gapSendEstLinkEvent
                0x0000000000004832       0xb8 d:/BaiduSyncdisk/Edith/墨小孔实习/resband/resistance_band/LIB\libCH57xBLE.a(gap.o)
                0x0000000000004832                gapSendEstLinkEvent
 .text.gapProcessNewAddr
                0x00000000000048ea       0x3e d:/BaiduSyncdisk/Edith/墨小孔实习/resband/resistance_band/LIB\libCH57xBLE.a(gap.o)
                0x00000000000048ea                gapProcessNewAddr
 .text.gapProcessRandomAddrComplete
                0x0000000000004928       0xb6 d:/BaiduSyncdisk/Edith/墨小孔实习/resband/resistance_band/LIB\libCH57xBLE.a(gap.o)
                0x0000000000004928                gapProcessRandomAddrComplete
 .text.GAP_Authenticate
                0x00000000000049de       0xd2 d:/BaiduSyncdisk/Edith/墨小孔实习/resband/resistance_band/LIB\libCH57xBLE.a(gap.o)
                0x00000000000049de                GAP_Authenticate
 .text.GAP_Bond
                0x0000000000004ab0       0xa2 d:/BaiduSyncdisk/Edith/墨小孔实习/resband/resistance_band/LIB\libCH57xBLE.a(gap.o)
                0x0000000000004ab0                GAP_Bond
 .text.GAP_GetParamValue
                0x0000000000004b52       0x1e d:/BaiduSyncdisk/Edith/墨小孔实习/resband/resistance_band/LIB\libCH57xBLE.a(gap.o)
                0x0000000000004b52                GAP_GetParamValue
 .text.GAP_PasscodeUpdate
                0x0000000000004b70       0x50 d:/BaiduSyncdisk/Edith/墨小孔实习/resband/resistance_band/LIB\libCH57xBLE.a(gap.o)
                0x0000000000004b70                GAP_PasscodeUpdate
 .text.GAP_RegisterForMsgs
                0x0000000000004bc0        0x6 d:/BaiduSyncdisk/Edith/墨小孔实习/resband/resistance_band/LIB\libCH57xBLE.a(gap.o)
                0x0000000000004bc0                GAP_RegisterForMsgs
 .text.GAP_ResolvePrivateAddr
                0x0000000000004bc6        0x4 d:/BaiduSyncdisk/Edith/墨小孔实习/resband/resistance_band/LIB\libCH57xBLE.a(gap.o)
                0x0000000000004bc6                GAP_ResolvePrivateAddr
 .text.gapPairingCompleteCB
                0x0000000000004bca      0x188 d:/BaiduSyncdisk/Edith/墨小孔实习/resband/resistance_band/LIB\libCH57xBLE.a(gap.o)
                0x0000000000004bca                gapPairingCompleteCB
 .text.gapPasskeyNeededCB
                0x0000000000004d52       0x8e d:/BaiduSyncdisk/Edith/墨小孔实习/resband/resistance_band/LIB\libCH57xBLE.a(gap.o)
                0x0000000000004d52                gapPasskeyNeededCB
 .text.gapFreeEstLink
                0x0000000000004de0       0x20 d:/BaiduSyncdisk/Edith/墨小孔实习/resband/resistance_band/LIB\libCH57xBLE.a(gap.o)
                0x0000000000004de0                gapFreeEstLink
 .text.gapUpdateConnSignCounter
                0x0000000000004e00       0x7a d:/BaiduSyncdisk/Edith/墨小孔实习/resband/resistance_band/LIB\libCH57xBLE.a(gap.o)
                0x0000000000004e00                gapUpdateConnSignCounter
 .text.GAP_SendSlaveSecurityRequest
                0x0000000000004e7a       0x4c d:/BaiduSyncdisk/Edith/墨小孔实习/resband/resistance_band/LIB\libCH57xBLE.a(gap.o)
                0x0000000000004e7a                GAP_SendSlaveSecurityRequest
 .text.GAP_Signable
                0x0000000000004ec6       0x66 d:/BaiduSyncdisk/Edith/墨小孔实习/resband/resistance_band/LIB\libCH57xBLE.a(gap.o)
                0x0000000000004ec6                GAP_Signable
 .text.GAP_TerminateAuth
                0x0000000000004f2c       0x2a d:/BaiduSyncdisk/Edith/墨小孔实习/resband/resistance_band/LIB\libCH57xBLE.a(gap.o)
                0x0000000000004f2c                GAP_TerminateAuth
 .text.GAP_NumActiveConnections
                0x0000000000004f56        0x4 d:/BaiduSyncdisk/Edith/墨小孔实习/resband/resistance_band/LIB\libCH57xBLE.a(gap.o)
                0x0000000000004f56                GAP_NumActiveConnections
 .text.GAP_TerminateLinkReq
                0x0000000000004f5a       0x8e d:/BaiduSyncdisk/Edith/墨小孔实习/resband/resistance_band/LIB\libCH57xBLE.a(gap.o)
                0x0000000000004f5a                GAP_TerminateLinkReq
 .text.GAP_SetParamValue
                0x0000000000004fe8       0x4a d:/BaiduSyncdisk/Edith/墨小孔实习/resband/resistance_band/LIB\libCH57xBLE.a(gap.o)
                0x0000000000004fe8                GAP_SetParamValue
 .text.GAP_Init
                0x0000000000005032       0x44 d:/BaiduSyncdisk/Edith/墨小孔实习/resband/resistance_band/LIB\libCH57xBLE.a(gap.o)
                0x0000000000005032                GAP_Init
 .text.GAP_ProcessEvent
                0x0000000000005076      0x57e d:/BaiduSyncdisk/Edith/墨小孔实习/resband/resistance_band/LIB\libCH57xBLE.a(gap.o)
                0x0000000000005076                GAP_ProcessEvent
 .text.gapSendScanEnable
                0x00000000000055f4       0x1e d:/BaiduSyncdisk/Edith/墨小孔实习/resband/resistance_band/LIB\libCH57xBLE.a(gap_central.o)
 .text.gapCentProcessConnEvt
                0x0000000000005612      0x154 d:/BaiduSyncdisk/Edith/墨小孔实习/resband/resistance_band/LIB\libCH57xBLE.a(gap_central.o)
                0x0000000000005612                gapCentProcessConnEvt
 .text.gapCancelLinkReq
                0x0000000000005766       0x38 d:/BaiduSyncdisk/Edith/墨小孔实习/resband/resistance_band/LIB\libCH57xBLE.a(gap_central.o)
                0x0000000000005766                gapCancelLinkReq
 .text.GAP_CentralParamInit
                0x000000000000579e       0x4c d:/BaiduSyncdisk/Edith/墨小孔实习/resband/resistance_band/LIB\libCH57xBLE.a(gap_central.o)
                0x000000000000579e                GAP_CentralParamInit
 .text.gapProcessAdvertDevInfo
                0x00000000000057ea      0x23a d:/BaiduSyncdisk/Edith/墨小孔实习/resband/resistance_band/LIB\libCH57xBLE.a(gap_central.o)
                0x00000000000057ea                gapProcessAdvertDevInfo
 .text.gapFreeScanRecs
                0x0000000000005a24       0xa2 d:/BaiduSyncdisk/Edith/墨小孔实习/resband/resistance_band/LIB\libCH57xBLE.a(gap_central.o)
                0x0000000000005a24                gapFreeScanRecs
 .text.gapSendDevDiscEvent
                0x0000000000005ac6      0x124 d:/BaiduSyncdisk/Edith/墨小孔实习/resband/resistance_band/LIB\libCH57xBLE.a(gap_central.o)
                0x0000000000005ac6                gapSendDevDiscEvent
 .text.gapSetScanParamStatus.part.2
                0x0000000000005bea       0x40 d:/BaiduSyncdisk/Edith/墨小孔实习/resband/resistance_band/LIB\libCH57xBLE.a(gap_central.o)
 .text.gapCentProcessHCICmdEvt
                0x0000000000005c2a       0x3c d:/BaiduSyncdisk/Edith/墨小孔实习/resband/resistance_band/LIB\libCH57xBLE.a(gap_central.o)
                0x0000000000005c2a                gapCentProcessHCICmdEvt
 .text.gapProcessScanningEvt
                0x0000000000005c66      0x110 d:/BaiduSyncdisk/Edith/墨小孔实习/resband/resistance_band/LIB\libCH57xBLE.a(gap_central.o)
                0x0000000000005c66                gapProcessScanningEvt
 .text.gapProcessScanningDirectEvt
                0x0000000000005d76       0xfe d:/BaiduSyncdisk/Edith/墨小孔实习/resband/resistance_band/LIB\libCH57xBLE.a(gap_central.o)
                0x0000000000005d76                gapProcessScanningDirectEvt
 .text.GAP_CentConnRegister
                0x0000000000005e74       0x12 d:/BaiduSyncdisk/Edith/墨小孔实习/resband/resistance_band/LIB\libCH57xBLE.a(gap_central.o)
                0x0000000000005e74                GAP_CentConnRegister
 .text.GAP_CentDevMgrInit
                0x0000000000005e86       0x94 d:/BaiduSyncdisk/Edith/墨小孔实习/resband/resistance_band/LIB\libCH57xBLE.a(gap_central.o)
                0x0000000000005e86                GAP_CentDevMgrInit
 .text.gapFreeAdvertState
                0x0000000000005f1a       0x20 d:/BaiduSyncdisk/Edith/墨小孔实习/resband/resistance_band/LIB\libCH57xBLE.a(gap_peripheral.o)
 .text.gapPeriProcessConnEvt
                0x0000000000005f3a       0xbc d:/BaiduSyncdisk/Edith/墨小孔实习/resband/resistance_band/LIB\libCH57xBLE.a(gap_peripheral.o)
 .text.gapSetAdvParams
                0x0000000000005ff6       0x7e d:/BaiduSyncdisk/Edith/墨小孔实习/resband/resistance_band/LIB\libCH57xBLE.a(gap_peripheral.o)
 .text.GAP_PeripheralParamInit
                0x0000000000006074       0x4a d:/BaiduSyncdisk/Edith/墨小孔实习/resband/resistance_band/LIB\libCH57xBLE.a(gap_peripheral.o)
                0x0000000000006074                GAP_PeripheralParamInit
 .text.gapSendMakeDiscEvent
                0x00000000000060be       0x4e d:/BaiduSyncdisk/Edith/墨小孔实习/resband/resistance_band/LIB\libCH57xBLE.a(gap_peripheral.o)
                0x00000000000060be                gapSendMakeDiscEvent
 .text.gapPeriProcessHCICmdCompleteEvt
                0x000000000000610c      0x190 d:/BaiduSyncdisk/Edith/墨小孔实习/resband/resistance_band/LIB\libCH57xBLE.a(gap_peripheral.o)
 .text.GAP_MakeDiscoverable
                0x000000000000629c       0xf0 d:/BaiduSyncdisk/Edith/墨小孔实习/resband/resistance_band/LIB\libCH57xBLE.a(gap_peripheral.o)
                0x000000000000629c                GAP_MakeDiscoverable
 .text.GAP_EndDiscoverable
                0x000000000000638c       0x5c d:/BaiduSyncdisk/Edith/墨小孔实习/resband/resistance_band/LIB\libCH57xBLE.a(gap_peripheral.o)
                0x000000000000638c                GAP_EndDiscoverable
 .text.gapProcessAdvertisingEvt
                0x00000000000063e8       0x8e d:/BaiduSyncdisk/Edith/墨小孔实习/resband/resistance_band/LIB\libCH57xBLE.a(gap_peripheral.o)
 .text.GAP_UpdateAdvertisingData
                0x0000000000006476       0xb8 d:/BaiduSyncdisk/Edith/墨小孔实习/resband/resistance_band/LIB\libCH57xBLE.a(gap_peripheral.o)
                0x0000000000006476                GAP_UpdateAdvertisingData
 .text.GAP_PeriConnRegister
                0x000000000000652e       0x2a d:/BaiduSyncdisk/Edith/墨小孔实习/resband/resistance_band/LIB\libCH57xBLE.a(gap_peripheral.o)
                0x000000000000652e                GAP_PeriConnRegister
 .text.GAP_PeriDevMgrInit
                0x0000000000006558       0xbc d:/BaiduSyncdisk/Edith/墨小孔实习/resband/resistance_band/LIB\libCH57xBLE.a(gap_peripheral.o)
                0x0000000000006558                GAP_PeriDevMgrInit
 .text.ggs_SetAttrWPermit
                0x0000000000006614       0x68 d:/BaiduSyncdisk/Edith/墨小孔实习/resband/resistance_band/LIB\libCH57xBLE.a(gapgattserver.o)
 .text.ggs_ReadAttrCB
                0x000000000000667c      0x152 d:/BaiduSyncdisk/Edith/墨小孔实习/resband/resistance_band/LIB\libCH57xBLE.a(gapgattserver.o)
 .text.ggs_WriteAttrCB
                0x00000000000067ce      0x154 d:/BaiduSyncdisk/Edith/墨小孔实习/resband/resistance_band/LIB\libCH57xBLE.a(gapgattserver.o)
 .text.GGS_ParamInit
                0x0000000000006922      0x23a d:/BaiduSyncdisk/Edith/墨小孔实习/resband/resistance_band/LIB\libCH57xBLE.a(gapgattserver.o)
                0x0000000000006922                GGS_ParamInit
 .text.GGS_SetParameter
                0x0000000000006b5c       0xde d:/BaiduSyncdisk/Edith/墨小孔实习/resband/resistance_band/LIB\libCH57xBLE.a(gapgattserver.o)
                0x0000000000006b5c                GGS_SetParameter
 .text.GGS_AddService
                0x0000000000006c3a       0x2c d:/BaiduSyncdisk/Edith/墨小孔实习/resband/resistance_band/LIB\libCH57xBLE.a(gapgattserver.o)
                0x0000000000006c3a                GGS_AddService
 .text.GAP_DeviceInit
                0x0000000000006c66       0xd8 d:/BaiduSyncdisk/Edith/墨小孔实习/resband/resistance_band/LIB\libCH57xBLE.a(gapgattserver.o)
                0x0000000000006c66                GAP_DeviceInit
 .text.gattGetPayload
                0x0000000000006d3e       0x7e d:/BaiduSyncdisk/Edith/墨小孔实习/resband/resistance_band/LIB\libCH57xBLE.a(gatt.o)
                0x0000000000006d3e                gattGetPayload
 .text.gattNotifyEvent
                0x0000000000006dbc       0x80 d:/BaiduSyncdisk/Edith/墨小孔实习/resband/resistance_band/LIB\libCH57xBLE.a(gatt.o)
                0x0000000000006dbc                gattNotifyEvent
 .text.gattSendFlowCtrlEvt
                0x0000000000006e3c       0x48 d:/BaiduSyncdisk/Edith/墨小孔实习/resband/resistance_band/LIB\libCH57xBLE.a(gatt.o)
                0x0000000000006e3c                gattSendFlowCtrlEvt
 .text.gattStartTimer
                0x0000000000006e84        0xc d:/BaiduSyncdisk/Edith/墨小孔实习/resband/resistance_band/LIB\libCH57xBLE.a(gatt.o)
                0x0000000000006e84                gattStartTimer
 .text.gattStopTimer
                0x0000000000006e90       0x32 d:/BaiduSyncdisk/Edith/墨小孔实习/resband/resistance_band/LIB\libCH57xBLE.a(gatt.o)
                0x0000000000006e90                gattStopTimer
 .text.GATT_AppCompletedMsg
                0x0000000000006ec2       0x30 d:/BaiduSyncdisk/Edith/墨小孔实习/resband/resistance_band/LIB\libCH57xBLE.a(gatt.o)
                0x0000000000006ec2                GATT_AppCompletedMsg
 .text.GATT_NotifyEvent
                0x0000000000006ef2       0x4e d:/BaiduSyncdisk/Edith/墨小孔实习/resband/resistance_band/LIB\libCH57xBLE.a(gatt.o)
                0x0000000000006ef2                GATT_NotifyEvent
 .text.gattRegisterServer
                0x0000000000006f40        0x6 d:/BaiduSyncdisk/Edith/墨小孔实习/resband/resistance_band/LIB\libCH57xBLE.a(gatt.o)
                0x0000000000006f40                gattRegisterServer
 .text.GATT_UpdateMTU
                0x0000000000006f46       0x5c d:/BaiduSyncdisk/Edith/墨小孔实习/resband/resistance_band/LIB\libCH57xBLE.a(gatt.o)
                0x0000000000006f46                GATT_UpdateMTU
 .text.GATT_bm_alloc
                0x0000000000006fa2       0xea d:/BaiduSyncdisk/Edith/墨小孔实习/resband/resistance_band/LIB\libCH57xBLE.a(gatt.o)
                0x0000000000006fa2                GATT_bm_alloc
 .text.GATT_ServiceChangedInd
                0x000000000000708c       0x94 d:/BaiduSyncdisk/Edith/墨小孔实习/resband/resistance_band/LIB\libCH57xBLE.a(gatt.o)
                0x000000000000708c                GATT_ServiceChangedInd
 .text.GATT_bm_free
                0x0000000000007120       0x1c d:/BaiduSyncdisk/Edith/墨小孔实习/resband/resistance_band/LIB\libCH57xBLE.a(gatt.o)
                0x0000000000007120                GATT_bm_free
 .text.GATT_RegisterForPeriMsgs
                0x000000000000713c        0x6 d:/BaiduSyncdisk/Edith/墨小孔实习/resband/resistance_band/LIB\libCH57xBLE.a(gatt.o)
                0x000000000000713c                GATT_RegisterForPeriMsgs
 .text.GATT_Init
                0x0000000000007142       0x30 d:/BaiduSyncdisk/Edith/墨小孔实习/resband/resistance_band/LIB\libCH57xBLE.a(gatt.o)
                0x0000000000007142                GATT_Init
 .text.GATT_ProcessEvent
                0x0000000000007172      0x136 d:/BaiduSyncdisk/Edith/墨小孔实习/resband/resistance_band/LIB\libCH57xBLE.a(gatt.o)
                0x0000000000007172                GATT_ProcessEvent
 .text.gattProcessExchangeMTUReq
                0x00000000000072a8        0x4 d:/BaiduSyncdisk/Edith/墨小孔实习/resband/resistance_band/LIB\libCH57xBLE.a(gattservapp.o)
 .text.gattServApp_FindCharCfgItem
                0x00000000000072ac       0x20 d:/BaiduSyncdisk/Edith/墨小孔实习/resband/resistance_band/LIB\libCH57xBLE.a(gattservapp.o)
 .text.gattServerHandleTimerCB
                0x00000000000072cc       0x3c d:/BaiduSyncdisk/Edith/墨小孔实习/resband/resistance_band/LIB\libCH57xBLE.a(gattservapp.o)
 .text.GATTServApp_InitCharCfg.part.12
                0x0000000000007308       0x1c d:/BaiduSyncdisk/Edith/墨小孔实习/resband/resistance_band/LIB\libCH57xBLE.a(gattservapp.o)
 .text.gattProcessExecuteWriteReq
                0x0000000000007324        0x4 d:/BaiduSyncdisk/Edith/墨小孔实习/resband/resistance_band/LIB\libCH57xBLE.a(gattservapp.o)
 .text.GATTServApp_ParamInit
                0x0000000000007328       0xd6 d:/BaiduSyncdisk/Edith/墨小孔实习/resband/resistance_band/LIB\libCH57xBLE.a(gattservapp.o)
                0x0000000000007328                GATTServApp_ParamInit
 .text.GATTServApp_ReadCharCfg
                0x00000000000073fe       0x18 d:/BaiduSyncdisk/Edith/墨小孔实习/resband/resistance_band/LIB\libCH57xBLE.a(gattservapp.o)
                0x00000000000073fe                GATTServApp_ReadCharCfg
 .text.GATTServApp_WriteCharCfg
                0x0000000000007416       0x3c d:/BaiduSyncdisk/Edith/墨小孔实习/resband/resistance_band/LIB\libCH57xBLE.a(gattservapp.o)
                0x0000000000007416                GATTServApp_WriteCharCfg
 .text.GATTServApp_ProcessCCCWriteReq
                0x0000000000007452       0x5c d:/BaiduSyncdisk/Edith/墨小孔实习/resband/resistance_band/LIB\libCH57xBLE.a(gattservapp.o)
                0x0000000000007452                GATTServApp_ProcessCCCWriteReq
 .text.gattServApp_WriteAttrCB
                0x00000000000074ae       0x34 d:/BaiduSyncdisk/Edith/墨小孔实习/resband/resistance_band/LIB\libCH57xBLE.a(gattservapp.o)
                0x00000000000074ae                gattServApp_WriteAttrCB
 .text.GATTServApp_SendCCCUpdatedEvent
                0x00000000000074e2       0x5e d:/BaiduSyncdisk/Edith/墨小孔实习/resband/resistance_band/LIB\libCH57xBLE.a(gattservapp.o)
                0x00000000000074e2                GATTServApp_SendCCCUpdatedEvent
 .text.GATTServApp_SendServiceChangedInd
                0x0000000000007540       0x36 d:/BaiduSyncdisk/Edith/墨小孔实习/resband/resistance_band/LIB\libCH57xBLE.a(gattservapp.o)
                0x0000000000007540                GATTServApp_SendServiceChangedInd
 .text.gattServApp_ClearPrepareWriteQ
                0x0000000000007576       0x4c d:/BaiduSyncdisk/Edith/墨小孔实习/resband/resistance_band/LIB\libCH57xBLE.a(gattservapp.o)
                0x0000000000007576                gattServApp_ClearPrepareWriteQ
 .text.gattServApp_FindPrepareWriteQ
                0x00000000000075c2       0x2c d:/BaiduSyncdisk/Edith/墨小孔实习/resband/resistance_band/LIB\libCH57xBLE.a(gattservapp.o)
                0x00000000000075c2                gattServApp_FindPrepareWriteQ
 .text.gattServApp_FindServiceCBs
                0x00000000000075ee       0x18 d:/BaiduSyncdisk/Edith/墨小孔实习/resband/resistance_band/LIB\libCH57xBLE.a(gattservapp.o)
                0x00000000000075ee                gattServApp_FindServiceCBs
 .text.gattServApp_FindAuthorizeAttrCB
                0x0000000000007606       0x14 d:/BaiduSyncdisk/Edith/墨小孔实习/resband/resistance_band/LIB\libCH57xBLE.a(gattservapp.o)
                0x0000000000007606                gattServApp_FindAuthorizeAttrCB
 .text.gattServApp_IsWriteLong
                0x000000000000761a       0xe6 d:/BaiduSyncdisk/Edith/墨小孔实习/resband/resistance_band/LIB\libCH57xBLE.a(gattservapp.o)
                0x000000000000761a                gattServApp_IsWriteLong
 .text.gattFindService
                0x0000000000007700       0x1c d:/BaiduSyncdisk/Edith/墨小孔实习/resband/resistance_band/LIB\libCH57xBLE.a(gattservapp.o)
                0x0000000000007700                gattFindService
 .text.GATT_ServiceNumAttrs
                0x000000000000771c       0x16 d:/BaiduSyncdisk/Edith/墨小孔实习/resband/resistance_band/LIB\libCH57xBLE.a(gattservapp.o)
                0x000000000000771c                GATT_ServiceNumAttrs
 .text.GATT_ServiceEncKeySize
                0x0000000000007732       0x16 d:/BaiduSyncdisk/Edith/墨小孔实习/resband/resistance_band/LIB\libCH57xBLE.a(gattservapp.o)
                0x0000000000007732                GATT_ServiceEncKeySize
 .text.GATT_VerifyWritePermissions.part.7
                0x0000000000007748       0x2c d:/BaiduSyncdisk/Edith/墨小孔实习/resband/resistance_band/LIB\libCH57xBLE.a(gattservapp.o)
 .text.gattResetServerInfo
                0x0000000000007774       0x1c d:/BaiduSyncdisk/Edith/墨小孔实习/resband/resistance_band/LIB\libCH57xBLE.a(gattservapp.o)
                0x0000000000007774                gattResetServerInfo
 .text.gattFindServerInfo
                0x0000000000007790       0x28 d:/BaiduSyncdisk/Edith/墨小孔实习/resband/resistance_band/LIB\libCH57xBLE.a(gattservapp.o)
                0x0000000000007790                gattFindServerInfo
 .text.gattServerHandleConnStatusCB
                0x00000000000077b8       0x96 d:/BaiduSyncdisk/Edith/墨小孔实习/resband/resistance_band/LIB\libCH57xBLE.a(gattservapp.o)
                0x00000000000077b8                gattServerHandleConnStatusCB
 .text.gattServerProcessMsgCB
                0x000000000000784e      0x1c0 d:/BaiduSyncdisk/Edith/墨小孔实习/resband/resistance_band/LIB\libCH57xBLE.a(gattservapp.o)
                0x000000000000784e                gattServerProcessMsgCB
 .text.gattServerNotifyTxCB
                0x0000000000007a0e       0x28 d:/BaiduSyncdisk/Edith/墨小孔实习/resband/resistance_band/LIB\libCH57xBLE.a(gattservapp.o)
 .text.GATT_FindHandle
                0x0000000000007a36       0x4a d:/BaiduSyncdisk/Edith/墨小孔实习/resband/resistance_band/LIB\libCH57xBLE.a(gattservapp.o)
                0x0000000000007a36                GATT_FindHandle
 .text.GATTServApp_WriteAttr
                0x0000000000007a80       0xa8 d:/BaiduSyncdisk/Edith/墨小孔实习/resband/resistance_band/LIB\libCH57xBLE.a(gattservapp.o)
                0x0000000000007a80                GATTServApp_WriteAttr
 .text.gattServApp_ProcessExecuteWriteReq
                0x0000000000007b28      0x100 d:/BaiduSyncdisk/Edith/墨小孔实习/resband/resistance_band/LIB\libCH57xBLE.a(gattservapp.o)
                0x0000000000007b28                gattServApp_ProcessExecuteWriteReq
 .text.GATTServApp_UpdateCharCfg
                0x0000000000007c28       0x1e d:/BaiduSyncdisk/Edith/墨小孔实习/resband/resistance_band/LIB\libCH57xBLE.a(gattservapp.o)
                0x0000000000007c28                GATTServApp_UpdateCharCfg
 .text.gattServApp_ProcessPrepareWriteReq
                0x0000000000007c46      0x10e d:/BaiduSyncdisk/Edith/墨小孔实习/resband/resistance_band/LIB\libCH57xBLE.a(gattservapp.o)
                0x0000000000007c46                gattServApp_ProcessPrepareWriteReq
 .text.gattServApp_ProcessWriteReq
                0x0000000000007d54       0xb0 d:/BaiduSyncdisk/Edith/墨小孔实习/resband/resistance_band/LIB\libCH57xBLE.a(gattservapp.o)
                0x0000000000007d54                gattServApp_ProcessWriteReq
 .text.GATT_Indication
                0x0000000000007e04       0xa4 d:/BaiduSyncdisk/Edith/墨小孔实习/resband/resistance_band/LIB\libCH57xBLE.a(gattservapp.o)
                0x0000000000007e04                GATT_Indication
 .text.GATT_FindHandleUUID
                0x0000000000007ea8       0x94 d:/BaiduSyncdisk/Edith/墨小孔实习/resband/resistance_band/LIB\libCH57xBLE.a(gattservapp.o)
                0x0000000000007ea8                GATT_FindHandleUUID
 .text.gattProcessReadByGrpTypeReq
                0x0000000000007f3c       0x60 d:/BaiduSyncdisk/Edith/墨小孔实习/resband/resistance_band/LIB\libCH57xBLE.a(gattservapp.o)
 .text.gattProcessReadByTypeReq
                0x0000000000007f9c       0x34 d:/BaiduSyncdisk/Edith/墨小孔实习/resband/resistance_band/LIB\libCH57xBLE.a(gattservapp.o)
 .text.gattProcessFindByTypeValueReq
                0x0000000000007fd0       0x34 d:/BaiduSyncdisk/Edith/墨小孔实习/resband/resistance_band/LIB\libCH57xBLE.a(gattservapp.o)
 .text.gattProcessFindInfoReq
                0x0000000000008004      0x1aa d:/BaiduSyncdisk/Edith/墨小孔实习/resband/resistance_band/LIB\libCH57xBLE.a(gattservapp.o)
 .text.GATT_Notification
                0x00000000000081ae       0x70 d:/BaiduSyncdisk/Edith/墨小孔实习/resband/resistance_band/LIB\libCH57xBLE.a(gattservapp.o)
                0x00000000000081ae                GATT_Notification
 .text.GATT_VerifyWritePermissions
                0x000000000000821e       0x6a d:/BaiduSyncdisk/Edith/墨小孔实习/resband/resistance_band/LIB\libCH57xBLE.a(gattservapp.o)
                0x000000000000821e                GATT_VerifyWritePermissions
 .text.gattProcessWriteReq
                0x0000000000008288       0x36 d:/BaiduSyncdisk/Edith/墨小孔实习/resband/resistance_band/LIB\libCH57xBLE.a(gattservapp.o)
 .text.GATT_VerifyPrepareWritePermissions
                0x00000000000082be       0x56 d:/BaiduSyncdisk/Edith/墨小孔实习/resband/resistance_band/LIB\libCH57xBLE.a(gattservapp.o)
                0x00000000000082be                GATT_VerifyPrepareWritePermissions
 .text.gattProcessPrepareWriteReq
                0x0000000000008314       0x36 d:/BaiduSyncdisk/Edith/墨小孔实习/resband/resistance_band/LIB\libCH57xBLE.a(gattservapp.o)
 .text.GATT_FindNextAttr
                0x000000000000834a       0xc2 d:/BaiduSyncdisk/Edith/墨小孔实习/resband/resistance_band/LIB\libCH57xBLE.a(gattservapp.o)
                0x000000000000834a                GATT_FindNextAttr
 .text.GATTServApp_ReadAttr
                0x000000000000840c      0x2e2 d:/BaiduSyncdisk/Edith/墨小孔实习/resband/resistance_band/LIB\libCH57xBLE.a(gattservapp.o)
                0x000000000000840c                GATTServApp_ReadAttr
 .text.gattServApp_ProcessReadMultiReq
                0x00000000000086ee      0x16e d:/BaiduSyncdisk/Edith/墨小孔实习/resband/resistance_band/LIB\libCH57xBLE.a(gattservapp.o)
                0x00000000000086ee                gattServApp_ProcessReadMultiReq
 .text.gattServApp_ProcessFindByTypeValueReq
                0x000000000000885c      0x19c d:/BaiduSyncdisk/Edith/墨小孔实习/resband/resistance_band/LIB\libCH57xBLE.a(gattservapp.o)
                0x000000000000885c                gattServApp_ProcessFindByTypeValueReq
 .text.GATT_VerifyReadPermissions
                0x00000000000089f8       0x68 d:/BaiduSyncdisk/Edith/墨小孔实习/resband/resistance_band/LIB\libCH57xBLE.a(gattservapp.o)
                0x00000000000089f8                GATT_VerifyReadPermissions
 .text.gattProcessReadMultiReq
                0x0000000000008a60       0xae d:/BaiduSyncdisk/Edith/墨小孔实习/resband/resistance_band/LIB\libCH57xBLE.a(gattservapp.o)
 .text.gattProcessReadReq
                0x0000000000008b0e       0x30 d:/BaiduSyncdisk/Edith/墨小孔实习/resband/resistance_band/LIB\libCH57xBLE.a(gattservapp.o)
 .text.gattServApp_ProcessReadByGrpTypeReq
                0x0000000000008b3e      0x21c d:/BaiduSyncdisk/Edith/墨小孔实习/resband/resistance_band/LIB\libCH57xBLE.a(gattservapp.o)
                0x0000000000008b3e                gattServApp_ProcessReadByGrpTypeReq
 .text.gattServApp_ProcessReadByTypeReq
                0x0000000000008d5a      0x1ae d:/BaiduSyncdisk/Edith/墨小孔实习/resband/resistance_band/LIB\libCH57xBLE.a(gattservapp.o)
                0x0000000000008d5a                gattServApp_ProcessReadByTypeReq
 .text.GATT_RegisterService
                0x0000000000008f08       0xfc d:/BaiduSyncdisk/Edith/墨小孔实习/resband/resistance_band/LIB\libCH57xBLE.a(gattservapp.o)
                0x0000000000008f08                GATT_RegisterService
 .text.GATTServApp_RegisterService
                0x0000000000009004       0x8a d:/BaiduSyncdisk/Edith/墨小孔实习/resband/resistance_band/LIB\libCH57xBLE.a(gattservapp.o)
                0x0000000000009004                GATTServApp_RegisterService
 .text.GATTServApp_AddService
                0x000000000000908e       0x2c d:/BaiduSyncdisk/Edith/墨小孔实习/resband/resistance_band/LIB\libCH57xBLE.a(gattservapp.o)
                0x000000000000908e                GATTServApp_AddService
 .text.GATTServApp_RegisterForMsg
                0x00000000000090ba        0x6 d:/BaiduSyncdisk/Edith/墨小孔实习/resband/resistance_band/LIB\libCH57xBLE.a(gattservapp.o)
                0x00000000000090ba                GATTServApp_RegisterForMsg
 .text.GATTServApp_InitCharCfg
                0x00000000000090c0       0x28 d:/BaiduSyncdisk/Edith/墨小孔实习/resband/resistance_band/LIB\libCH57xBLE.a(gattservapp.o)
                0x00000000000090c0                GATTServApp_InitCharCfg
 .text.gattServApp_HandleConnStatusCB
                0x00000000000090e8       0x74 d:/BaiduSyncdisk/Edith/墨小孔实习/resband/resistance_band/LIB\libCH57xBLE.a(gattservapp.o)
                0x00000000000090e8                gattServApp_HandleConnStatusCB
 .text.GATT_InitServer
                0x000000000000915c       0xf6 d:/BaiduSyncdisk/Edith/墨小孔实习/resband/resistance_band/LIB\libCH57xBLE.a(gattservapp.o)
                0x000000000000915c                GATT_InitServer
 .text.GATTServApp_Init
                0x0000000000009252       0x34 d:/BaiduSyncdisk/Edith/墨小孔实习/resband/resistance_band/LIB\libCH57xBLE.a(gattservapp.o)
                0x0000000000009252                GATTServApp_Init
 .text.GATTServApp_ProcessEvent
                0x0000000000009286      0x366 d:/BaiduSyncdisk/Edith/墨小孔实习/resband/resistance_band/LIB\libCH57xBLE.a(gattservapp.o)
                0x0000000000009286                GATTServApp_ProcessEvent
 .text.l2capAllocConnChannel
                0x00000000000095ec       0xd8 d:/BaiduSyncdisk/Edith/墨小孔实习/resband/resistance_band/LIB\libCH57xBLE.a(l2cap.o)
                0x00000000000095ec                l2capAllocConnChannel
 .text.l2capFindLocalCID
                0x00000000000096c4       0x2c d:/BaiduSyncdisk/Edith/墨小孔实习/resband/resistance_band/LIB\libCH57xBLE.a(l2cap.o)
                0x00000000000096c4                l2capFindLocalCID
 .text.l2capFindLocalId
                0x00000000000096f0       0x30 d:/BaiduSyncdisk/Edith/墨小孔实习/resband/resistance_band/LIB\libCH57xBLE.a(l2cap.o)
                0x00000000000096f0                l2capFindLocalId
 .text.l2capFindPsm
                0x0000000000009720       0x2c d:/BaiduSyncdisk/Edith/墨小孔实习/resband/resistance_band/LIB\libCH57xBLE.a(l2cap.o)
                0x0000000000009720                l2capFindPsm
 .text.l2capFindRemoteCID
                0x000000000000974c       0x3c d:/BaiduSyncdisk/Edith/墨小孔实习/resband/resistance_band/LIB\libCH57xBLE.a(l2cap.o)
                0x000000000000974c                l2capFindRemoteCID
 .text.l2capFreeChannel
                0x0000000000009788       0x4a d:/BaiduSyncdisk/Edith/墨小孔实习/resband/resistance_band/LIB\libCH57xBLE.a(l2cap.o)
                0x0000000000009788                l2capFreeChannel
 .text.l2capDisconnectChannel
                0x00000000000097d2       0x28 d:/BaiduSyncdisk/Edith/墨小孔实习/resband/resistance_band/LIB\libCH57xBLE.a(l2cap.o)
                0x00000000000097d2                l2capDisconnectChannel
 .text.l2capHandleTimerCB
                0x00000000000097fa       0x2c d:/BaiduSyncdisk/Edith/墨小孔实习/resband/resistance_band/LIB\libCH57xBLE.a(l2cap.o)
                0x00000000000097fa                l2capHandleTimerCB
 .text.l2capFreePendingPkt
                0x0000000000009826       0x58 d:/BaiduSyncdisk/Edith/墨小孔实习/resband/resistance_band/LIB\libCH57xBLE.a(l2cap.o)
                0x0000000000009826                l2capFreePendingPkt
 .text.l2capGetCoChannelInfo
                0x000000000000987e       0x7e d:/BaiduSyncdisk/Edith/墨小孔实习/resband/resistance_band/LIB\libCH57xBLE.a(l2cap.o)
                0x000000000000987e                l2capGetCoChannelInfo
 .text.l2capNumActiveChannnels
                0x00000000000098fc       0x44 d:/BaiduSyncdisk/Edith/墨小孔实习/resband/resistance_band/LIB\libCH57xBLE.a(l2cap.o)
                0x00000000000098fc                l2capNumActiveChannnels
 .text.l2capStartTimer
                0x0000000000009940       0x1a d:/BaiduSyncdisk/Edith/墨小孔实习/resband/resistance_band/LIB\libCH57xBLE.a(l2cap.o)
                0x0000000000009940                l2capStartTimer
 .text.l2capStopTimer
                0x000000000000995a       0x1e d:/BaiduSyncdisk/Edith/墨小孔实习/resband/resistance_band/LIB\libCH57xBLE.a(l2cap.o)
                0x000000000000995a                l2capStopTimer
 .text.l2capDisconnectAllChannels
                0x0000000000009978       0xdc d:/BaiduSyncdisk/Edith/墨小孔实习/resband/resistance_band/LIB\libCH57xBLE.a(l2cap.o)
                0x0000000000009978                l2capDisconnectAllChannels
 .text.l2capHandleConnStatusCB
                0x0000000000009a54       0x3c d:/BaiduSyncdisk/Edith/墨小孔实习/resband/resistance_band/LIB\libCH57xBLE.a(l2cap.o)
                0x0000000000009a54                l2capHandleConnStatusCB
 .text.l2capHandleRxError
                0x0000000000009a90        0x6 d:/BaiduSyncdisk/Edith/墨小孔实习/resband/resistance_band/LIB\libCH57xBLE.a(l2cap.o)
                0x0000000000009a90                l2capHandleRxError
 .text.L2CAP_GetMTU
                0x0000000000009a96        0x6 d:/BaiduSyncdisk/Edith/墨小孔实习/resband/resistance_band/LIB\libCH57xBLE.a(l2cap.o)
                0x0000000000009a96                L2CAP_GetMTU
 .text.L2CAP_HostNumCompletedPkts
                0x0000000000009a9c       0x28 d:/BaiduSyncdisk/Edith/墨小孔实习/resband/resistance_band/LIB\libCH57xBLE.a(l2cap.o)
                0x0000000000009a9c                L2CAP_HostNumCompletedPkts
 .text.L2CAP_ParseConnectReq
                0x0000000000009ac4       0x5e d:/BaiduSyncdisk/Edith/墨小孔实习/resband/resistance_band/LIB\libCH57xBLE.a(l2cap.o)
                0x0000000000009ac4                L2CAP_ParseConnectReq
 .text.L2CAP_ParseFlowCtrlCredit
                0x0000000000009b22       0x2e d:/BaiduSyncdisk/Edith/墨小孔实习/resband/resistance_band/LIB\libCH57xBLE.a(l2cap.o)
                0x0000000000009b22                L2CAP_ParseFlowCtrlCredit
 .text.L2CAP_RegisterApp
                0x0000000000009b50       0x30 d:/BaiduSyncdisk/Edith/墨小孔实习/resband/resistance_band/LIB\libCH57xBLE.a(l2cap.o)
                0x0000000000009b50                L2CAP_RegisterApp
 .text.L2CAP_SetBufSize
                0x0000000000009b80       0x1e d:/BaiduSyncdisk/Edith/墨小孔实习/resband/resistance_band/LIB\libCH57xBLE.a(l2cap.o)
                0x0000000000009b80                L2CAP_SetBufSize
 .text.L2CAP_bm_alloc
                0x0000000000009b9e       0x30 d:/BaiduSyncdisk/Edith/墨小孔实习/resband/resistance_band/LIB\libCH57xBLE.a(l2cap.o)
                0x0000000000009b9e                L2CAP_bm_alloc
 .text.L2CAP_Init
                0x0000000000009bce      0x12e d:/BaiduSyncdisk/Edith/墨小孔实习/resband/resistance_band/LIB\libCH57xBLE.a(l2cap.o)
                0x0000000000009bce                L2CAP_Init
 .text.L2CAP_ProcessEvent
                0x0000000000009cfc       0xc8 d:/BaiduSyncdisk/Edith/墨小孔实习/resband/resistance_band/LIB\libCH57xBLE.a(l2cap.o)
                0x0000000000009cfc                L2CAP_ProcessEvent
 .text.l2capParseCmdReject
                0x0000000000009dc4       0x5e d:/BaiduSyncdisk/Edith/墨小孔实习/resband/resistance_band/LIB\libCH57xBLE.a(l2cap_input.o)
                0x0000000000009dc4                l2capParseCmdReject
 .text.l2capParseDisconnectReq
                0x0000000000009e22       0x2e d:/BaiduSyncdisk/Edith/墨小孔实习/resband/resistance_band/LIB\libCH57xBLE.a(l2cap_input.o)
                0x0000000000009e22                l2capParseDisconnectReq
 .text.l2capParseDisconnectRsp
                0x0000000000009e50       0x2e d:/BaiduSyncdisk/Edith/墨小孔实习/resband/resistance_band/LIB\libCH57xBLE.a(l2cap_input.o)
                0x0000000000009e50                l2capParseDisconnectRsp
 .text.L2CAP_ParseParamUpdateReq
                0x0000000000009e7e       0x4e d:/BaiduSyncdisk/Edith/墨小孔实习/resband/resistance_band/LIB\libCH57xBLE.a(l2cap_input.o)
                0x0000000000009e7e                L2CAP_ParseParamUpdateReq
 .text.l2capParseParamUpdateRsp
                0x0000000000009ecc       0x1e d:/BaiduSyncdisk/Edith/墨小孔实习/resband/resistance_band/LIB\libCH57xBLE.a(l2cap_input.o)
                0x0000000000009ecc                l2capParseParamUpdateRsp
 .text.l2capProcessConnectReq
                0x0000000000009eea       0xfc d:/BaiduSyncdisk/Edith/墨小孔实习/resband/resistance_band/LIB\libCH57xBLE.a(l2cap_input.o)
                0x0000000000009eea                l2capProcessConnectReq
 .text.l2capParseConnectRsp
                0x0000000000009fe6       0x5e d:/BaiduSyncdisk/Edith/墨小孔实习/resband/resistance_band/LIB\libCH57xBLE.a(l2cap_input.o)
                0x0000000000009fe6                l2capParseConnectRsp
 .text.l2capParseSignalHdr
                0x000000000000a044       0x22 d:/BaiduSyncdisk/Edith/墨小孔实习/resband/resistance_band/LIB\libCH57xBLE.a(l2cap_input.o)
                0x000000000000a044                l2capParseSignalHdr
 .text.l2capParsePacket
                0x000000000000a066       0x8c d:/BaiduSyncdisk/Edith/墨小孔实习/resband/resistance_band/LIB\libCH57xBLE.a(l2cap_input.o)
                0x000000000000a066                l2capParsePacket
 .text.l2capProcessReq
                0x000000000000a0f2      0x15a d:/BaiduSyncdisk/Edith/墨小孔实习/resband/resistance_band/LIB\libCH57xBLE.a(l2cap_input.o)
                0x000000000000a0f2                l2capProcessReq
 .text.l2capProcessRsp
                0x000000000000a24c      0x150 d:/BaiduSyncdisk/Edith/墨小孔实习/resband/resistance_band/LIB\libCH57xBLE.a(l2cap_input.o)
                0x000000000000a24c                l2capProcessRsp
 .text.l2capProcessRxData
                0x000000000000a39c       0xf8 d:/BaiduSyncdisk/Edith/墨小孔实习/resband/resistance_band/LIB\libCH57xBLE.a(l2cap_input.o)
                0x000000000000a39c                l2capProcessRxData
 .text.l2capNotifyData
                0x000000000000a494       0x5a d:/BaiduSyncdisk/Edith/墨小孔实习/resband/resistance_band/LIB\libCH57xBLE.a(l2cap_output.o)
                0x000000000000a494                l2capNotifyData
 .text.l2capNotifySignal
                0x000000000000a4ee       0x76 d:/BaiduSyncdisk/Edith/墨小孔实习/resband/resistance_band/LIB\libCH57xBLE.a(l2cap_output.o)
                0x000000000000a4ee                l2capNotifySignal
 .text.l2capNotifyCreditEvt
                0x000000000000a564       0x9c d:/BaiduSyncdisk/Edith/墨小孔实习/resband/resistance_band/LIB\libCH57xBLE.a(l2cap_output.o)
                0x000000000000a564                l2capNotifyCreditEvt
 .text.l2capNotifyChannelEstEvt
                0x000000000000a600       0x58 d:/BaiduSyncdisk/Edith/墨小孔实习/resband/resistance_band/LIB\libCH57xBLE.a(l2cap_output.o)
                0x000000000000a600                l2capNotifyChannelEstEvt
 .text.l2capNotifyChannelTermEvt
                0x000000000000a658       0x3e d:/BaiduSyncdisk/Edith/墨小孔实习/resband/resistance_band/LIB\libCH57xBLE.a(l2cap_output.o)
                0x000000000000a658                l2capNotifyChannelTermEvt
 .text.l2capNotifyEvent
                0x000000000000a696       0x66 d:/BaiduSyncdisk/Edith/墨小孔实习/resband/resistance_band/LIB\libCH57xBLE.a(l2cap_output.o)
                0x000000000000a696                l2capNotifyEvent
 .text.l2capStoreFCPkt
                0x000000000000a6fc       0x32 d:/BaiduSyncdisk/Edith/墨小孔实习/resband/resistance_band/LIB\libCH57xBLE.a(l2cap_output.o)
                0x000000000000a6fc                l2capStoreFCPkt
 .text.l2capFreeTxSDU
                0x000000000000a72e       0x9a d:/BaiduSyncdisk/Edith/墨小孔实习/resband/resistance_band/LIB\libCH57xBLE.a(l2cap_output.o)
                0x000000000000a72e                l2capFreeTxSDU
 .text.l2capReassembleSegment
                0x000000000000a7c8      0x174 d:/BaiduSyncdisk/Edith/墨小孔实习/resband/resistance_band/LIB\libCH57xBLE.a(l2cap_output.o)
                0x000000000000a7c8                l2capReassembleSegment
 .text.l2capEncapSendData
                0x000000000000a93c       0xec d:/BaiduSyncdisk/Edith/墨小孔实习/resband/resistance_band/LIB\libCH57xBLE.a(l2cap_output.o)
                0x000000000000a93c                l2capEncapSendData
 .text.l2capSendFCPkt.part.3
                0x000000000000aa28       0x70 d:/BaiduSyncdisk/Edith/墨小孔实习/resband/resistance_band/LIB\libCH57xBLE.a(l2cap_output.o)
 .text.l2capSendSegment
                0x000000000000aa98      0x108 d:/BaiduSyncdisk/Edith/墨小孔实习/resband/resistance_band/LIB\libCH57xBLE.a(l2cap_output.o)
                0x000000000000aa98                l2capSendSegment
 .text.l2capSendNextSegment
                0x000000000000aba0       0xb4 d:/BaiduSyncdisk/Edith/墨小孔实习/resband/resistance_band/LIB\libCH57xBLE.a(l2cap_output.o)
                0x000000000000aba0                l2capSendNextSegment
 .text.l2capSendPkt
                0x000000000000ac54       0x3a d:/BaiduSyncdisk/Edith/墨小孔实习/resband/resistance_band/LIB\libCH57xBLE.a(l2cap_output.o)
                0x000000000000ac54                l2capSendPkt
 .text.L2CAP_SendData
                0x000000000000ac8e       0x82 d:/BaiduSyncdisk/Edith/墨小孔实习/resband/resistance_band/LIB\libCH57xBLE.a(l2cap_output.o)
                0x000000000000ac8e                L2CAP_SendData
 .text.l2capSendCmd
                0x000000000000ad10       0x8a d:/BaiduSyncdisk/Edith/墨小孔实习/resband/resistance_band/LIB\libCH57xBLE.a(l2cap_output.o)
                0x000000000000ad10                l2capSendCmd
 .text.l2capSendReq
                0x000000000000ad9a       0xbc d:/BaiduSyncdisk/Edith/墨小孔实习/resband/resistance_band/LIB\libCH57xBLE.a(l2cap_output.o)
                0x000000000000ad9a                l2capSendReq
 .text.l2capBuildDisconnectReq
                0x000000000000ae56       0x28 d:/BaiduSyncdisk/Edith/墨小孔实习/resband/resistance_band/LIB\libCH57xBLE.a(l2cap_sdu.o)
 .text.l2capBuildParamUpdateReq
                0x000000000000ae7e       0x4c d:/BaiduSyncdisk/Edith/墨小孔实习/resband/resistance_band/LIB\libCH57xBLE.a(l2cap_sdu.o)
 .text.l2capBuildParamUpdateRsp
                0x000000000000aeca       0x16 d:/BaiduSyncdisk/Edith/墨小孔实习/resband/resistance_band/LIB\libCH57xBLE.a(l2cap_sdu.o)
 .text.l2capBuildConnectRsp
                0x000000000000aee0       0x5e d:/BaiduSyncdisk/Edith/墨小孔实习/resband/resistance_band/LIB\libCH57xBLE.a(l2cap_sdu.o)
 .text.l2capBuildCmdReject
                0x000000000000af3e       0x62 d:/BaiduSyncdisk/Edith/墨小孔实习/resband/resistance_band/LIB\libCH57xBLE.a(l2cap_sdu.o)
                0x000000000000af3e                l2capBuildCmdReject
 .text.l2capBuildDisconnectRsp
                0x000000000000afa0       0x28 d:/BaiduSyncdisk/Edith/墨小孔实习/resband/resistance_band/LIB\libCH57xBLE.a(l2cap_sdu.o)
                0x000000000000afa0                l2capBuildDisconnectRsp
 .text.l2capSendConnectRsp
                0x000000000000afc8       0xa2 d:/BaiduSyncdisk/Edith/墨小孔实习/resband/resistance_band/LIB\libCH57xBLE.a(l2cap_sdu.o)
                0x000000000000afc8                l2capSendConnectRsp
 .text.L2CAP_CmdReject
                0x000000000000b06a       0x12 d:/BaiduSyncdisk/Edith/墨小孔实习/resband/resistance_band/LIB\libCH57xBLE.a(l2cap_sdu.o)
                0x000000000000b06a                L2CAP_CmdReject
 .text.L2CAP_DisconnectReq
                0x000000000000b07c       0x2a d:/BaiduSyncdisk/Edith/墨小孔实习/resband/resistance_band/LIB\libCH57xBLE.a(l2cap_sdu.o)
                0x000000000000b07c                L2CAP_DisconnectReq
 .text.L2CAP_ConnParamUpdateReq
                0x000000000000b0a6       0x16 d:/BaiduSyncdisk/Edith/墨小孔实习/resband/resistance_band/LIB\libCH57xBLE.a(l2cap_sdu.o)
                0x000000000000b0a6                L2CAP_ConnParamUpdateReq
 .text.L2CAP_ConnParamUpdateRsp
                0x000000000000b0bc       0x12 d:/BaiduSyncdisk/Edith/墨小孔实习/resband/resistance_band/LIB\libCH57xBLE.a(l2cap_sdu.o)
                0x000000000000b0bc                L2CAP_ConnParamUpdateRsp
 .text.reportStatusChange
                0x000000000000b0ce       0x3e d:/BaiduSyncdisk/Edith/墨小孔实习/resband/resistance_band/LIB\libCH57xBLE.a(linkdb.o)
 .text.linkDB_Init
                0x000000000000b10c       0x88 d:/BaiduSyncdisk/Edith/墨小孔实习/resband/resistance_band/LIB\libCH57xBLE.a(linkdb.o)
                0x000000000000b10c                linkDB_Init
 .text.linkDB_Find
                0x000000000000b194       0x2c d:/BaiduSyncdisk/Edith/墨小孔实习/resband/resistance_band/LIB\libCH57xBLE.a(linkdb.o)
                0x000000000000b194                linkDB_Find
 .text.linkDB_Authen
                0x000000000000b1c0       0x5c d:/BaiduSyncdisk/Edith/墨小孔实习/resband/resistance_band/LIB\libCH57xBLE.a(linkdb.o)
                0x000000000000b1c0                linkDB_Authen
 .text.linkDB_FindByAddr
                0x000000000000b21c       0x76 d:/BaiduSyncdisk/Edith/墨小孔实习/resband/resistance_band/LIB\libCH57xBLE.a(linkdb.o)
                0x000000000000b21c                linkDB_FindByAddr
 .text.linkDB_FindFirst
                0x000000000000b292       0x38 d:/BaiduSyncdisk/Edith/墨小孔实习/resband/resistance_band/LIB\libCH57xBLE.a(linkdb.o)
                0x000000000000b292                linkDB_FindFirst
 .text.linkDB_MTU
                0x000000000000b2ca       0x18 d:/BaiduSyncdisk/Edith/墨小孔实习/resband/resistance_band/LIB\libCH57xBLE.a(linkdb.o)
                0x000000000000b2ca                linkDB_MTU
 .text.linkDB_NumActive
                0x000000000000b2e2       0x2e d:/BaiduSyncdisk/Edith/墨小孔实习/resband/resistance_band/LIB\libCH57xBLE.a(linkdb.o)
                0x000000000000b2e2                linkDB_NumActive
 .text.linkDB_NumConns
                0x000000000000b310        0x6 d:/BaiduSyncdisk/Edith/墨小孔实习/resband/resistance_band/LIB\libCH57xBLE.a(linkdb.o)
                0x000000000000b310                linkDB_NumConns
 .text.linkDB_Register
                0x000000000000b316       0x28 d:/BaiduSyncdisk/Edith/墨小孔实习/resband/resistance_band/LIB\libCH57xBLE.a(linkdb.o)
                0x000000000000b316                linkDB_Register
 .text.linkDB_Remove
                0x000000000000b33e       0x48 d:/BaiduSyncdisk/Edith/墨小孔实习/resband/resistance_band/LIB\libCH57xBLE.a(linkdb.o)
                0x000000000000b33e                linkDB_Remove
 .text.linkDB_Role
                0x000000000000b386       0x18 d:/BaiduSyncdisk/Edith/墨小孔实习/resband/resistance_band/LIB\libCH57xBLE.a(linkdb.o)
                0x000000000000b386                linkDB_Role
 .text.linkDB_State
                0x000000000000b39e       0x30 d:/BaiduSyncdisk/Edith/墨小孔实习/resband/resistance_band/LIB\libCH57xBLE.a(linkdb.o)
                0x000000000000b39e                linkDB_State
 .text.linkDB_UpdateMTU
                0x000000000000b3ce       0x28 d:/BaiduSyncdisk/Edith/墨小孔实习/resband/resistance_band/LIB\libCH57xBLE.a(linkdb.o)
                0x000000000000b3ce                linkDB_UpdateMTU
 .text.linkDB_PerformFunc
                0x000000000000b3f6       0x52 d:/BaiduSyncdisk/Edith/墨小孔实习/resband/resistance_band/LIB\libCH57xBLE.a(linkdb.o)
                0x000000000000b3f6                linkDB_PerformFunc
 .text.linkDB_PeripheralLinkNum
                0x000000000000b448       0x3e d:/BaiduSyncdisk/Edith/墨小孔实习/resband/resistance_band/LIB\libCH57xBLE.a(linkdb.o)
                0x000000000000b448                linkDB_PeripheralLinkNum
 .text.linkDB_GetSMEvtID
                0x000000000000b486       0x58 d:/BaiduSyncdisk/Edith/墨小孔实习/resband/resistance_band/LIB\libCH57xBLE.a(linkdb.o)
                0x000000000000b486                linkDB_GetSMEvtID
 .text.linkDB_Add
                0x000000000000b4de       0xb2 d:/BaiduSyncdisk/Edith/墨小孔实习/resband/resistance_band/LIB\libCH57xBLE.a(linkdb.o)
                0x000000000000b4de                linkDB_Add
 .text.linkDB_GetHandleFromSMEvtID
                0x000000000000b590       0x32 d:/BaiduSyncdisk/Edith/墨小孔实习/resband/resistance_band/LIB\libCH57xBLE.a(linkdb.o)
                0x000000000000b590                linkDB_GetHandleFromSMEvtID
 .text.linkDB_GetPairingParam
                0x000000000000b5c2       0x54 d:/BaiduSyncdisk/Edith/墨小孔实习/resband/resistance_band/LIB\libCH57xBLE.a(linkdb.o)
                0x000000000000b5c2                linkDB_GetPairingParam
 .text.linkDB_NeedSendKey
                0x000000000000b616       0x42 d:/BaiduSyncdisk/Edith/墨小孔实习/resband/resistance_band/LIB\libCH57xBLE.a(linkdb.o)
                0x000000000000b616                linkDB_NeedSendKey
 .text.smpBuildPairingFailed
                0x000000000000b658       0x1a d:/BaiduSyncdisk/Edith/墨小孔实习/resband/resistance_band/LIB\libCH57xBLE.a(sm.o)
                0x000000000000b658                smpBuildPairingFailed
 .text.SM_StartEncryption
                0x000000000000b672       0x98 d:/BaiduSyncdisk/Edith/墨小孔实习/resband/resistance_band/LIB\libCH57xBLE.a(sm.o)
                0x000000000000b672                SM_StartEncryption
 .text.smpBuildEncInfo
                0x000000000000b70a       0x30 d:/BaiduSyncdisk/Edith/墨小孔实习/resband/resistance_band/LIB\libCH57xBLE.a(sm.o)
                0x000000000000b70a                smpBuildEncInfo
 .text.smpBuildIdentityAddrInfo
                0x000000000000b73a       0x3a d:/BaiduSyncdisk/Edith/墨小孔实习/resband/resistance_band/LIB\libCH57xBLE.a(sm.o)
                0x000000000000b73a                smpBuildIdentityAddrInfo
 .text.smpBuildIdentityInfo
                0x000000000000b774       0x30 d:/BaiduSyncdisk/Edith/墨小孔实习/resband/resistance_band/LIB\libCH57xBLE.a(sm.o)
                0x000000000000b774                smpBuildIdentityInfo
 .text.smpBuildMasterID
                0x000000000000b7a4       0x44 d:/BaiduSyncdisk/Edith/墨小孔实习/resband/resistance_band/LIB\libCH57xBLE.a(sm.o)
                0x000000000000b7a4                smpBuildMasterID
 .text.smpBuildPairingConfirm
                0x000000000000b7e8       0x30 d:/BaiduSyncdisk/Edith/墨小孔实习/resband/resistance_band/LIB\libCH57xBLE.a(sm.o)
                0x000000000000b7e8                smpBuildPairingConfirm
 .text.smpBuildPairingRandom
                0x000000000000b818       0x30 d:/BaiduSyncdisk/Edith/墨小孔实习/resband/resistance_band/LIB\libCH57xBLE.a(sm.o)
                0x000000000000b818                smpBuildPairingRandom
 .text.smpBuildSigningInfo
                0x000000000000b848       0x30 d:/BaiduSyncdisk/Edith/墨小孔实习/resband/resistance_band/LIB\libCH57xBLE.a(sm.o)
                0x000000000000b848                smpBuildSigningInfo
 .text.SM_ParamInit
                0x000000000000b878       0x5a d:/BaiduSyncdisk/Edith/墨小孔实习/resband/resistance_band/LIB\libCH57xBLE.a(sm.o)
                0x000000000000b878                SM_ParamInit
 .text.smDetermineKeySize
                0x000000000000b8d2       0x20 d:/BaiduSyncdisk/Edith/墨小孔实习/resband/resistance_band/LIB\libCH57xBLE.a(sm.o)
                0x000000000000b8d2                smDetermineKeySize
 .text.smProcessRandComplete
                0x000000000000b8f2       0x9e d:/BaiduSyncdisk/Edith/墨小孔实习/resband/resistance_band/LIB\libCH57xBLE.a(sm.o)
                0x000000000000b8f2                smProcessRandComplete
 .text.smSavePairInfo
                0x000000000000b990      0x186 d:/BaiduSyncdisk/Edith/墨小孔实习/resband/resistance_band/LIB\libCH57xBLE.a(sm.o)
                0x000000000000b990                smSavePairInfo
 .text.smSetPairingReqRsp
                0x000000000000bb16       0x38 d:/BaiduSyncdisk/Edith/墨小孔实习/resband/resistance_band/LIB\libCH57xBLE.a(sm.o)
                0x000000000000bb16                smSetPairingReqRsp
 .text.smStartEncryption
                0x000000000000bb4e       0x16 d:/BaiduSyncdisk/Edith/墨小孔实习/resband/resistance_band/LIB\libCH57xBLE.a(sm.o)
                0x000000000000bb4e                smStartEncryption
 .text.smStartRspTimer
                0x000000000000bb64       0x36 d:/BaiduSyncdisk/Edith/墨小孔实习/resband/resistance_band/LIB\libCH57xBLE.a(sm.o)
                0x000000000000bb64                smStartRspTimer
 .text.smSendSMMsg
                0x000000000000bb9a       0x5c d:/BaiduSyncdisk/Edith/墨小孔实习/resband/resistance_band/LIB\libCH57xBLE.a(sm.o)
                0x000000000000bb9a                smSendSMMsg
 .text.smGenerateConfirm
                0x000000000000bbf6       0x34 d:/BaiduSyncdisk/Edith/墨小孔实习/resband/resistance_band/LIB\libCH57xBLE.a(sm.o)
                0x000000000000bbf6                smGenerateConfirm
 .text.smGenerateRandMsg
                0x000000000000bc2a       0x34 d:/BaiduSyncdisk/Edith/墨小孔实习/resband/resistance_band/LIB\libCH57xBLE.a(sm.o)
                0x000000000000bc2a                smGenerateRandMsg
 .text.smPairingSendEncInfo
                0x000000000000bc5e       0x10 d:/BaiduSyncdisk/Edith/墨小孔实习/resband/resistance_band/LIB\libCH57xBLE.a(sm.o)
                0x000000000000bc5e                smPairingSendEncInfo
 .text.smPairingSendIdentityAddrInfo
                0x000000000000bc6e       0x38 d:/BaiduSyncdisk/Edith/墨小孔实习/resband/resistance_band/LIB\libCH57xBLE.a(sm.o)
                0x000000000000bc6e                smPairingSendIdentityAddrInfo
 .text.smPairingSendIdentityInfo
                0x000000000000bca6       0x10 d:/BaiduSyncdisk/Edith/墨小孔实习/resband/resistance_band/LIB\libCH57xBLE.a(sm.o)
                0x000000000000bca6                smPairingSendIdentityInfo
 .text.smPairingSendMasterID
                0x000000000000bcb6       0x38 d:/BaiduSyncdisk/Edith/墨小孔实习/resband/resistance_band/LIB\libCH57xBLE.a(sm.o)
                0x000000000000bcb6                smPairingSendMasterID
 .text.smPairingSendSingingInfo
                0x000000000000bcee       0x10 d:/BaiduSyncdisk/Edith/墨小孔实习/resband/resistance_band/LIB\libCH57xBLE.a(sm.o)
                0x000000000000bcee                smPairingSendSingingInfo
 .text.smInitiatorSendNextKeyInfo
                0x000000000000bcfe      0x1c2 d:/BaiduSyncdisk/Edith/墨小孔实习/resband/resistance_band/LIB\libCH57xBLE.a(sm.o)
                0x000000000000bcfe                smInitiatorSendNextKeyInfo
 .text.smResponderSendNextKeyInfo
                0x000000000000bec0      0x216 d:/BaiduSyncdisk/Edith/墨小孔实习/resband/resistance_band/LIB\libCH57xBLE.a(sm.o)
                0x000000000000bec0                smResponderSendNextKeyInfo
 .text.smGeneratePairingReqRsp
                0x000000000000c0d6       0x3e d:/BaiduSyncdisk/Edith/墨小孔实习/resband/resistance_band/LIB\libCH57xBLE.a(sm.o)
                0x000000000000c0d6                smGeneratePairingReqRsp
 .text.smStopRspTimer
                0x000000000000c114        0xa d:/BaiduSyncdisk/Edith/墨小孔实习/resband/resistance_band/LIB\libCH57xBLE.a(sm.o)
                0x000000000000c114                smStopRspTimer
 .text.smFreePairingParams
                0x000000000000c11e       0x68 d:/BaiduSyncdisk/Edith/墨小孔实习/resband/resistance_band/LIB\libCH57xBLE.a(sm.o)
                0x000000000000c11e                smFreePairingParams
 .text.smEndPairing
                0x000000000000c186       0x5c d:/BaiduSyncdisk/Edith/墨小孔实习/resband/resistance_band/LIB\libCH57xBLE.a(sm.o)
                0x000000000000c186                smEndPairing
 .text.setupInitiatorKeys
                0x000000000000c1e2       0x82 d:/BaiduSyncdisk/Edith/墨小孔实习/resband/resistance_band/LIB\libCH57xBLE.a(sm.o)
                0x000000000000c1e2                setupInitiatorKeys
 .text.smNextPairingState
                0x000000000000c264       0x56 d:/BaiduSyncdisk/Edith/墨小孔实习/resband/resistance_band/LIB\libCH57xBLE.a(sm.o)
                0x000000000000c264                smNextPairingState
 .text.smProcessEncryptChange
                0x000000000000c2ba       0xde d:/BaiduSyncdisk/Edith/墨小孔实习/resband/resistance_band/LIB\libCH57xBLE.a(sm.o)
                0x000000000000c2ba                smProcessEncryptChange
 .text.smSendFailAndEnd
                0x000000000000c398       0x38 d:/BaiduSyncdisk/Edith/墨小孔实习/resband/resistance_band/LIB\libCH57xBLE.a(sm.o)
                0x000000000000c398                smSendFailAndEnd
 .text.smProcessPairingReq
                0x000000000000c3d0       0x3c d:/BaiduSyncdisk/Edith/墨小孔实习/resband/resistance_band/LIB\libCH57xBLE.a(sm.o)
                0x000000000000c3d0                smProcessPairingReq
 .text.smLinkCheck
                0x000000000000c40c       0x34 d:/BaiduSyncdisk/Edith/墨小孔实习/resband/resistance_band/LIB\libCH57xBLE.a(sm.o)
                0x000000000000c40c                smLinkCheck
 .text.smTimedOut
                0x000000000000c440       0x20 d:/BaiduSyncdisk/Edith/墨小孔实习/resband/resistance_band/LIB\libCH57xBLE.a(sm.o)
                0x000000000000c440                smTimedOut
 .text.smUint8ToAuthReq
                0x000000000000c460        0x6 d:/BaiduSyncdisk/Edith/墨小孔实习/resband/resistance_band/LIB\libCH57xBLE.a(sm.o)
                0x000000000000c460                smUint8ToAuthReq
 .text.sm_ah    0x000000000000c466       0x80 d:/BaiduSyncdisk/Edith/墨小孔实习/resband/resistance_band/LIB\libCH57xBLE.a(sm.o)
                0x000000000000c466                sm_ah
 .text.sm_xor   0x000000000000c4e6       0x24 d:/BaiduSyncdisk/Edith/墨小孔实习/resband/resistance_band/LIB\libCH57xBLE.a(sm.o)
                0x000000000000c4e6                sm_xor
 .text.sm_c1new
                0x000000000000c50a      0x11c d:/BaiduSyncdisk/Edith/墨小孔实习/resband/resistance_band/LIB\libCH57xBLE.a(sm.o)
                0x000000000000c50a                sm_c1new
 .text.sm_s1    0x000000000000c626       0x86 d:/BaiduSyncdisk/Edith/墨小孔实习/resband/resistance_band/LIB\libCH57xBLE.a(sm.o)
                0x000000000000c626                sm_s1
 .text.smResponderProcessLTKReq
                0x000000000000c6ac      0x1e6 d:/BaiduSyncdisk/Edith/墨小孔实习/resband/resistance_band/LIB\libCH57xBLE.a(sm.o)
                0x000000000000c6ac                smResponderProcessLTKReq
 .text.xor_128  0x000000000000c892       0x28 d:/BaiduSyncdisk/Edith/墨小孔实习/resband/resistance_band/LIB\libCH57xBLE.a(sm.o)
                0x000000000000c892                xor_128
 .text.leftshift_onebit
                0x000000000000c8ba       0x2e d:/BaiduSyncdisk/Edith/墨小孔实习/resband/resistance_band/LIB\libCH57xBLE.a(sm.o)
                0x000000000000c8ba                leftshift_onebit
 .text.padding  0x000000000000c8e8       0x38 d:/BaiduSyncdisk/Edith/墨小孔实习/resband/resistance_band/LIB\libCH57xBLE.a(sm.o)
                0x000000000000c8e8                padding
 .text.generate_subkey
                0x000000000000c920       0xd0 d:/BaiduSyncdisk/Edith/墨小孔实习/resband/resistance_band/LIB\libCH57xBLE.a(sm.o)
                0x000000000000c920                generate_subkey
 .text.sm_CMAC  0x000000000000c9f0      0x16e d:/BaiduSyncdisk/Edith/墨小孔实习/resband/resistance_band/LIB\libCH57xBLE.a(sm.o)
                0x000000000000c9f0                sm_CMAC
 .text.smpBuildPairingReqRsp
                0x000000000000cb5e       0xc6 d:/BaiduSyncdisk/Edith/墨小孔实习/resband/resistance_band/LIB\libCH57xBLE.a(sm.o)
                0x000000000000cb5e                smpBuildPairingReqRsp
 .text.smpBuildPairingReq
                0x000000000000cc24        0xa d:/BaiduSyncdisk/Edith/墨小孔实习/resband/resistance_band/LIB\libCH57xBLE.a(sm.o)
                0x000000000000cc24                smpBuildPairingReq
 .text.smpBuildPairingRsp
                0x000000000000cc2e        0xa d:/BaiduSyncdisk/Edith/墨小孔实习/resband/resistance_band/LIB\libCH57xBLE.a(sm.o)
                0x000000000000cc2e                smpBuildPairingRsp
 .text.sm_c1    0x000000000000cc38       0xb4 d:/BaiduSyncdisk/Edith/墨小孔实习/resband/resistance_band/LIB\libCH57xBLE.a(sm.o)
                0x000000000000cc38                sm_c1
 .text.smpBuildSecurityReq
                0x000000000000ccec       0x1a d:/BaiduSyncdisk/Edith/墨小孔实习/resband/resistance_band/LIB\libCH57xBLE.a(sm.o)
                0x000000000000ccec                smpBuildSecurityReq
 .text.smpInitiatorProcessPairingRsp
                0x000000000000cd06      0x116 d:/BaiduSyncdisk/Edith/墨小孔实习/resband/resistance_band/LIB\libCH57xBLE.a(sm.o)
                0x000000000000cd06                smpInitiatorProcessPairingRsp
 .text.smpInitiatorProcessIncoming
                0x000000000000ce1c      0x23e d:/BaiduSyncdisk/Edith/墨小孔实习/resband/resistance_band/LIB\libCH57xBLE.a(sm.o)
                0x000000000000ce1c                smpInitiatorProcessIncoming
 .text.smpParseEncInfo
                0x000000000000d05a       0x2a d:/BaiduSyncdisk/Edith/墨小孔实习/resband/resistance_band/LIB\libCH57xBLE.a(sm.o)
                0x000000000000d05a                smpParseEncInfo
 .text.smpParseIdentityAddrInfo
                0x000000000000d084       0x34 d:/BaiduSyncdisk/Edith/墨小孔实习/resband/resistance_band/LIB\libCH57xBLE.a(sm.o)
                0x000000000000d084                smpParseIdentityAddrInfo
 .text.smpParseIdentityInfo
                0x000000000000d0b8       0x2a d:/BaiduSyncdisk/Edith/墨小孔实习/resband/resistance_band/LIB\libCH57xBLE.a(sm.o)
                0x000000000000d0b8                smpParseIdentityInfo
 .text.smpParseMasterID
                0x000000000000d0e2       0x3c d:/BaiduSyncdisk/Edith/墨小孔实习/resband/resistance_band/LIB\libCH57xBLE.a(sm.o)
                0x000000000000d0e2                smpParseMasterID
 .text.smpParsePairingConfirm
                0x000000000000d11e       0x2a d:/BaiduSyncdisk/Edith/墨小孔实习/resband/resistance_band/LIB\libCH57xBLE.a(sm.o)
                0x000000000000d11e                smpParsePairingConfirm
 .text.smpParsePairingFailed
                0x000000000000d148       0x22 d:/BaiduSyncdisk/Edith/墨小孔实习/resband/resistance_band/LIB\libCH57xBLE.a(sm.o)
                0x000000000000d148                smpParsePairingFailed
 .text.smpParsePairingRandom
                0x000000000000d16a       0x2a d:/BaiduSyncdisk/Edith/墨小孔实习/resband/resistance_band/LIB\libCH57xBLE.a(sm.o)
                0x000000000000d16a                smpParsePairingRandom
 .text.smpParsePairingReq
                0x000000000000d194      0x118 d:/BaiduSyncdisk/Edith/墨小孔实习/resband/resistance_band/LIB\libCH57xBLE.a(sm.o)
                0x000000000000d194                smpParsePairingReq
 .text.smpParseSigningInfo
                0x000000000000d2ac       0x2a d:/BaiduSyncdisk/Edith/墨小孔实习/resband/resistance_band/LIB\libCH57xBLE.a(sm.o)
                0x000000000000d2ac                smpParseSigningInfo
 .text.smProcessDataMsg
                0x000000000000d2d6       0xec d:/BaiduSyncdisk/Edith/墨小孔实习/resband/resistance_band/LIB\libCH57xBLE.a(sm.o)
                0x000000000000d2d6                smProcessDataMsg
 .text.smProcessTMOSMsg
                0x000000000000d3c2       0xd4 d:/BaiduSyncdisk/Edith/墨小孔实习/resband/resistance_band/LIB\libCH57xBLE.a(sm.o)
                0x000000000000d3c2                smProcessTMOSMsg
 .text.smpResponderProcessPairingReq
                0x000000000000d496       0xd6 d:/BaiduSyncdisk/Edith/墨小孔实习/resband/resistance_band/LIB\libCH57xBLE.a(sm.o)
                0x000000000000d496                smpResponderProcessPairingReq
 .text.smpResponderProcessIncoming
                0x000000000000d56c      0x24c d:/BaiduSyncdisk/Edith/墨小孔实习/resband/resistance_band/LIB\libCH57xBLE.a(sm.o)
                0x000000000000d56c                smpResponderProcessIncoming
 .text.SM_CalcRandomAddr
                0x000000000000d7b8       0x54 d:/BaiduSyncdisk/Edith/墨小孔实习/resband/resistance_band/LIB\libCH57xBLE.a(sm.o)
                0x000000000000d7b8                SM_CalcRandomAddr
 .text.SM_GenerateAuthenSig
                0x000000000000d80c       0xda d:/BaiduSyncdisk/Edith/墨小孔实习/resband/resistance_band/LIB\libCH57xBLE.a(sm.o)
                0x000000000000d80c                SM_GenerateAuthenSig
 .text.SM_Init  0x000000000000d8e6       0x26 d:/BaiduSyncdisk/Edith/墨小孔实习/resband/resistance_band/LIB\libCH57xBLE.a(sm.o)
                0x000000000000d8e6                SM_Init
 .text.SM_InitiatorInit
                0x000000000000d90c       0x1a d:/BaiduSyncdisk/Edith/墨小孔实习/resband/resistance_band/LIB\libCH57xBLE.a(sm.o)
                0x000000000000d90c                SM_InitiatorInit
 .text.SM_PasskeyUpdate
                0x000000000000d926       0xc8 d:/BaiduSyncdisk/Edith/墨小孔实习/resband/resistance_band/LIB\libCH57xBLE.a(sm.o)
                0x000000000000d926                SM_PasskeyUpdate
 .text.SM_ProcessEvent
                0x000000000000d9ee       0x9e d:/BaiduSyncdisk/Edith/墨小孔实习/resband/resistance_band/LIB\libCH57xBLE.a(sm.o)
                0x000000000000d9ee                SM_ProcessEvent
 .text.SM_ResolveRandomAddrs
                0x000000000000da8c       0x5a d:/BaiduSyncdisk/Edith/墨小孔实习/resband/resistance_band/LIB\libCH57xBLE.a(sm.o)
                0x000000000000da8c                SM_ResolveRandomAddrs
 .text.SM_ResponderInit
                0x000000000000dae6       0x1a d:/BaiduSyncdisk/Edith/墨小孔实习/resband/resistance_band/LIB\libCH57xBLE.a(sm.o)
                0x000000000000dae6                SM_ResponderInit
 .text.SM_StartPairing
                0x000000000000db00       0xcc d:/BaiduSyncdisk/Edith/墨小孔实习/resband/resistance_band/LIB\libCH57xBLE.a(sm.o)
                0x000000000000db00                SM_StartPairing
 .text.SM_VerifyAuthenSig
                0x000000000000dbcc      0x138 d:/BaiduSyncdisk/Edith/墨小孔实习/resband/resistance_band/LIB\libCH57xBLE.a(sm.o)
                0x000000000000dbcc                SM_VerifyAuthenSig
 .text.HOST_LE_ConnectionCompleteEvent
                0x000000000000dd04       0xc2 d:/BaiduSyncdisk/Edith/墨小孔实习/resband/resistance_band/LIB\libCH57xBLE.a(host_input.o)
                0x000000000000dd04                HOST_LE_ConnectionCompleteEvent
 .text.HOST_LE_ConnectionUpdateCompleteEvent
                0x000000000000ddc6       0x5c d:/BaiduSyncdisk/Edith/墨小孔实习/resband/resistance_band/LIB\libCH57xBLE.a(host_input.o)
                0x000000000000ddc6                HOST_LE_ConnectionUpdateCompleteEvent
 .text.HOST_LE_ReadRemoteUsedFeaturesCompleteEvent
                0x000000000000de22       0x62 d:/BaiduSyncdisk/Edith/墨小孔实习/resband/resistance_band/LIB\libCH57xBLE.a(host_input.o)
                0x000000000000de22                HOST_LE_ReadRemoteUsedFeaturesCompleteEvent
 .text.HOST_LE_LongTermKeyRequestEvent
                0x000000000000de84       0x60 d:/BaiduSyncdisk/Edith/墨小孔实习/resband/resistance_band/LIB\libCH57xBLE.a(host_input.o)
                0x000000000000de84                HOST_LE_LongTermKeyRequestEvent
 .text.HOST_LE_RemoteConnectionParameterRequestEvent
                0x000000000000dee4       0x5c d:/BaiduSyncdisk/Edith/墨小孔实习/resband/resistance_band/LIB\libCH57xBLE.a(host_input.o)
                0x000000000000dee4                HOST_LE_RemoteConnectionParameterRequestEvent
 .text.HOST_RemoteConnectionParameterRequestEvent
                0x000000000000df40       0x42 d:/BaiduSyncdisk/Edith/墨小孔实习/resband/resistance_band/LIB\libCH57xBLE.a(host_input.o)
                0x000000000000df40                HOST_RemoteConnectionParameterRequestEvent
 .text.HOST_LE_DataLengthChangeEvent
                0x000000000000df82       0x5c d:/BaiduSyncdisk/Edith/墨小孔实习/resband/resistance_band/LIB\libCH57xBLE.a(host_input.o)
                0x000000000000df82                HOST_LE_DataLengthChangeEvent
 .text.HOST_LE_EnhancedConnectionCompleteEvent
                0x000000000000dfde      0x118 d:/BaiduSyncdisk/Edith/墨小孔实习/resband/resistance_band/LIB\libCH57xBLE.a(host_input.o)
                0x000000000000dfde                HOST_LE_EnhancedConnectionCompleteEvent
 .text.HOST_DisconnectionCompleteEvent
                0x000000000000e0f6       0x44 d:/BaiduSyncdisk/Edith/墨小孔实习/resband/resistance_band/LIB\libCH57xBLE.a(host_input.o)
                0x000000000000e0f6                HOST_DisconnectionCompleteEvent
 .text.HOST_EncryptionChangeEvent
                0x000000000000e13a       0x4c d:/BaiduSyncdisk/Edith/墨小孔实习/resband/resistance_band/LIB\libCH57xBLE.a(host_input.o)
                0x000000000000e13a                HOST_EncryptionChangeEvent
 .text.HOST_ReadRemoteVersionInfoEvent
                0x000000000000e186       0x56 d:/BaiduSyncdisk/Edith/墨小孔实习/resband/resistance_band/LIB\libCH57xBLE.a(host_input.o)
                0x000000000000e186                HOST_ReadRemoteVersionInfoEvent
 .text.HOST_CommandCompleteEvent
                0x000000000000e1dc       0x5e d:/BaiduSyncdisk/Edith/墨小孔实习/resband/resistance_band/LIB\libCH57xBLE.a(host_input.o)
                0x000000000000e1dc                HOST_CommandCompleteEvent
 .text.HOST_CommandStatusEvent
                0x000000000000e23a       0x44 d:/BaiduSyncdisk/Edith/墨小孔实习/resband/resistance_band/LIB\libCH57xBLE.a(host_input.o)
                0x000000000000e23a                HOST_CommandStatusEvent
 .text.HOST_DataBufferOverflowEvent
                0x000000000000e27e       0x3a d:/BaiduSyncdisk/Edith/墨小孔实习/resband/resistance_band/LIB\libCH57xBLE.a(host_input.o)
                0x000000000000e27e                HOST_DataBufferOverflowEvent
 .text.HOST_EncryptionKeyRefreshCompleteEvent
                0x000000000000e2b8       0x46 d:/BaiduSyncdisk/Edith/墨小孔实习/resband/resistance_band/LIB\libCH57xBLE.a(host_input.o)
                0x000000000000e2b8                HOST_EncryptionKeyRefreshCompleteEvent
 .text.HOST_NumberOfCompletedPacketsEvent
                0x000000000000e2fe       0x40 d:/BaiduSyncdisk/Edith/墨小孔实习/resband/resistance_band/LIB\libCH57xBLE.a(host_input.o)
                0x000000000000e2fe                HOST_NumberOfCompletedPacketsEvent
 .text.HOST_RecvDataPackets
                0x000000000000e33e      0x250 d:/BaiduSyncdisk/Edith/墨小孔实习/resband/resistance_band/LIB\libCH57xBLE.a(host_input.o)
                0x000000000000e33e                HOST_RecvDataPackets
 .text.HCI_DisconnectCmd
                0x000000000000e58e        0x4 d:/BaiduSyncdisk/Edith/墨小孔实习/resband/resistance_band/LIB\libCH57xBLE.a(host_output.o)
                0x000000000000e58e                HCI_DisconnectCmd
 .text.HCI_MB_DisconnectCmd
                0x000000000000e592        0x4 d:/BaiduSyncdisk/Edith/墨小孔实习/resband/resistance_band/LIB\libCH57xBLE.a(host_output.o)
                0x000000000000e592                HCI_MB_DisconnectCmd
 .text.HCI_HostNumCompletedPktCmd
                0x000000000000e596       0x10 d:/BaiduSyncdisk/Edith/墨小孔实习/resband/resistance_band/LIB\libCH57xBLE.a(host_output.o)
                0x000000000000e596                HCI_HostNumCompletedPktCmd
 .text.HCI_ReadBDADDRCmd
                0x000000000000e5a6        0x4 d:/BaiduSyncdisk/Edith/墨小孔实习/resband/resistance_band/LIB\libCH57xBLE.a(host_output.o)
                0x000000000000e5a6                HCI_ReadBDADDRCmd
 .text.HCI_LE_ReadBufSizeCmd
                0x000000000000e5aa        0x4 d:/BaiduSyncdisk/Edith/墨小孔实习/resband/resistance_band/LIB\libCH57xBLE.a(host_output.o)
                0x000000000000e5aa                HCI_LE_ReadBufSizeCmd
 .text.HCI_LE_SetRandomAddressCmd
                0x000000000000e5ae        0x4 d:/BaiduSyncdisk/Edith/墨小孔实习/resband/resistance_band/LIB\libCH57xBLE.a(host_output.o)
                0x000000000000e5ae                HCI_LE_SetRandomAddressCmd
 .text.HCI_LE_SetAdvParamCmd
                0x000000000000e5b2        0x4 d:/BaiduSyncdisk/Edith/墨小孔实习/resband/resistance_band/LIB\libCH57xBLE.a(host_output.o)
                0x000000000000e5b2                HCI_LE_SetAdvParamCmd
 .text.HCI_LE_SetAdvDataCmd
                0x000000000000e5b6        0x4 d:/BaiduSyncdisk/Edith/墨小孔实习/resband/resistance_band/LIB\libCH57xBLE.a(host_output.o)
                0x000000000000e5b6                HCI_LE_SetAdvDataCmd
 .text.HCI_LE_SetScanRspDataCmd
                0x000000000000e5ba        0x4 d:/BaiduSyncdisk/Edith/墨小孔实习/resband/resistance_band/LIB\libCH57xBLE.a(host_output.o)
                0x000000000000e5ba                HCI_LE_SetScanRspDataCmd
 .text.HCI_LE_SetAdvEnableCmd
                0x000000000000e5be        0x4 d:/BaiduSyncdisk/Edith/墨小孔实习/resband/resistance_band/LIB\libCH57xBLE.a(host_output.o)
                0x000000000000e5be                HCI_LE_SetAdvEnableCmd
 .text.HCI_LE_SetScanEnableCmd
                0x000000000000e5c2        0x4 d:/BaiduSyncdisk/Edith/墨小孔实习/resband/resistance_band/LIB\libCH57xBLE.a(host_output.o)
                0x000000000000e5c2                HCI_LE_SetScanEnableCmd
 .text.HCI_LE_CreateConnCancelCmd
                0x000000000000e5c6        0x4 d:/BaiduSyncdisk/Edith/墨小孔实习/resband/resistance_band/LIB\libCH57xBLE.a(host_output.o)
                0x000000000000e5c6                HCI_LE_CreateConnCancelCmd
 .text.HCI_LE_ClearWhiteListCmd
                0x000000000000e5ca        0x4 d:/BaiduSyncdisk/Edith/墨小孔实习/resband/resistance_band/LIB\libCH57xBLE.a(host_output.o)
                0x000000000000e5ca                HCI_LE_ClearWhiteListCmd
 .text.HCI_LE_AddWhiteListCmd
                0x000000000000e5ce        0x4 d:/BaiduSyncdisk/Edith/墨小孔实习/resband/resistance_band/LIB\libCH57xBLE.a(host_output.o)
                0x000000000000e5ce                HCI_LE_AddWhiteListCmd
 .text.HCI_LE_ConnUpdateCmd
                0x000000000000e5d2        0x4 d:/BaiduSyncdisk/Edith/墨小孔实习/resband/resistance_band/LIB\libCH57xBLE.a(host_output.o)
                0x000000000000e5d2                HCI_LE_ConnUpdateCmd
 .text.HCI_LE_RandCmd
                0x000000000000e5d6        0x4 d:/BaiduSyncdisk/Edith/墨小孔实习/resband/resistance_band/LIB\libCH57xBLE.a(host_output.o)
                0x000000000000e5d6                HCI_LE_RandCmd
 .text.HCI_LE_StartEncyptCmd
                0x000000000000e5da       0x10 d:/BaiduSyncdisk/Edith/墨小孔实习/resband/resistance_band/LIB\libCH57xBLE.a(host_output.o)
                0x000000000000e5da                HCI_LE_StartEncyptCmd
 .text.HCI_LE_LtkReqReplyCmd
                0x000000000000e5ea        0x4 d:/BaiduSyncdisk/Edith/墨小孔实习/resband/resistance_band/LIB\libCH57xBLE.a(host_output.o)
                0x000000000000e5ea                HCI_LE_LtkReqReplyCmd
 .text.HCI_LE_LtkReqNegReplyCmd
                0x000000000000e5ee        0x4 d:/BaiduSyncdisk/Edith/墨小孔实习/resband/resistance_band/LIB\libCH57xBLE.a(host_output.o)
                0x000000000000e5ee                HCI_LE_LtkReqNegReplyCmd
 .text.HCI_LE_RemoteConnParamReqReplyCmd
                0x000000000000e5f2        0x4 d:/BaiduSyncdisk/Edith/墨小孔实习/resband/resistance_band/LIB\libCH57xBLE.a(host_output.o)
                0x000000000000e5f2                HCI_LE_RemoteConnParamReqReplyCmd
 .text.HCI_LE_RemoteConnParamReqNegReplyCmd
                0x000000000000e5f6        0x4 d:/BaiduSyncdisk/Edith/墨小孔实习/resband/resistance_band/LIB\libCH57xBLE.a(host_output.o)
                0x000000000000e5f6                HCI_LE_RemoteConnParamReqNegReplyCmd
 .text.HCI_LE_AddDeviceToResolvingList
                0x000000000000e5fa        0x4 d:/BaiduSyncdisk/Edith/墨小孔实习/resband/resistance_band/LIB\libCH57xBLE.a(host_output.o)
                0x000000000000e5fa                HCI_LE_AddDeviceToResolvingList
 .text.HCI_LE_ClearResolvingList
                0x000000000000e5fe        0x4 d:/BaiduSyncdisk/Edith/墨小孔实习/resband/resistance_band/LIB\libCH57xBLE.a(host_output.o)
                0x000000000000e5fe                HCI_LE_ClearResolvingList
 .text.HCI_LE_SetAddressResolvableEnableCmd
                0x000000000000e602        0x4 d:/BaiduSyncdisk/Edith/墨小孔实习/resband/resistance_band/LIB\libCH57xBLE.a(host_output.o)
                0x000000000000e602                HCI_LE_SetAddressResolvableEnableCmd
 .text.HCI_LE_SetResolvableAddressTimeoutCmd
                0x000000000000e606        0x4 d:/BaiduSyncdisk/Edith/墨小孔实习/resband/resistance_band/LIB\libCH57xBLE.a(host_output.o)
                0x000000000000e606                HCI_LE_SetResolvableAddressTimeoutCmd
 .text.HCI_SendDataPkt
                0x000000000000e60a        0x4 d:/BaiduSyncdisk/Edith/墨小孔实习/resband/resistance_band/LIB\libCH57xBLE.a(host_output.o)
                0x000000000000e60a                HCI_SendDataPkt
 .text.HCI_ValidConnTimeParams
                0x000000000000e60e       0x4c d:/BaiduSyncdisk/Edith/墨小孔实习/resband/resistance_band/LIB\libCH57xBLE.a(host_output.o)
                0x000000000000e60e                HCI_ValidConnTimeParams
 .text.ll_connect_auth_timeout
                0x000000000000e65a       0x16 d:/BaiduSyncdisk/Edith/墨小孔实习/resband/resistance_band/LIB\libCH57xBLE.a(ll_connect.o)
                0x000000000000e65a                ll_connect_auth_timeout
 .text.ll_connect_set_auth_timeout
                0x000000000000e670       0x56 d:/BaiduSyncdisk/Edith/墨小孔实习/resband/resistance_band/LIB\libCH57xBLE.a(ll_connect.o)
                0x000000000000e670                ll_connect_set_auth_timeout
 .text.ll_connect_set_procedure_timeout
                0x000000000000e6c6       0x3c d:/BaiduSyncdisk/Edith/墨小孔实习/resband/resistance_band/LIB\libCH57xBLE.a(ll_connect.o)
                0x000000000000e6c6                ll_connect_set_procedure_timeout
 .text.ll_connect_set_connect_timeout
                0x000000000000e702       0x3c d:/BaiduSyncdisk/Edith/墨小孔实习/resband/resistance_band/LIB\libCH57xBLE.a(ll_connect.o)
                0x000000000000e702                ll_connect_set_connect_timeout
 .text.ll_connect_init_dataLen
                0x000000000000e73e       0x88 d:/BaiduSyncdisk/Edith/墨小孔实习/resband/resistance_band/LIB\libCH57xBLE.a(ll_connect.o)
                0x000000000000e73e                ll_connect_init_dataLen
 .text.ll_connect_init_pingOffset
                0x000000000000e7c6       0x2e d:/BaiduSyncdisk/Edith/墨小孔实习/resband/resistance_band/LIB\libCH57xBLE.a(ll_connect.o)
                0x000000000000e7c6                ll_connect_init_pingOffset
 .text.ll_connect_parse_datapdu_head
                0x000000000000e7f4       0x34 d:/BaiduSyncdisk/Edith/墨小孔实习/resband/resistance_band/LIB\libCH57xBLE.a(ll_connect.o)
                0x000000000000e7f4                ll_connect_parse_datapdu_head
 .text.ll_connect_send_data
                0x000000000000e828      0x10e d:/BaiduSyncdisk/Edith/墨小孔实习/resband/resistance_band/LIB\libCH57xBLE.a(ll_connect.o)
                0x000000000000e828                ll_connect_send_data
 .text.ll_connect_flowcontrol_init
                0x000000000000e936        0xc d:/BaiduSyncdisk/Edith/墨小孔实习/resband/resistance_band/LIB\libCH57xBLE.a(ll_connect.o)
                0x000000000000e936                ll_connect_flowcontrol_init
 .text.LL_ConnectFlowcontrolTx
                0x000000000000e942       0x28 d:/BaiduSyncdisk/Edith/墨小孔实习/resband/resistance_band/LIB\libCH57xBLE.a(ll_connect.o)
                0x000000000000e942                LL_ConnectFlowcontrolTx
 .text.LL_ConnectFlowcontrolRx
                0x000000000000e96a       0x28 d:/BaiduSyncdisk/Edith/墨小孔实习/resband/resistance_band/LIB\libCH57xBLE.a(ll_connect.o)
                0x000000000000e96a                LL_ConnectFlowcontrolRx
 .text.LL_ConnectTxPktnumIncrease
                0x000000000000e992       0x50 d:/BaiduSyncdisk/Edith/墨小孔实习/resband/resistance_band/LIB\libCH57xBLE.a(ll_connect.o)
                0x000000000000e992                LL_ConnectTxPktnumIncrease
 .text.LL_ConnectRxPktnumIncrease
                0x000000000000e9e2       0x3e d:/BaiduSyncdisk/Edith/墨小孔实习/resband/resistance_band/LIB\libCH57xBLE.a(ll_connect.o)
                0x000000000000e9e2                LL_ConnectRxPktnumIncrease
 .text.ll_connect_get_slave_number
                0x000000000000ea20       0x20 d:/BaiduSyncdisk/Edith/墨小孔实习/resband/resistance_band/LIB\libCH57xBLE.a(ll_connect.o)
                0x000000000000ea20                ll_connect_get_slave_number
 .text.ll_connect_update_get_offset
                0x000000000000ea40       0xa8 d:/BaiduSyncdisk/Edith/墨小孔实习/resband/resistance_band/LIB\libCH57xBLE.a(ll_connect.o)
                0x000000000000ea40                ll_connect_update_get_offset
 .text.ll_connect_get_update_point
                0x000000000000eae8       0x86 d:/BaiduSyncdisk/Edith/墨小孔实习/resband/resistance_band/LIB\libCH57xBLE.a(ll_connect.o)
                0x000000000000eae8                ll_connect_get_update_point
 .text.ll_master_check_connect_point
                0x000000000000eb6e       0xf0 d:/BaiduSyncdisk/Edith/墨小孔实习/resband/resistance_band/LIB\libCH57xBLE.a(ll_connect.o)
                0x000000000000eb6e                ll_master_check_connect_point
 .text.ll_slave_check_connect_point
                0x000000000000ec5e      0x1ca d:/BaiduSyncdisk/Edith/墨小孔实习/resband/resistance_band/LIB\libCH57xBLE.a(ll_connect.o)
                0x000000000000ec5e                ll_slave_check_connect_point
 .text.ll_connect_change_connect_point
                0x000000000000ee28      0x226 d:/BaiduSyncdisk/Edith/墨小孔实习/resband/resistance_band/LIB\libCH57xBLE.a(ll_connect.o)
                0x000000000000ee28                ll_connect_change_connect_point
 .text.ll_connect_recv_data
                0x000000000000f04e       0xa0 d:/BaiduSyncdisk/Edith/墨小孔实习/resband/resistance_band/LIB\libCH57xBLE.a(ll_connect.o)
                0x000000000000f04e                ll_connect_recv_data
 .text.LL_GetNextConnectEventTime
                0x000000000000f0ee      0x12c d:/BaiduSyncdisk/Edith/墨小孔实习/resband/resistance_band/LIB\libCH57xBLE.a(ll_connect.o)
                0x000000000000f0ee                LL_GetNextConnectEventTime
 .text.LL_GetNumberOfUnAckPacket
                0x000000000000f21a       0x22 d:/BaiduSyncdisk/Edith/墨小孔实习/resband/resistance_band/LIB\libCH57xBLE.a(ll_connect.o)
                0x000000000000f21a                LL_GetNumberOfUnAckPacket
 .text.LL_ConnectFreeTmosPrioritID
                0x000000000000f23c       0xde d:/BaiduSyncdisk/Edith/墨小孔实习/resband/resistance_band/LIB\libCH57xBLE.a(ll_connect.o)
                0x000000000000f23c                LL_ConnectFreeTmosPrioritID
 .text.LL_ConnectToStandby
                0x000000000000f31a       0x86 d:/BaiduSyncdisk/Edith/墨小孔实习/resband/resistance_band/LIB\libCH57xBLE.a(ll_connect.o)
                0x000000000000f31a                LL_ConnectToStandby
 .text.ll_connect_action_in_connintervaltimeout
                0x000000000000f3a0      0x348 d:/BaiduSyncdisk/Edith/墨小孔实习/resband/resistance_band/LIB\libCH57xBLE.a(ll_connect.o)
                0x000000000000f3a0                ll_connect_action_in_connintervaltimeout
 .text.ll_connect_procedure_timeout
                0x000000000000f6e8       0x2a d:/BaiduSyncdisk/Edith/墨小孔实习/resband/resistance_band/LIB\libCH57xBLE.a(ll_connect.o)
                0x000000000000f6e8                ll_connect_procedure_timeout
 .text.ll_connect_supervision_timeout
                0x000000000000f712       0x34 d:/BaiduSyncdisk/Edith/墨小孔实习/resband/resistance_band/LIB\libCH57xBLE.a(ll_connect.o)
                0x000000000000f712                ll_connect_supervision_timeout
 .text.ll_connect_process_event
                0x000000000000f746      0x484 d:/BaiduSyncdisk/Edith/墨小孔实习/resband/resistance_band/LIB\libCH57xBLE.a(ll_connect.o)
                0x000000000000f746                ll_connect_process_event
 .text.LL_ConnectShut
                0x000000000000fbca       0xe2 d:/BaiduSyncdisk/Edith/墨小孔实习/resband/resistance_band/LIB\libCH57xBLE.a(ll_connect.o)
                0x000000000000fbca                LL_ConnectShut
 .text.LL_CoreGetCore
                0x000000000000fcac       0x1c d:/BaiduSyncdisk/Edith/墨小孔实习/resband/resistance_band/LIB\libCH57xBLE.a(ll_core.o)
                0x000000000000fcac                LL_CoreGetCore
 .text.LL_CoreGetDataList
                0x000000000000fcc8       0x34 d:/BaiduSyncdisk/Edith/墨小孔实习/resband/resistance_band/LIB\libCH57xBLE.a(ll_core.o)
                0x000000000000fcc8                LL_CoreGetDataList
 .text.LL_CoreDataListInit
                0x000000000000fcfc       0xa6 d:/BaiduSyncdisk/Edith/墨小孔实习/resband/resistance_band/LIB\libCH57xBLE.a(ll_core.o)
                0x000000000000fcfc                LL_CoreDataListInit
 .text.LL_CoreOpen
                0x000000000000fda2       0xca d:/BaiduSyncdisk/Edith/墨小孔实习/resband/resistance_band/LIB\libCH57xBLE.a(ll_core.o)
                0x000000000000fda2                LL_CoreOpen
 .text.LL_CoreDataListFree
                0x000000000000fe6c       0x30 d:/BaiduSyncdisk/Edith/墨小孔实习/resband/resistance_band/LIB\libCH57xBLE.a(ll_core.o)
                0x000000000000fe6c                LL_CoreDataListFree
 .text.LL_CoreClose
                0x000000000000fe9c       0x8a d:/BaiduSyncdisk/Edith/墨小孔实习/resband/resistance_band/LIB\libCH57xBLE.a(ll_core.o)
                0x000000000000fe9c                LL_CoreClose
 .text.LL_CoreInit
                0x000000000000ff26       0x10 d:/BaiduSyncdisk/Edith/墨小孔实习/resband/resistance_band/LIB\libCH57xBLE.a(ll_core.o)
                0x000000000000ff26                LL_CoreInit
 .text.LL_HopGetChannel
                0x000000000000ff36       0xda d:/BaiduSyncdisk/Edith/墨小孔实习/resband/resistance_band/LIB\libCH57xBLE.a(ll_hop.o)
                0x000000000000ff36                LL_HopGetChannel
 .text.LL_HopInit
                0x0000000000010010        0x6 d:/BaiduSyncdisk/Edith/墨小孔实习/resband/resistance_band/LIB\libCH57xBLE.a(ll_hop.o)
                0x0000000000010010                LL_HopInit
 .text.ll_master_process_after_rx
                0x0000000000010016      0x33a d:/BaiduSyncdisk/Edith/墨小孔实习/resband/resistance_band/LIB\libCH57xBLE.a(ll_master.o)
 .text.ll_master_action_tx_ready
                0x0000000000010350      0x562 d:/BaiduSyncdisk/Edith/墨小孔实习/resband/resistance_band/LIB\libCH57xBLE.a(ll_master.o)
                0x0000000000010350                ll_master_action_tx_ready
 .text.LL_SetDataSendPriority
                0x00000000000108b2       0x26 d:/BaiduSyncdisk/Edith/墨小孔实习/resband/resistance_band/LIB\libCH57xBLE.a(ll_master.o)
                0x00000000000108b2                LL_SetDataSendPriority
 .text.ll_master_process
                0x00000000000108d8      0xa30 d:/BaiduSyncdisk/Edith/墨小孔实习/resband/resistance_band/LIB\libCH57xBLE.a(ll_master.o)
                0x00000000000108d8                ll_master_process
 .text.LL_ConnectionUpdateReq
                0x0000000000011308       0xbc d:/BaiduSyncdisk/Edith/墨小孔实习/resband/resistance_band/LIB\libCH57xBLE.a(ll_pdu.o)
                0x0000000000011308                LL_ConnectionUpdateReq
 .text.LL_ChannelMapReq
                0x00000000000113c4       0x68 d:/BaiduSyncdisk/Edith/墨小孔实习/resband/resistance_band/LIB\libCH57xBLE.a(ll_pdu.o)
                0x00000000000113c4                LL_ChannelMapReq
 .text.LL_TerminateInd
                0x000000000001142c       0x34 d:/BaiduSyncdisk/Edith/墨小孔实习/resband/resistance_band/LIB\libCH57xBLE.a(ll_pdu.o)
                0x000000000001142c                LL_TerminateInd
 .text.LL_EncReq
                0x0000000000011460       0x8c d:/BaiduSyncdisk/Edith/墨小孔实习/resband/resistance_band/LIB\libCH57xBLE.a(ll_pdu.o)
                0x0000000000011460                LL_EncReq
 .text.LL_EncRsp
                0x00000000000114ec       0x58 d:/BaiduSyncdisk/Edith/墨小孔实习/resband/resistance_band/LIB\libCH57xBLE.a(ll_pdu.o)
                0x00000000000114ec                LL_EncRsp
 .text.LL_StartEncReq
                0x0000000000011544       0x22 d:/BaiduSyncdisk/Edith/墨小孔实习/resband/resistance_band/LIB\libCH57xBLE.a(ll_pdu.o)
                0x0000000000011544                LL_StartEncReq
 .text.LL_StartEncRsp
                0x0000000000011566       0x22 d:/BaiduSyncdisk/Edith/墨小孔实习/resband/resistance_band/LIB\libCH57xBLE.a(ll_pdu.o)
                0x0000000000011566                LL_StartEncRsp
 .text.LL_UnknowRsp
                0x0000000000011588       0x26 d:/BaiduSyncdisk/Edith/墨小孔实习/resband/resistance_band/LIB\libCH57xBLE.a(ll_pdu.o)
                0x0000000000011588                LL_UnknowRsp
 .text.LL_FeatureReq
                0x00000000000115ae       0x50 d:/BaiduSyncdisk/Edith/墨小孔实习/resband/resistance_band/LIB\libCH57xBLE.a(ll_pdu.o)
                0x00000000000115ae                LL_FeatureReq
 .text.LL_FeatureRsp
                0x00000000000115fe       0x42 d:/BaiduSyncdisk/Edith/墨小孔实习/resband/resistance_band/LIB\libCH57xBLE.a(ll_pdu.o)
                0x00000000000115fe                LL_FeatureRsp
 .text.LL_PauseEncReq
                0x0000000000011640       0x2e d:/BaiduSyncdisk/Edith/墨小孔实习/resband/resistance_band/LIB\libCH57xBLE.a(ll_pdu.o)
                0x0000000000011640                LL_PauseEncReq
 .text.LL_PauseEncRsp
                0x000000000001166e       0x22 d:/BaiduSyncdisk/Edith/墨小孔实习/resband/resistance_band/LIB\libCH57xBLE.a(ll_pdu.o)
                0x000000000001166e                LL_PauseEncRsp
 .text.LL_VersionInd
                0x0000000000011690       0x8c d:/BaiduSyncdisk/Edith/墨小孔实习/resband/resistance_band/LIB\libCH57xBLE.a(ll_pdu.o)
                0x0000000000011690                LL_VersionInd
 .text.LL_RejectInd
                0x000000000001171c       0x26 d:/BaiduSyncdisk/Edith/墨小孔实习/resband/resistance_band/LIB\libCH57xBLE.a(ll_pdu.o)
                0x000000000001171c                LL_RejectInd
 .text.LL_SlaveFeatureReq
                0x0000000000011742       0x50 d:/BaiduSyncdisk/Edith/墨小孔实习/resband/resistance_band/LIB\libCH57xBLE.a(ll_pdu.o)
                0x0000000000011742                LL_SlaveFeatureReq
 .text.LL_ConnectionParamReq
                0x0000000000011792       0xac d:/BaiduSyncdisk/Edith/墨小孔实习/resband/resistance_band/LIB\libCH57xBLE.a(ll_pdu.o)
                0x0000000000011792                LL_ConnectionParamReq
 .text.LL_ConnectionParamRsp
                0x000000000001183e       0xa0 d:/BaiduSyncdisk/Edith/墨小孔实习/resband/resistance_band/LIB\libCH57xBLE.a(ll_pdu.o)
                0x000000000001183e                LL_ConnectionParamRsp
 .text.LL_RejectIndExt
                0x00000000000118de       0x26 d:/BaiduSyncdisk/Edith/墨小孔实习/resband/resistance_band/LIB\libCH57xBLE.a(ll_pdu.o)
                0x00000000000118de                LL_RejectIndExt
 .text.LL_PingReq
                0x0000000000011904       0x2e d:/BaiduSyncdisk/Edith/墨小孔实习/resband/resistance_band/LIB\libCH57xBLE.a(ll_pdu.o)
                0x0000000000011904                LL_PingReq
 .text.LL_PingRsp
                0x0000000000011932       0x1a d:/BaiduSyncdisk/Edith/墨小孔实习/resband/resistance_band/LIB\libCH57xBLE.a(ll_pdu.o)
                0x0000000000011932                LL_PingRsp
 .text.LL_LengthReq
                0x000000000001194c       0x82 d:/BaiduSyncdisk/Edith/墨小孔实习/resband/resistance_band/LIB\libCH57xBLE.a(ll_pdu.o)
                0x000000000001194c                LL_LengthReq
 .text.LL_LengthRsp
                0x00000000000119ce       0x6e d:/BaiduSyncdisk/Edith/墨小孔实习/resband/resistance_band/LIB\libCH57xBLE.a(ll_pdu.o)
                0x00000000000119ce                LL_LengthRsp
 .text.LL_SendAck
                0x0000000000011a3c       0x1c d:/BaiduSyncdisk/Edith/墨小孔实习/resband/resistance_band/LIB\libCH57xBLE.a(ll_pdu.o)
                0x0000000000011a3c                LL_SendAck
 .text.LL_RxConnParamReq
                0x0000000000011a58       0xf8 d:/BaiduSyncdisk/Edith/墨小孔实习/resband/resistance_band/LIB\libCH57xBLE.a(ll_pdu.o)
                0x0000000000011a58                LL_RxConnParamReq
 .text.LL_RxConnParamRsp
                0x0000000000011b50       0xd2 d:/BaiduSyncdisk/Edith/墨小孔实习/resband/resistance_band/LIB\libCH57xBLE.a(ll_pdu.o)
                0x0000000000011b50                LL_RxConnParamRsp
 .text.LL_RxLenUpdate
                0x0000000000011c22       0xee d:/BaiduSyncdisk/Edith/墨小孔实习/resband/resistance_band/LIB\libCH57xBLE.a(ll_pdu.o)
                0x0000000000011c22                LL_RxLenUpdate
 .text.LL_RxVersionExchange
                0x0000000000011d10       0x2e d:/BaiduSyncdisk/Edith/墨小孔实习/resband/resistance_band/LIB\libCH57xBLE.a(ll_pdu.o)
                0x0000000000011d10                LL_RxVersionExchange
 .text.LL_ReportGenerateEvent
                0x0000000000011d3e       0x42 d:/BaiduSyncdisk/Edith/墨小孔实习/resband/resistance_band/LIB\libCH57xBLE.a(ll_report.o)
                0x0000000000011d3e                LL_ReportGenerateEvent
 .text.LL_ProcessTMOSReportMsg
                0x0000000000011d80      0x59e d:/BaiduSyncdisk/Edith/墨小孔实习/resband/resistance_band/LIB\libCH57xBLE.a(ll_report.o)
                0x0000000000011d80                LL_ProcessTMOSReportMsg
 .text.LL_ScanToStandby
                0x000000000001231e       0x9c d:/BaiduSyncdisk/Edith/墨小孔实习/resband/resistance_band/LIB\libCH57xBLE.a(ll_scan.o)
                0x000000000001231e                LL_ScanToStandby
 .text.ll_slave_process_after_tx
                0x00000000000123ba      0x39c d:/BaiduSyncdisk/Edith/墨小孔实习/resband/resistance_band/LIB\libCH57xBLE.a(ll_slave.o)
 .text.llSlaveCreateCore
                0x0000000000012756       0xf6 d:/BaiduSyncdisk/Edith/墨小孔实习/resband/resistance_band/LIB\libCH57xBLE.a(ll_slave.o)
                0x0000000000012756                llSlaveCreateCore
 .text.llSlaveSetFirstTimer
                0x000000000001284c      0x1d2 d:/BaiduSyncdisk/Edith/墨小孔实习/resband/resistance_band/LIB\libCH57xBLE.a(ll_slave.o)
 .text.ll_hw_timer_slave_recv_timeout
                0x0000000000012a1e       0x22 d:/BaiduSyncdisk/Edith/墨小孔实习/resband/resistance_band/LIB\libCH57xBLE.a(ll_slave.o)
                0x0000000000012a1e                ll_hw_timer_slave_recv_timeout
 .text.ll_slave_process
                0x0000000000012a40     0x10ec d:/BaiduSyncdisk/Edith/墨小孔实习/resband/resistance_band/LIB\libCH57xBLE.a(ll_slave.o)
                0x0000000000012a40                ll_slave_process
 .text.LL_SlaveEnalbe
                0x0000000000013b2c       0x2a d:/BaiduSyncdisk/Edith/墨小孔实习/resband/resistance_band/LIB\libCH57xBLE.a(ll_slave.o)
                0x0000000000013b2c                LL_SlaveEnalbe
 .text.LL_WhitelistLookup
                0x0000000000013b56       0x4e d:/BaiduSyncdisk/Edith/墨小孔实习/resband/resistance_band/LIB\libCH57xBLE.a(ll_whitelist.o)
                0x0000000000013b56                LL_WhitelistLookup
 .text.LL_WhitelistAdd
                0x0000000000013ba4       0xb4 d:/BaiduSyncdisk/Edith/墨小孔实习/resband/resistance_band/LIB\libCH57xBLE.a(ll_whitelist.o)
                0x0000000000013ba4                LL_WhitelistAdd
 .text.LL_WhitelistClearAll
                0x0000000000013c58       0x4a d:/BaiduSyncdisk/Edith/墨小孔实习/resband/resistance_band/LIB\libCH57xBLE.a(ll_whitelist.o)
                0x0000000000013c58                LL_WhitelistClearAll
 .text.LL_WhitelistInit
                0x0000000000013ca2       0x12 d:/BaiduSyncdisk/Edith/墨小孔实习/resband/resistance_band/LIB\libCH57xBLE.a(ll_whitelist.o)
                0x0000000000013ca2                LL_WhitelistInit
 .text.AES_DevAESEnc
                0x0000000000013cb4      0x1a2 d:/BaiduSyncdisk/Edith/墨小孔实习/resband/resistance_band/LIB\libCH57xBLE.a(aes.o)
                0x0000000000013cb4                AES_DevAESEnc
 .text.LL_Encrypt
                0x0000000000013e56       0x10 d:/BaiduSyncdisk/Edith/墨小孔实习/resband/resistance_band/LIB\libCH57xBLE.a(aes.o)
                0x0000000000013e56                LL_Encrypt
 .text.AES_DevPktEnc
                0x0000000000013e66       0x62 d:/BaiduSyncdisk/Edith/墨小孔实习/resband/resistance_band/LIB\libCH57xBLE.a(aes.o)
                0x0000000000013e66                AES_DevPktEnc
 .text.AES_DevPktDec
                0x0000000000013ec8       0x6e d:/BaiduSyncdisk/Edith/墨小孔实习/resband/resistance_band/LIB\libCH57xBLE.a(aes.o)
                0x0000000000013ec8                AES_DevPktDec
 .text.BB_DevInit
                0x0000000000013f36       0xba d:/BaiduSyncdisk/Edith/墨小孔实习/resband/resistance_band/LIB\libCH57xBLE.a(bb.o)
                0x0000000000013f36                BB_DevInit
 .text.DMA_DevInit
                0x0000000000013ff0       0x48 d:/BaiduSyncdisk/Edith/墨小孔实习/resband/resistance_band/LIB\libCH57xBLE.a(dma.o)
                0x0000000000013ff0                DMA_DevInit
 .text.ll_tx_wait_tx_dma
                0x0000000000014038       0x2c d:/BaiduSyncdisk/Edith/墨小孔实习/resband/resistance_band/LIB\libCH57xBLE.a(ip.o)
                0x0000000000014038                ll_tx_wait_tx_dma
 .text.ll_tx_wait_pkt_recv
                0x0000000000014064       0x24 d:/BaiduSyncdisk/Edith/墨小孔实习/resband/resistance_band/LIB\libCH57xBLE.a(ip.o)
                0x0000000000014064                ll_tx_wait_pkt_recv
 .text.ll_tx_set_wait_finish
                0x0000000000014088       0x2e d:/BaiduSyncdisk/Edith/墨小孔实习/resband/resistance_band/LIB\libCH57xBLE.a(ip.o)
                0x0000000000014088                ll_tx_set_wait_finish
 .text.ll_rx_wait_tx_dma
                0x00000000000140b6       0x2c d:/BaiduSyncdisk/Edith/墨小孔实习/resband/resistance_band/LIB\libCH57xBLE.a(ip.o)
                0x00000000000140b6                ll_rx_wait_tx_dma
 .text.ll_rx_wait_pkt_recv
                0x00000000000140e2       0x24 d:/BaiduSyncdisk/Edith/墨小孔实习/resband/resistance_band/LIB\libCH57xBLE.a(ip.o)
                0x00000000000140e2                ll_rx_wait_pkt_recv
 .text.ll_multi_states_check
                0x0000000000014106       0x34 d:/BaiduSyncdisk/Edith/墨小孔实习/resband/resistance_band/LIB\libCH57xBLE.a(ip.o)
                0x0000000000014106                ll_multi_states_check
 .text.ble_ll_hw_api_shut
                0x000000000001413a       0x56 d:/BaiduSyncdisk/Edith/墨小孔实习/resband/resistance_band/LIB\libCH57xBLE.a(ip.o)
                0x000000000001413a                ble_ll_hw_api_shut
 .text.ble_ll_hw_api_rx
                0x0000000000014190       0xe0 d:/BaiduSyncdisk/Edith/墨小孔实习/resband/resistance_band/LIB\libCH57xBLE.a(ip.o)
                0x0000000000014190                ble_ll_hw_api_rx
 .text.ll_multi_states_process
                0x0000000000014270      0x114 d:/BaiduSyncdisk/Edith/墨小孔实习/resband/resistance_band/LIB\libCH57xBLE.a(ip.o)
                0x0000000000014270                ll_multi_states_process
 .text.ll_hw_api_tx_direct_test
                0x0000000000014384      0x112 d:/BaiduSyncdisk/Edith/墨小孔实习/resband/resistance_band/LIB\libCH57xBLE.a(ip.o)
                0x0000000000014384                ll_hw_api_tx_direct_test
 .text.BLE_RegInit
                0x0000000000014496       0x5e d:/BaiduSyncdisk/Edith/墨小孔实习/resband/resistance_band/LIB\libCH57xBLE.a(ip.o)
                0x0000000000014496                BLE_RegInit
 .text.BLE_ADCTune
                0x00000000000144f4       0x4c d:/BaiduSyncdisk/Edith/墨小孔实习/resband/resistance_band/LIB\libCH57xBLE.a(ip.o)
                0x00000000000144f4                BLE_ADCTune
 .text.BLE_IPCoreInit
                0x0000000000014540       0x94 d:/BaiduSyncdisk/Edith/墨小孔实习/resband/resistance_band/LIB\libCH57xBLE.a(ip.o)
                0x0000000000014540                BLE_IPCoreInit
 .text.LLE_DevInit
                0x00000000000145d4       0x54 d:/BaiduSyncdisk/Edith/墨小孔实习/resband/resistance_band/LIB\libCH57xBLE.a(lle.o)
                0x00000000000145d4                LLE_DevInit
 .text.RF_DevSetChannel
                0x0000000000014628      0x13c d:/BaiduSyncdisk/Edith/墨小孔实习/resband/resistance_band/LIB\libCH57xBLE.a(rf_fh.o)
                0x0000000000014628                RF_DevSetChannel
 .text.RF_FrequencyHoppingChange
                0x0000000000014764       0x98 d:/BaiduSyncdisk/Edith/墨小孔实习/resband/resistance_band/LIB\libCH57xBLE.a(rf_fh.o)
                0x0000000000014764                RF_FrequencyHoppingChange
 .text.RF_Rx    0x00000000000147fc      0x1dc d:/BaiduSyncdisk/Edith/墨小孔实习/resband/resistance_band/LIB\libCH57xBLE.a(rf_fh.o)
                0x00000000000147fc                RF_Rx
 .text.RFEND_Reset
                0x00000000000149d8       0xa8 d:/BaiduSyncdisk/Edith/墨小孔实习/resband/resistance_band/LIB\libCH57xBLE.a(rfend.o)
                0x00000000000149d8                RFEND_Reset
 .text.RFEND_DevInit
                0x0000000000014a80      0x172 d:/BaiduSyncdisk/Edith/墨小孔实习/resband/resistance_band/LIB\libCH57xBLE.a(rfend.o)
                0x0000000000014a80                RFEND_DevInit
 .text.RFEND_RXFilter
                0x0000000000014bf2       0x7c d:/BaiduSyncdisk/Edith/墨小孔实习/resband/resistance_band/LIB\libCH57xBLE.a(rfend.o)
                0x0000000000014bf2                RFEND_RXFilter
 .text.RFEND_RXAdc
                0x0000000000014c6e      0x14c d:/BaiduSyncdisk/Edith/墨小孔实习/resband/resistance_band/LIB\libCH57xBLE.a(rfend.o)
                0x0000000000014c6e                RFEND_RXAdc
 .text.RFEND_TXCtune
                0x0000000000014dba      0xcfc d:/BaiduSyncdisk/Edith/墨小孔实习/resband/resistance_band/LIB\libCH57xBLE.a(rfend.o)
                0x0000000000014dba                RFEND_TXCtune
 .text.RFEND_TXFtune
                0x0000000000015ab6       0x10 d:/BaiduSyncdisk/Edith/墨小孔实习/resband/resistance_band/LIB\libCH57xBLE.a(rfend.o)
                0x0000000000015ab6                RFEND_TXFtune
 .text.API_DisconnectCmd
                0x0000000000015ac6       0x16 d:/BaiduSyncdisk/Edith/墨小孔实习/resband/resistance_band/LIB\libCH57xBLE.a(api_c.o)
                0x0000000000015ac6                API_DisconnectCmd
 .text.API_MD_DisconnectCmd
                0x0000000000015adc        0x2 d:/BaiduSyncdisk/Edith/墨小孔实习/resband/resistance_band/LIB\libCH57xBLE.a(api_c.o)
                0x0000000000015adc                API_MD_DisconnectCmd
 .text.API_HostNumCompletedPktCmd
                0x0000000000015ade       0x34 d:/BaiduSyncdisk/Edith/墨小孔实习/resband/resistance_band/LIB\libCH57xBLE.a(api_c.o)
                0x0000000000015ade                API_HostNumCompletedPktCmd
 .text.API_ReadBDADDRCmd
                0x0000000000015b12       0x24 d:/BaiduSyncdisk/Edith/墨小孔实习/resband/resistance_band/LIB\libCH57xBLE.a(api_c.o)
                0x0000000000015b12                API_ReadBDADDRCmd
 .text.API_LE_ReadBufSizeCmd
                0x0000000000015b36       0x24 d:/BaiduSyncdisk/Edith/墨小孔实习/resband/resistance_band/LIB\libCH57xBLE.a(api_c.o)
                0x0000000000015b36                API_LE_ReadBufSizeCmd
 .text.API_LE_SetRandomAddressCmd
                0x0000000000015b5a       0x22 d:/BaiduSyncdisk/Edith/墨小孔实习/resband/resistance_band/LIB\libCH57xBLE.a(api_c.o)
                0x0000000000015b5a                API_LE_SetRandomAddressCmd
 .text.API_LE_SetAdvParamCmd
                0x0000000000015b7c       0x22 d:/BaiduSyncdisk/Edith/墨小孔实习/resband/resistance_band/LIB\libCH57xBLE.a(api_c.o)
                0x0000000000015b7c                API_LE_SetAdvParamCmd
 .text.API_LE_SetAdvDataCmd
                0x0000000000015b9e       0x22 d:/BaiduSyncdisk/Edith/墨小孔实习/resband/resistance_band/LIB\libCH57xBLE.a(api_c.o)
                0x0000000000015b9e                API_LE_SetAdvDataCmd
 .text.API_LE_SetScanRspDataCmd
                0x0000000000015bc0       0x22 d:/BaiduSyncdisk/Edith/墨小孔实习/resband/resistance_band/LIB\libCH57xBLE.a(api_c.o)
                0x0000000000015bc0                API_LE_SetScanRspDataCmd
 .text.API_LE_SetAdvEnableCmd
                0x0000000000015be2       0x22 d:/BaiduSyncdisk/Edith/墨小孔实习/resband/resistance_band/LIB\libCH57xBLE.a(api_c.o)
                0x0000000000015be2                API_LE_SetAdvEnableCmd
 .text.API_LE_SetScanEnableCmd
                0x0000000000015c04       0x24 d:/BaiduSyncdisk/Edith/墨小孔实习/resband/resistance_band/LIB\libCH57xBLE.a(api_c.o)
                0x0000000000015c04                API_LE_SetScanEnableCmd
 .text.API_LE_CreateConnCancelCmd
                0x0000000000015c28       0x22 d:/BaiduSyncdisk/Edith/墨小孔实习/resband/resistance_band/LIB\libCH57xBLE.a(api_c.o)
                0x0000000000015c28                API_LE_CreateConnCancelCmd
 .text.API_LE_ClearWhiteListCmd
                0x0000000000015c4a       0x24 d:/BaiduSyncdisk/Edith/墨小孔实习/resband/resistance_band/LIB\libCH57xBLE.a(api_c.o)
                0x0000000000015c4a                API_LE_ClearWhiteListCmd
 .text.API_LE_AddWhiteListCmd
                0x0000000000015c6e       0x24 d:/BaiduSyncdisk/Edith/墨小孔实习/resband/resistance_band/LIB\libCH57xBLE.a(api_c.o)
                0x0000000000015c6e                API_LE_AddWhiteListCmd
 .text.API_LE_ConnUpdateCmd
                0x0000000000015c92       0x1e d:/BaiduSyncdisk/Edith/墨小孔实习/resband/resistance_band/LIB\libCH57xBLE.a(api_c.o)
                0x0000000000015c92                API_LE_ConnUpdateCmd
 .text.API_LE_RandCmd
                0x0000000000015cb0       0x24 d:/BaiduSyncdisk/Edith/墨小孔实习/resband/resistance_band/LIB\libCH57xBLE.a(api_c.o)
                0x0000000000015cb0                API_LE_RandCmd
 .text.API_LE_StartEncryptCmd
                0x0000000000015cd4       0x18 d:/BaiduSyncdisk/Edith/墨小孔实习/resband/resistance_band/LIB\libCH57xBLE.a(api_c.o)
                0x0000000000015cd4                API_LE_StartEncryptCmd
 .text.API_LE_LtkReqReplyCmd
                0x0000000000015cec       0x30 d:/BaiduSyncdisk/Edith/墨小孔实习/resband/resistance_band/LIB\libCH57xBLE.a(api_c.o)
                0x0000000000015cec                API_LE_LtkReqReplyCmd
 .text.API_LE_LtkReqNegReplyCmd
                0x0000000000015d1c       0x30 d:/BaiduSyncdisk/Edith/墨小孔实习/resband/resistance_band/LIB\libCH57xBLE.a(api_c.o)
                0x0000000000015d1c                API_LE_LtkReqNegReplyCmd
 .text.API_LE_RemoteConnParamReqReplyCmd
                0x0000000000015d4c       0x30 d:/BaiduSyncdisk/Edith/墨小孔实习/resband/resistance_band/LIB\libCH57xBLE.a(api_c.o)
                0x0000000000015d4c                API_LE_RemoteConnParamReqReplyCmd
 .text.API_LE_RemoteConnParamReqNegReplyCmd
                0x0000000000015d7c       0x32 d:/BaiduSyncdisk/Edith/墨小孔实习/resband/resistance_band/LIB\libCH57xBLE.a(api_c.o)
                0x0000000000015d7c                API_LE_RemoteConnParamReqNegReplyCmd
 .text.API_LE_AddDeviceToResolvingList
                0x0000000000015dae       0x26 d:/BaiduSyncdisk/Edith/墨小孔实习/resband/resistance_band/LIB\libCH57xBLE.a(api_c.o)
                0x0000000000015dae                API_LE_AddDeviceToResolvingList
 .text.API_LE_ClearResolvingList
                0x0000000000015dd4       0x26 d:/BaiduSyncdisk/Edith/墨小孔实习/resband/resistance_band/LIB\libCH57xBLE.a(api_c.o)
                0x0000000000015dd4                API_LE_ClearResolvingList
 .text.API_LE_SetAddressResolvableEnableCmd
                0x0000000000015dfa       0x26 d:/BaiduSyncdisk/Edith/墨小孔实习/resband/resistance_band/LIB\libCH57xBLE.a(api_c.o)
                0x0000000000015dfa                API_LE_SetAddressResolvableEnableCmd
 .text.API_LE_SetResolvableAddressTimeoutCmd
                0x0000000000015e20       0x26 d:/BaiduSyncdisk/Edith/墨小孔实习/resband/resistance_band/LIB\libCH57xBLE.a(api_c.o)
                0x0000000000015e20                API_LE_SetResolvableAddressTimeoutCmd
 .text.API_SendDataPkt
                0x0000000000015e46        0x4 d:/BaiduSyncdisk/Edith/墨小孔实习/resband/resistance_band/LIB\libCH57xBLE.a(api_c.o)
                0x0000000000015e46                API_SendDataPkt
 .text.CreatePRBS9
                0x0000000000015e4a       0x52 d:/BaiduSyncdisk/Edith/墨小孔实习/resband/resistance_band/LIB\libCH57xBLE.a(ctl_input.o)
                0x0000000000015e4a                CreatePRBS9
 .text.CreatePRBS15
                0x0000000000015e9c       0x5a d:/BaiduSyncdisk/Edith/墨小孔实习/resband/resistance_band/LIB\libCH57xBLE.a(ctl_input.o)
                0x0000000000015e9c                CreatePRBS15
 .text.LL_TransmitterTest
                0x0000000000015ef6      0x13a d:/BaiduSyncdisk/Edith/墨小孔实习/resband/resistance_band/LIB\libCH57xBLE.a(ctl_input.o)
                0x0000000000015ef6                LL_TransmitterTest
 .text.LL_Disconnect
                0x0000000000016030       0x3e d:/BaiduSyncdisk/Edith/墨小孔实习/resband/resistance_band/LIB\libCH57xBLE.a(ctl_input.o)
                0x0000000000016030                LL_Disconnect
 .text.LL_MD_Disconnect
                0x000000000001606e       0x28 d:/BaiduSyncdisk/Edith/墨小孔实习/resband/resistance_band/LIB\libCH57xBLE.a(ctl_input.o)
                0x000000000001606e                LL_MD_Disconnect
 .text.LL_ReadBDAddr
                0x0000000000016096       0x24 d:/BaiduSyncdisk/Edith/墨小孔实习/resband/resistance_band/LIB\libCH57xBLE.a(ctl_input.o)
                0x0000000000016096                LL_ReadBDAddr
 .text.LL_LE_ReadBufSize
                0x00000000000160ba       0x20 d:/BaiduSyncdisk/Edith/墨小孔实习/resband/resistance_band/LIB\libCH57xBLE.a(ctl_input.o)
                0x00000000000160ba                LL_LE_ReadBufSize
 .text.LL_SetRandomAddress
                0x00000000000160da       0xae d:/BaiduSyncdisk/Edith/墨小孔实习/resband/resistance_band/LIB\libCH57xBLE.a(ctl_input.o)
                0x00000000000160da                LL_SetRandomAddress
 .text.LL_SetAdvParam
                0x0000000000016188       0xd0 d:/BaiduSyncdisk/Edith/墨小孔实习/resband/resistance_band/LIB\libCH57xBLE.a(ctl_input.o)
                0x0000000000016188                LL_SetAdvParam
 .text.LL_SetAdvData
                0x0000000000016258       0x48 d:/BaiduSyncdisk/Edith/墨小孔实习/resband/resistance_band/LIB\libCH57xBLE.a(ctl_input.o)
                0x0000000000016258                LL_SetAdvData
 .text.LL_SetScanRspData
                0x00000000000162a0       0x48 d:/BaiduSyncdisk/Edith/墨小孔实习/resband/resistance_band/LIB\libCH57xBLE.a(ctl_input.o)
                0x00000000000162a0                LL_SetScanRspData
 .text.LL_SetAdvControl
                0x00000000000162e8      0x10c d:/BaiduSyncdisk/Edith/墨小孔实习/resband/resistance_band/LIB\libCH57xBLE.a(ctl_input.o)
                0x00000000000162e8                LL_SetAdvControl
 .text.LL_SetScanEnable
                0x00000000000163f4       0x94 d:/BaiduSyncdisk/Edith/墨小孔实习/resband/resistance_band/LIB\libCH57xBLE.a(ctl_input.o)
                0x00000000000163f4                LL_SetScanEnable
 .text.LL_CreateConnCancel
                0x0000000000016488       0x26 d:/BaiduSyncdisk/Edith/墨小孔实习/resband/resistance_band/LIB\libCH57xBLE.a(ctl_input.o)
                0x0000000000016488                LL_CreateConnCancel
 .text.LL_RemoteConnParamReqReply
                0x00000000000164ae      0x150 d:/BaiduSyncdisk/Edith/墨小孔实习/resband/resistance_band/LIB\libCH57xBLE.a(ctl_input.o)
                0x00000000000164ae                LL_RemoteConnParamReqReply
 .text.LL_RemoteConnParamReqNegReply
                0x00000000000165fe       0x3a d:/BaiduSyncdisk/Edith/墨小孔实习/resband/resistance_band/LIB\libCH57xBLE.a(ctl_input.o)
                0x00000000000165fe                LL_RemoteConnParamReqNegReply
 .text.LL_AddWhiteListDevice
                0x0000000000016638       0x8a d:/BaiduSyncdisk/Edith/墨小孔实习/resband/resistance_band/LIB\libCH57xBLE.a(ctl_input.o)
                0x0000000000016638                LL_AddWhiteListDevice
 .text.LL_ConnUpdate
                0x00000000000166c2      0x13e d:/BaiduSyncdisk/Edith/墨小孔实习/resband/resistance_band/LIB\libCH57xBLE.a(ctl_input.o)
                0x00000000000166c2                LL_ConnUpdate
 .text.LL_ClearWhiteList
                0x0000000000016800       0x52 d:/BaiduSyncdisk/Edith/墨小孔实习/resband/resistance_band/LIB\libCH57xBLE.a(ctl_input.o)
                0x0000000000016800                LL_ClearWhiteList
 .text.LL_Rand  0x0000000000016852       0x36 d:/BaiduSyncdisk/Edith/墨小孔实习/resband/resistance_band/LIB\libCH57xBLE.a(ctl_input.o)
                0x0000000000016852                LL_Rand
 .text.LL_StartEncrypt
                0x0000000000016888      0x1aa d:/BaiduSyncdisk/Edith/墨小孔实习/resband/resistance_band/LIB\libCH57xBLE.a(ctl_input.o)
                0x0000000000016888                LL_StartEncrypt
 .text.LL_LtkReqReply
                0x0000000000016a32       0xba d:/BaiduSyncdisk/Edith/墨小孔实习/resband/resistance_band/LIB\libCH57xBLE.a(ctl_input.o)
                0x0000000000016a32                LL_LtkReqReply
 .text.LL_LtkReqNegReply
                0x0000000000016aec       0x4a d:/BaiduSyncdisk/Edith/墨小孔实习/resband/resistance_band/LIB\libCH57xBLE.a(ctl_input.o)
                0x0000000000016aec                LL_LtkReqNegReply
 .text.LL_AddDeviceToResolvingList
                0x0000000000016b36       0xac d:/BaiduSyncdisk/Edith/墨小孔实习/resband/resistance_band/LIB\libCH57xBLE.a(ctl_input.o)
                0x0000000000016b36                LL_AddDeviceToResolvingList
 .text.LL_ClearResolvingList
                0x0000000000016be2       0x10 d:/BaiduSyncdisk/Edith/墨小孔实习/resband/resistance_band/LIB\libCH57xBLE.a(ctl_input.o)
                0x0000000000016be2                LL_ClearResolvingList
 .text.LL_SetAddressResolvableEnable
                0x0000000000016bf2       0x54 d:/BaiduSyncdisk/Edith/墨小孔实习/resband/resistance_band/LIB\libCH57xBLE.a(ctl_input.o)
                0x0000000000016bf2                LL_SetAddressResolvableEnable
 .text.LL_SetResolvableAddressTimeout
                0x0000000000016c46       0x4c d:/BaiduSyncdisk/Edith/墨小孔实习/resband/resistance_band/LIB\libCH57xBLE.a(ctl_input.o)
                0x0000000000016c46                LL_SetResolvableAddressTimeout
 .text.LL_SendDataPkt
                0x0000000000016c92       0xa8 d:/BaiduSyncdisk/Edith/墨小孔实习/resband/resistance_band/LIB\libCH57xBLE.a(ctl_input.o)
                0x0000000000016c92                LL_SendDataPkt
 .text.HCI_LE_ConnectionCompleteCback
                0x0000000000016d3a        0xa d:/BaiduSyncdisk/Edith/墨小孔实习/resband/resistance_band/LIB\libCH57xBLE.a(ctl_output.o)
                0x0000000000016d3a                HCI_LE_ConnectionCompleteCback
 .text.HCI_LE_ConnectionUpdateCompleteCback
                0x0000000000016d44        0x4 d:/BaiduSyncdisk/Edith/墨小孔实习/resband/resistance_band/LIB\libCH57xBLE.a(ctl_output.o)
                0x0000000000016d44                HCI_LE_ConnectionUpdateCompleteCback
 .text.HCI_LE_ReadRemoteUsedFeaturesCompleteCback
                0x0000000000016d48        0x4 d:/BaiduSyncdisk/Edith/墨小孔实习/resband/resistance_band/LIB\libCH57xBLE.a(ctl_output.o)
                0x0000000000016d48                HCI_LE_ReadRemoteUsedFeaturesCompleteCback
 .text.HCI_LE_LongTermKeyRequestCback
                0x0000000000016d4c        0x4 d:/BaiduSyncdisk/Edith/墨小孔实习/resband/resistance_band/LIB\libCH57xBLE.a(ctl_output.o)
                0x0000000000016d4c                HCI_LE_LongTermKeyRequestCback
 .text.HCI_LE_RemoteConnectionParameterRequestCback
                0x0000000000016d50        0x4 d:/BaiduSyncdisk/Edith/墨小孔实习/resband/resistance_band/LIB\libCH57xBLE.a(ctl_output.o)
                0x0000000000016d50                HCI_LE_RemoteConnectionParameterRequestCback
 .text.HCI_RemoteConnectionParameterRequestCback
                0x0000000000016d54        0x4 d:/BaiduSyncdisk/Edith/墨小孔实习/resband/resistance_band/LIB\libCH57xBLE.a(ctl_output.o)
                0x0000000000016d54                HCI_RemoteConnectionParameterRequestCback
 .text.HCI_LE_DataLengthChangeCback
                0x0000000000016d58        0x4 d:/BaiduSyncdisk/Edith/墨小孔实习/resband/resistance_band/LIB\libCH57xBLE.a(ctl_output.o)
                0x0000000000016d58                HCI_LE_DataLengthChangeCback
 .text.HCI_LE_EnhancedConnectionCompleteCback
                0x0000000000016d5c       0x16 d:/BaiduSyncdisk/Edith/墨小孔实习/resband/resistance_band/LIB\libCH57xBLE.a(ctl_output.o)
                0x0000000000016d5c                HCI_LE_EnhancedConnectionCompleteCback
 .text.HCI_DisconnectionCompleteCback
                0x0000000000016d72        0x4 d:/BaiduSyncdisk/Edith/墨小孔实习/resband/resistance_band/LIB\libCH57xBLE.a(ctl_output.o)
                0x0000000000016d72                HCI_DisconnectionCompleteCback
 .text.HCI_EncryptionChangeCback
                0x0000000000016d76        0x4 d:/BaiduSyncdisk/Edith/墨小孔实习/resband/resistance_band/LIB\libCH57xBLE.a(ctl_output.o)
                0x0000000000016d76                HCI_EncryptionChangeCback
 .text.HCI_ReadRemoteVersionInfoCback
                0x0000000000016d7a        0x4 d:/BaiduSyncdisk/Edith/墨小孔实习/resband/resistance_band/LIB\libCH57xBLE.a(ctl_output.o)
                0x0000000000016d7a                HCI_ReadRemoteVersionInfoCback
 .text.HCI_CommandCompleteCback
                0x0000000000016d7e        0x4 d:/BaiduSyncdisk/Edith/墨小孔实习/resband/resistance_band/LIB\libCH57xBLE.a(ctl_output.o)
                0x0000000000016d7e                HCI_CommandCompleteCback
 .text.HCI_CommandStatusCback
                0x0000000000016d82        0x4 d:/BaiduSyncdisk/Edith/墨小孔实习/resband/resistance_band/LIB\libCH57xBLE.a(ctl_output.o)
                0x0000000000016d82                HCI_CommandStatusCback
 .text.HCI_NumberOfCompletedPacketsCback
                0x0000000000016d86        0x4 d:/BaiduSyncdisk/Edith/墨小孔实习/resband/resistance_band/LIB\libCH57xBLE.a(ctl_output.o)
                0x0000000000016d86                HCI_NumberOfCompletedPacketsCback
 .text.HCI_DataBufferOverflowCback
                0x0000000000016d8a        0x4 d:/BaiduSyncdisk/Edith/墨小孔实习/resband/resistance_band/LIB\libCH57xBLE.a(ctl_output.o)
                0x0000000000016d8a                HCI_DataBufferOverflowCback
 .text.HCI_EncryptionKeyRefreshCompleteCback
                0x0000000000016d8e        0x4 d:/BaiduSyncdisk/Edith/墨小孔实习/resband/resistance_band/LIB\libCH57xBLE.a(ctl_output.o)
                0x0000000000016d8e                HCI_EncryptionKeyRefreshCompleteCback
 .text.HCI_AuthenticatedPayloadTimeoutExpiredCback
                0x0000000000016d92        0x2 d:/BaiduSyncdisk/Edith/墨小孔实习/resband/resistance_band/LIB\libCH57xBLE.a(ctl_output.o)
                0x0000000000016d92                HCI_AuthenticatedPayloadTimeoutExpiredCback
 .text.HCI_RxDataCompleteCback
                0x0000000000016d94        0x4 d:/BaiduSyncdisk/Edith/墨小孔实习/resband/resistance_band/LIB\libCH57xBLE.a(ctl_output.o)
                0x0000000000016d94                HCI_RxDataCompleteCback
 .text.gapBondMgrInvertCharCfgItem
                0x0000000000016d98       0x24 d:/BaiduSyncdisk/Edith/墨小孔实习/resband/resistance_band/LIB\libCH57xBLE.a(gapbondmgr.o)
 .text.gapBondMgrGetStateFlags
                0x0000000000016dbc       0x2a d:/BaiduSyncdisk/Edith/墨小孔实习/resband/resistance_band/LIB\libCH57xBLE.a(gapbondmgr.o)
 .text.gapBondMgrBondTotal
                0x0000000000016de6       0x4c d:/BaiduSyncdisk/Edith/墨小孔实习/resband/resistance_band/LIB\libCH57xBLE.a(gapbondmgr.o)
 .text.gapBondFreeAuthEvt
                0x0000000000016e32       0x34 d:/BaiduSyncdisk/Edith/墨小孔实习/resband/resistance_band/LIB\libCH57xBLE.a(gapbondmgr.o)
 .text.gapBondMgrEraseBonding
                0x0000000000016e66      0x12a d:/BaiduSyncdisk/Edith/墨小孔实习/resband/resistance_band/LIB\libCH57xBLE.a(gapbondmgr.o)
 .text.gapBondMgrEraseAllBondings
                0x0000000000016f90       0x2a d:/BaiduSyncdisk/Edith/墨小孔实习/resband/resistance_band/LIB\libCH57xBLE.a(gapbondmgr.o)
 .text.gapBondMgr_SyncWhiteList
                0x0000000000016fba       0x4c d:/BaiduSyncdisk/Edith/墨小孔实习/resband/resistance_band/LIB\libCH57xBLE.a(gapbondmgr.o)
 .text.gapBondMgr_SyncResolveList
                0x0000000000017006       0x94 d:/BaiduSyncdisk/Edith/墨小孔实习/resband/resistance_band/LIB\libCH57xBLE.a(gapbondmgr.o)
 .text.gapBondSetupPrivFlag
                0x000000000001709a       0x28 d:/BaiduSyncdisk/Edith/墨小孔实习/resband/resistance_band/LIB\libCH57xBLE.a(gapbondmgr.o)
 .text.gapBondMgrReadBonds
                0x00000000000170c2       0xac d:/BaiduSyncdisk/Edith/墨小孔实习/resband/resistance_band/LIB\libCH57xBLE.a(gapbondmgr.o)
 .text.gapBondMgrSendServiceChange
                0x000000000001716e        0xc d:/BaiduSyncdisk/Edith/墨小孔实习/resband/resistance_band/LIB\libCH57xBLE.a(gapbondmgr.o)
 .text.gapBondMgrBondReq
                0x000000000001717a       0x70 d:/BaiduSyncdisk/Edith/墨小孔实习/resband/resistance_band/LIB\libCH57xBLE.a(gapbondmgr.o)
 .text.gapBondMgrAuthenticate
                0x00000000000171ea      0x158 d:/BaiduSyncdisk/Edith/墨小孔实习/resband/resistance_band/LIB\libCH57xBLE.a(gapbondmgr.o)
 .text.gapBondMgrFindAddr
                0x0000000000017342       0x46 d:/BaiduSyncdisk/Edith/墨小孔实习/resband/resistance_band/LIB\libCH57xBLE.a(gapbondmgr.o)
 .text.gapBondMgrAddBond
                0x0000000000017388      0x1a0 d:/BaiduSyncdisk/Edith/墨小孔实习/resband/resistance_band/LIB\libCH57xBLE.a(gapbondmgr.o)
 .text.gapBondPairStateCB
                0x0000000000017528       0x48 d:/BaiduSyncdisk/Edith/墨小孔实习/resband/resistance_band/LIB\libCH57xBLE.a(gapbondmgr.o)
 .text.gapBondPasscodeCB
                0x0000000000017570       0x82 d:/BaiduSyncdisk/Edith/墨小孔实习/resband/resistance_band/LIB\libCH57xBLE.a(gapbondmgr.o)
 .text.gapBondMgrGetPublicAddr
                0x00000000000175f2       0x4a d:/BaiduSyncdisk/Edith/墨小孔实习/resband/resistance_band/LIB\libCH57xBLE.a(gapbondmgr.o)
 .text.gapBondMgrChangeState.constprop.9
                0x000000000001763c       0x74 d:/BaiduSyncdisk/Edith/墨小孔实习/resband/resistance_band/LIB\libCH57xBLE.a(gapbondmgr.o)
 .text.gapBondMgrUpdateCharCfg
                0x00000000000176b0       0xe6 d:/BaiduSyncdisk/Edith/墨小孔实习/resband/resistance_band/LIB\libCH57xBLE.a(gapbondmgr.o)
 .text.GAPBondMgr_ParamInit
                0x0000000000017796      0x166 d:/BaiduSyncdisk/Edith/墨小孔实习/resband/resistance_band/LIB\libCH57xBLE.a(gapbondmgr.o)
                0x0000000000017796                GAPBondMgr_ParamInit
 .text.GAPBondMgr_Erase
                0x00000000000178fc       0x6a d:/BaiduSyncdisk/Edith/墨小孔实习/resband/resistance_band/LIB\libCH57xBLE.a(gapbondmgr.o)
                0x00000000000178fc                GAPBondMgr_Erase
 .text.GAPBondMgr_GetParameter
                0x0000000000017966       0xf8 d:/BaiduSyncdisk/Edith/墨小孔实习/resband/resistance_band/LIB\libCH57xBLE.a(gapbondmgr.o)
                0x0000000000017966                GAPBondMgr_GetParameter
 .text.GAPBondMgr_LinkTerm
                0x0000000000017a5e       0x9a d:/BaiduSyncdisk/Edith/墨小孔实习/resband/resistance_band/LIB\libCH57xBLE.a(gapbondmgr.o)
                0x0000000000017a5e                GAPBondMgr_LinkTerm
 .text.GAPBondMgr_ResolveAddr
                0x0000000000017af8       0xdc d:/BaiduSyncdisk/Edith/墨小孔实习/resband/resistance_band/LIB\libCH57xBLE.a(gapbondmgr.o)
                0x0000000000017af8                GAPBondMgr_ResolveAddr
 .text.GAPBondMgr_SlaveReqSecurity
                0x0000000000017bd4       0x7a d:/BaiduSyncdisk/Edith/墨小孔实习/resband/resistance_band/LIB\libCH57xBLE.a(gapbondmgr.o)
                0x0000000000017bd4                GAPBondMgr_SlaveReqSecurity
 .text.GAPBondMgr_ServiceChangeInd
                0x0000000000017c4e       0x88 d:/BaiduSyncdisk/Edith/墨小孔实习/resband/resistance_band/LIB\libCH57xBLE.a(gapbondmgr.o)
                0x0000000000017c4e                GAPBondMgr_ServiceChangeInd
 .text.GAPBondMgr_UpdateCharCfg
                0x0000000000017cd6       0x76 d:/BaiduSyncdisk/Edith/墨小孔实习/resband/resistance_band/LIB\libCH57xBLE.a(gapbondmgr.o)
                0x0000000000017cd6                GAPBondMgr_UpdateCharCfg
 .text.GAPBondMgr_PeripheralRegister
                0x0000000000017d4c       0x2e d:/BaiduSyncdisk/Edith/墨小孔实习/resband/resistance_band/LIB\libCH57xBLE.a(gapbondmgr.o)
                0x0000000000017d4c                GAPBondMgr_PeripheralRegister
 .text.GAPBondMgr_PeriSecurityReq
                0x0000000000017d7a       0x18 d:/BaiduSyncdisk/Edith/墨小孔实习/resband/resistance_band/LIB\libCH57xBLE.a(gapbondmgr.o)
                0x0000000000017d7a                GAPBondMgr_PeriSecurityReq
 .text.GAPBondMgr_LinkEst
                0x0000000000017d92      0x14a d:/BaiduSyncdisk/Edith/墨小孔实习/resband/resistance_band/LIB\libCH57xBLE.a(gapbondmgr.o)
                0x0000000000017d92                GAPBondMgr_LinkEst
 .text.GAPBondMgr_Init
                0x0000000000017edc       0x18 d:/BaiduSyncdisk/Edith/墨小孔实习/resband/resistance_band/LIB\libCH57xBLE.a(gapbondmgr.o)
                0x0000000000017edc                GAPBondMgr_Init
 .text.gapBondMgr_SyncResolveListUpdate
                0x0000000000017ef4       0xc0 d:/BaiduSyncdisk/Edith/墨小孔实习/resband/resistance_band/LIB\libCH57xBLE.a(gapbondmgr.o)
                0x0000000000017ef4                gapBondMgr_SyncResolveListUpdate
 .text.GAPBondMgr_SetParameter
                0x0000000000017fb4      0x4ba d:/BaiduSyncdisk/Edith/墨小孔实习/resband/resistance_band/LIB\libCH57xBLE.a(gapbondmgr.o)
                0x0000000000017fb4                GAPBondMgr_SetParameter
 .text.GAPBondMgr_ProcessGAPMsg
                0x000000000001846e      0x28e d:/BaiduSyncdisk/Edith/墨小孔实习/resband/resistance_band/LIB\libCH57xBLE.a(gapbondmgr.o)
                0x000000000001846e                GAPBondMgr_ProcessGAPMsg
 .text.GAPBondMgr_ProcessEvent
                0x00000000000186fc      0x1c0 d:/BaiduSyncdisk/Edith/墨小孔实习/resband/resistance_band/LIB\libCH57xBLE.a(gapbondmgr.o)
                0x00000000000186fc                GAPBondMgr_ProcessEvent
 .text.gapRole_PeripheralProcessTMOSMsg
                0x00000000000188bc      0x270 d:/BaiduSyncdisk/Edith/墨小孔实习/resband/resistance_band/LIB\libCH57xBLE.a(peripheral.o)
 .text.GAPRole_PeripheralProcessEvent
                0x0000000000018b2c      0x18e d:/BaiduSyncdisk/Edith/墨小孔实习/resband/resistance_band/LIB\libCH57xBLE.a(peripheral.o)
                0x0000000000018b2c                GAPRole_PeripheralProcessEvent
 .text.GAPRole_PeripheralConnParamUpdateReq
                0x0000000000018cba       0x6a d:/BaiduSyncdisk/Edith/墨小孔实习/resband/resistance_band/LIB\libCH57xBLE.a(peripheral.o)
                0x0000000000018cba                GAPRole_PeripheralConnParamUpdateReq
 .text.GAPRole_PeripheralStartDevice
                0x0000000000018d24       0x56 d:/BaiduSyncdisk/Edith/墨小孔实习/resband/resistance_band/LIB\libCH57xBLE.a(peripheral.o)
                0x0000000000018d24                GAPRole_PeripheralStartDevice
 .text.GAPRole_PeripheralEnable
                0x0000000000018d7a       0xec d:/BaiduSyncdisk/Edith/墨小孔实习/resband/resistance_band/LIB\libCH57xBLE.a(peripheral.o)
                0x0000000000018d7a                GAPRole_PeripheralEnable
 .text.GAPRole_ParamInit
                0x0000000000018e66       0xa4 d:/BaiduSyncdisk/Edith/墨小孔实习/resband/resistance_band/LIB\libCH57xBLE.a(role.o)
                0x0000000000018e66                GAPRole_ParamInit
 .text.GAPRole_GetParameter
                0x0000000000018f0a       0xdc d:/BaiduSyncdisk/Edith/墨小孔实习/resband/resistance_band/LIB\libCH57xBLE.a(role.o)
                0x0000000000018f0a                GAPRole_GetParameter
 .text.GAPRole_SetParameter
                0x0000000000018fe6      0x268 d:/BaiduSyncdisk/Edith/墨小孔实习/resband/resistance_band/LIB\libCH57xBLE.a(role.o)
                0x0000000000018fe6                GAPRole_SetParameter
 .text.GAPRole_PeripheralInit
                0x000000000001924e       0x70 d:/BaiduSyncdisk/Edith/墨小孔实习/resband/resistance_band/LIB\libCH57xBLE.a(role.o)
                0x000000000001924e                GAPRole_PeripheralInit
 .text.tmos_memory_init
                0x00000000000192be       0x5a d:/BaiduSyncdisk/Edith/墨小孔实习/resband/resistance_band/LIB\libCH57xBLE.a(memory.o)
                0x00000000000192be                tmos_memory_init
 .text.tmos_bm_adjust_header
                0x0000000000019318       0x34 d:/BaiduSyncdisk/Edith/墨小孔实习/resband/resistance_band/LIB\libCH57xBLE.a(memory.o)
                0x0000000000019318                tmos_bm_adjust_header
 .text.ATT_BuildErrorRsp
                0x000000000001934c       0x26 d:/BaiduSyncdisk/Edith/墨小孔实习/resband/resistance_band/LIB\libCH57xBLE.a(att.o)
                0x000000000001934c                ATT_BuildErrorRsp
 .text.ATT_ParamInit
                0x0000000000019372        0xa d:/BaiduSyncdisk/Edith/墨小孔实习/resband/resistance_band/LIB\libCH57xBLE.a(att.o)
                0x0000000000019372                ATT_ParamInit
 .text.ATT_ConvertUUIDto128
                0x000000000001937c       0x46 d:/BaiduSyncdisk/Edith/墨小孔实习/resband/resistance_band/LIB\libCH57xBLE.a(att.o)
                0x000000000001937c                ATT_ConvertUUIDto128
 .text.ATT_CompareUUID
                0x00000000000193c2       0x66 d:/BaiduSyncdisk/Edith/墨小孔实习/resband/resistance_band/LIB\libCH57xBLE.a(att.o)
                0x00000000000193c2                ATT_CompareUUID
 .text.ATT_RegisterServer
                0x0000000000019428        0x6 d:/BaiduSyncdisk/Edith/墨小孔实习/resband/resistance_band/LIB\libCH57xBLE.a(att.o)
                0x0000000000019428                ATT_RegisterServer
 .text.ATT_ParsePacket
                0x000000000001942e       0x94 d:/BaiduSyncdisk/Edith/墨小孔实习/resband/resistance_band/LIB\libCH57xBLE.a(att.o)
                0x000000000001942e                ATT_ParsePacket
 .text.ATT_UpdateMTU
                0x00000000000194c2       0x3c d:/BaiduSyncdisk/Edith/墨小孔实习/resband/resistance_band/LIB\libCH57xBLE.a(att.o)
                0x00000000000194c2                ATT_UpdateMTU
 .text.ATT_GetMTU
                0x00000000000194fe       0x1e d:/BaiduSyncdisk/Edith/墨小孔实习/resband/resistance_band/LIB\libCH57xBLE.a(att.o)
                0x00000000000194fe                ATT_GetMTU
 .text.attSendMsg
                0x000000000001951c       0xb8 d:/BaiduSyncdisk/Edith/墨小孔实习/resband/resistance_band/LIB\libCH57xBLE.a(att.o)
                0x000000000001951c                attSendMsg
 .text.attSendRspMsg
                0x00000000000195d4       0x48 d:/BaiduSyncdisk/Edith/墨小孔实习/resband/resistance_band/LIB\libCH57xBLE.a(att.o)
                0x00000000000195d4                attSendRspMsg
 .text.ATT_ErrorRsp
                0x000000000001961c       0x12 d:/BaiduSyncdisk/Edith/墨小孔实习/resband/resistance_band/LIB\libCH57xBLE.a(att.o)
                0x000000000001961c                ATT_ErrorRsp
 .text.ATT_BuildExchangeMTURsp
                0x000000000001962e       0x16 d:/BaiduSyncdisk/Edith/墨小孔实习/resband/resistance_band/LIB\libCH57xBLE.a(att_server.o)
                0x000000000001962e                ATT_BuildExchangeMTURsp
 .text.ATT_BuildFindInfoRsp
                0x0000000000019644       0x24 d:/BaiduSyncdisk/Edith/墨小孔实习/resband/resistance_band/LIB\libCH57xBLE.a(att_server.o)
                0x0000000000019644                ATT_BuildFindInfoRsp
 .text.ATT_BuildFindByTypeValueRsp
                0x0000000000019668        0xc d:/BaiduSyncdisk/Edith/墨小孔实习/resband/resistance_band/LIB\libCH57xBLE.a(att_server.o)
                0x0000000000019668                ATT_BuildFindByTypeValueRsp
 .text.ATT_BuildReadByTypeRsp
                0x0000000000019674       0x1c d:/BaiduSyncdisk/Edith/墨小孔实习/resband/resistance_band/LIB\libCH57xBLE.a(att_server.o)
                0x0000000000019674                ATT_BuildReadByTypeRsp
 .text.ATT_BuildReadRsp
                0x0000000000019690        0x6 d:/BaiduSyncdisk/Edith/墨小孔实习/resband/resistance_band/LIB\libCH57xBLE.a(att_server.o)
                0x0000000000019690                ATT_BuildReadRsp
 .text.ATT_BuildReadBlobRsp
                0x0000000000019696        0x6 d:/BaiduSyncdisk/Edith/墨小孔实习/resband/resistance_band/LIB\libCH57xBLE.a(att_server.o)
                0x0000000000019696                ATT_BuildReadBlobRsp
 .text.ATT_BuildReadMultiRsp
                0x000000000001969c        0x6 d:/BaiduSyncdisk/Edith/墨小孔实习/resband/resistance_band/LIB\libCH57xBLE.a(att_server.o)
                0x000000000001969c                ATT_BuildReadMultiRsp
 .text.ATT_BuildReadByGrpTypeRsp
                0x00000000000196a2       0x1c d:/BaiduSyncdisk/Edith/墨小孔实习/resband/resistance_band/LIB\libCH57xBLE.a(att_server.o)
                0x00000000000196a2                ATT_BuildReadByGrpTypeRsp
 .text.ATT_BuildPrepareWriteRsp
                0x00000000000196be       0x30 d:/BaiduSyncdisk/Edith/墨小孔实习/resband/resistance_band/LIB\libCH57xBLE.a(att_server.o)
                0x00000000000196be                ATT_BuildPrepareWriteRsp
 .text.ATT_BuildHandleValueInd
                0x00000000000196ee       0x1e d:/BaiduSyncdisk/Edith/墨小孔实习/resband/resistance_band/LIB\libCH57xBLE.a(att_server.o)
                0x00000000000196ee                ATT_BuildHandleValueInd
 .text.ATT_ParseExchangeMTUReq
                0x000000000001970c       0x1c d:/BaiduSyncdisk/Edith/墨小孔实习/resband/resistance_band/LIB\libCH57xBLE.a(att_server.o)
                0x000000000001970c                ATT_ParseExchangeMTUReq
 .text.ATT_ExchangeMTURsp
                0x0000000000019728       0x20 d:/BaiduSyncdisk/Edith/墨小孔实习/resband/resistance_band/LIB\libCH57xBLE.a(att_server.o)
                0x0000000000019728                ATT_ExchangeMTURsp
 .text.ATT_ParseFindInfoReq
                0x0000000000019748       0x2a d:/BaiduSyncdisk/Edith/墨小孔实习/resband/resistance_band/LIB\libCH57xBLE.a(att_server.o)
                0x0000000000019748                ATT_ParseFindInfoReq
 .text.ATT_FindInfoRsp
                0x0000000000019772       0x52 d:/BaiduSyncdisk/Edith/墨小孔实习/resband/resistance_band/LIB\libCH57xBLE.a(att_server.o)
                0x0000000000019772                ATT_FindInfoRsp
 .text.ATT_ParseFindByTypeValueReq
                0x00000000000197c4       0x78 d:/BaiduSyncdisk/Edith/墨小孔实习/resband/resistance_band/LIB\libCH57xBLE.a(att_server.o)
                0x00000000000197c4                ATT_ParseFindByTypeValueReq
 .text.ATT_FindByTypeValueRsp
                0x000000000001983c       0x42 d:/BaiduSyncdisk/Edith/墨小孔实习/resband/resistance_band/LIB\libCH57xBLE.a(att_server.o)
                0x000000000001983c                ATT_FindByTypeValueRsp
 .text.ATT_ParseReadByTypeReq
                0x000000000001987e       0x5a d:/BaiduSyncdisk/Edith/墨小孔实习/resband/resistance_band/LIB\libCH57xBLE.a(att_server.o)
                0x000000000001987e                ATT_ParseReadByTypeReq
 .text.ATT_ReadByTypeRsp
                0x00000000000198d8       0x42 d:/BaiduSyncdisk/Edith/墨小孔实习/resband/resistance_band/LIB\libCH57xBLE.a(att_server.o)
                0x00000000000198d8                ATT_ReadByTypeRsp
 .text.ATT_ParseReadReq
                0x000000000001991a       0x1c d:/BaiduSyncdisk/Edith/墨小孔实习/resband/resistance_band/LIB\libCH57xBLE.a(att_server.o)
                0x000000000001991a                ATT_ParseReadReq
 .text.ATT_ReadRsp
                0x0000000000019936       0x32 d:/BaiduSyncdisk/Edith/墨小孔实习/resband/resistance_band/LIB\libCH57xBLE.a(att_server.o)
                0x0000000000019936                ATT_ReadRsp
 .text.ATT_ParseReadBlobReq
                0x0000000000019968       0x2a d:/BaiduSyncdisk/Edith/墨小孔实习/resband/resistance_band/LIB\libCH57xBLE.a(att_server.o)
                0x0000000000019968                ATT_ParseReadBlobReq
 .text.ATT_ReadBlobRsp
                0x0000000000019992       0x30 d:/BaiduSyncdisk/Edith/墨小孔实习/resband/resistance_band/LIB\libCH57xBLE.a(att_server.o)
                0x0000000000019992                ATT_ReadBlobRsp
 .text.ATT_ParseReadMultiReq
                0x00000000000199c2       0x1a d:/BaiduSyncdisk/Edith/墨小孔实习/resband/resistance_band/LIB\libCH57xBLE.a(att_server.o)
                0x00000000000199c2                ATT_ParseReadMultiReq
 .text.ATT_ReadMultiRsp
                0x00000000000199dc       0x38 d:/BaiduSyncdisk/Edith/墨小孔实习/resband/resistance_band/LIB\libCH57xBLE.a(att_server.o)
                0x00000000000199dc                ATT_ReadMultiRsp
 .text.ATT_ReadByGrpTypeRsp
                0x0000000000019a14       0x42 d:/BaiduSyncdisk/Edith/墨小孔实习/resband/resistance_band/LIB\libCH57xBLE.a(att_server.o)
                0x0000000000019a14                ATT_ReadByGrpTypeRsp
 .text.ATT_ParseWriteReq
                0x0000000000019a56       0x3e d:/BaiduSyncdisk/Edith/墨小孔实习/resband/resistance_band/LIB\libCH57xBLE.a(att_server.o)
                0x0000000000019a56                ATT_ParseWriteReq
 .text.ATT_WriteRsp
                0x0000000000019a94        0xc d:/BaiduSyncdisk/Edith/墨小孔实习/resband/resistance_band/LIB\libCH57xBLE.a(att_server.o)
                0x0000000000019a94                ATT_WriteRsp
 .text.ATT_ParsePrepareWriteReq
                0x0000000000019aa0       0x42 d:/BaiduSyncdisk/Edith/墨小孔实习/resband/resistance_band/LIB\libCH57xBLE.a(att_server.o)
                0x0000000000019aa0                ATT_ParsePrepareWriteReq
 .text.ATT_PrepareWriteRsp
                0x0000000000019ae2       0x30 d:/BaiduSyncdisk/Edith/墨小孔实习/resband/resistance_band/LIB\libCH57xBLE.a(att_server.o)
                0x0000000000019ae2                ATT_PrepareWriteRsp
 .text.ATT_ParseExecuteWriteReq
                0x0000000000019b12       0x14 d:/BaiduSyncdisk/Edith/墨小孔实习/resband/resistance_band/LIB\libCH57xBLE.a(att_server.o)
                0x0000000000019b12                ATT_ParseExecuteWriteReq
 .text.ATT_ExecuteWriteRsp
                0x0000000000019b26        0xc d:/BaiduSyncdisk/Edith/墨小孔实习/resband/resistance_band/LIB\libCH57xBLE.a(att_server.o)
                0x0000000000019b26                ATT_ExecuteWriteRsp
 .text.ATT_HandleValueNoti
                0x0000000000019b32       0x32 d:/BaiduSyncdisk/Edith/墨小孔实习/resband/resistance_band/LIB\libCH57xBLE.a(att_server.o)
                0x0000000000019b32                ATT_HandleValueNoti
 .text.ATT_HandleValueInd
                0x0000000000019b64       0x32 d:/BaiduSyncdisk/Edith/墨小孔实习/resband/resistance_band/LIB\libCH57xBLE.a(att_server.o)
                0x0000000000019b64                ATT_HandleValueInd
 .text.ll_get_prime_number
                0x0000000000019b96       0x3c d:/BaiduSyncdisk/Edith/墨小孔实习/resband/resistance_band/LIB\libCH57xBLE.a(ll.o)
                0x0000000000019b96                ll_get_prime_number
 .text.LL_ProcessEvent
                0x0000000000019bd2      0x130 d:/BaiduSyncdisk/Edith/墨小孔实习/resband/resistance_band/LIB\libCH57xBLE.a(ll.o)
                0x0000000000019bd2                LL_ProcessEvent
 .text.LL_Init  0x0000000000019d02       0xb2 d:/BaiduSyncdisk/Edith/墨小孔实习/resband/resistance_band/LIB\libCH57xBLE.a(ll.o)
                0x0000000000019d02                LL_Init
 .text.llAdvertiseSet
                0x0000000000019db4      0x152 d:/BaiduSyncdisk/Edith/墨小孔实习/resband/resistance_band/LIB\libCH57xBLE.a(ll_advertise.o)
                0x0000000000019db4                llAdvertiseSet
 .text.llAdvertiseCreateCore
                0x0000000000019f06       0x78 d:/BaiduSyncdisk/Edith/墨小孔实习/resband/resistance_band/LIB\libCH57xBLE.a(ll_advertise.o)
 .text.ll_advertise_tx
                0x0000000000019f7e      0x280 d:/BaiduSyncdisk/Edith/墨小孔实习/resband/resistance_band/LIB\libCH57xBLE.a(ll_advertise.o)
 .text.llAdvTraverseallChannel
                0x000000000001a1fe       0x88 d:/BaiduSyncdisk/Edith/墨小孔实习/resband/resistance_band/LIB\libCH57xBLE.a(ll_advertise.o)
                0x000000000001a1fe                llAdvTraverseallChannel
 .text.llAdvertiseStart
                0x000000000001a286       0xde d:/BaiduSyncdisk/Edith/墨小孔实习/resband/resistance_band/LIB\libCH57xBLE.a(ll_advertise.o)
                0x000000000001a286                llAdvertiseStart
 .text.ll_advertise_filter
                0x000000000001a364      0x156 d:/BaiduSyncdisk/Edith/墨小孔实习/resband/resistance_band/LIB\libCH57xBLE.a(ll_advertise.o)
                0x000000000001a364                ll_advertise_filter
 .text.LL_AdvertiseToStandby
                0x000000000001a4ba       0x7e d:/BaiduSyncdisk/Edith/墨小孔实习/resband/resistance_band/LIB\libCH57xBLE.a(ll_advertise.o)
                0x000000000001a4ba                LL_AdvertiseToStandby
 .text.ll_advertise_process
                0x000000000001a538      0x434 d:/BaiduSyncdisk/Edith/墨小孔实习/resband/resistance_band/LIB\libCH57xBLE.a(ll_advertise.o)
                0x000000000001a538                ll_advertise_process
 .text.LL_AdvertiseDirectTimeout
                0x000000000001a96c       0x1a d:/BaiduSyncdisk/Edith/墨小孔实习/resband/resistance_band/LIB\libCH57xBLE.a(ll_advertise.o)
                0x000000000001a96c                LL_AdvertiseDirectTimeout
 .text.LL_AdvertiseEnalbe
                0x000000000001a986       0x46 d:/BaiduSyncdisk/Edith/墨小孔实习/resband/resistance_band/LIB\libCH57xBLE.a(ll_advertise.o)
                0x000000000001a986                LL_AdvertiseEnalbe
 .text.LL_InitiateToStandby
                0x000000000001a9cc       0x94 d:/BaiduSyncdisk/Edith/墨小孔实习/resband/resistance_band/LIB\libCH57xBLE.a(ll_initiate.o)
                0x000000000001a9cc                LL_InitiateToStandby
 .text.ll_resolvinglist_checkRPA
                0x000000000001aa60       0x6c d:/BaiduSyncdisk/Edith/墨小孔实习/resband/resistance_band/LIB\libCH57xBLE.a(ll_resolvinglist.o)
                0x000000000001aa60                ll_resolvinglist_checkRPA
 .text.ll_resolvinglist_renew_rpa
                0x000000000001aacc       0x4a d:/BaiduSyncdisk/Edith/墨小孔实习/resband/resistance_band/LIB\libCH57xBLE.a(ll_resolvinglist.o)
                0x000000000001aacc                ll_resolvinglist_renew_rpa
 .text.ll_resolvinglist_renew_set
                0x000000000001ab16       0x12 d:/BaiduSyncdisk/Edith/墨小孔实习/resband/resistance_band/LIB\libCH57xBLE.a(ll_resolvinglist.o)
                0x000000000001ab16                ll_resolvinglist_renew_set
 .text.ll_resolvinglist_timeout_renew_rpa
                0x000000000001ab28       0x58 d:/BaiduSyncdisk/Edith/墨小孔实习/resband/resistance_band/LIB\libCH57xBLE.a(ll_resolvinglist.o)
                0x000000000001ab28                ll_resolvinglist_timeout_renew_rpa
 .text.LL_ResolvinglistAdd
                0x000000000001ab80      0x146 d:/BaiduSyncdisk/Edith/墨小孔实习/resband/resistance_band/LIB\libCH57xBLE.a(ll_resolvinglist.o)
                0x000000000001ab80                LL_ResolvinglistAdd
 .text.LL_ResolvinglistClearall
                0x000000000001acc6       0x52 d:/BaiduSyncdisk/Edith/墨小孔实习/resband/resistance_band/LIB\libCH57xBLE.a(ll_resolvinglist.o)
                0x000000000001acc6                LL_ResolvinglistClearall
 .text.LL_ResolvinglistPeerIdentifyAddressGetIrk
                0x000000000001ad18       0x52 d:/BaiduSyncdisk/Edith/墨小孔实习/resband/resistance_band/LIB\libCH57xBLE.a(ll_resolvinglist.o)
                0x000000000001ad18                LL_ResolvinglistPeerIdentifyAddressGetIrk
 .text.LL_ResolvinglistPeerRpaAddressGetIrk
                0x000000000001ad6a       0x3c d:/BaiduSyncdisk/Edith/墨小孔实习/resband/resistance_band/LIB\libCH57xBLE.a(ll_resolvinglist.o)
                0x000000000001ad6a                LL_ResolvinglistPeerRpaAddressGetIrk
 .text.LL_ResolvinglistInit
                0x000000000001ada6       0x12 d:/BaiduSyncdisk/Edith/墨小孔实习/resband/resistance_band/LIB\libCH57xBLE.a(ll_resolvinglist.o)
                0x000000000001ada6                LL_ResolvinglistInit
 .text.LL_AddrGenerateResolvableAddress
                0x000000000001adb8       0x9c d:/BaiduSyncdisk/Edith/墨小孔实习/resband/resistance_band/LIB\libCH57xBLE.a(ll_address.o)
                0x000000000001adb8                LL_AddrGenerateResolvableAddress
 .text.LL_AddrInit
                0x000000000001ae54      0x12e d:/BaiduSyncdisk/Edith/墨小孔实习/resband/resistance_band/LIB\libCH57xBLE.a(ll_address.o)
                0x000000000001ae54                LL_AddrInit
 .text.__lshrdi3
                0x000000000001af82       0x2c d:/lenovosoftstore/install/mounriver_studio2/resources/app/resources/win32/components/wch/toolchain/risc-v embedded gcc/bin/../lib/gcc/riscv-none-embed/8.2.0/rv32imac/ilp32\libgcc.a(_lshrdi3.o)
                0x000000000001af82                __lshrdi3
 .text.__udivdi3
                0x000000000001afae      0x398 d:/lenovosoftstore/install/mounriver_studio2/resources/app/resources/win32/components/wch/toolchain/risc-v embedded gcc/bin/../lib/gcc/riscv-none-embed/8.2.0/rv32imac/ilp32\libgcc.a(_udivdi3.o)
                0x000000000001afae                __udivdi3
 .text.__muldf3
                0x000000000001b346      0x4b4 d:/lenovosoftstore/install/mounriver_studio2/resources/app/resources/win32/components/wch/toolchain/risc-v embedded gcc/bin/../lib/gcc/riscv-none-embed/8.2.0/rv32imac/ilp32\libgcc.a(muldf3.o)
                0x000000000001b346                __muldf3
 .text.__floatsidf
                0x000000000001b7fa       0x70 d:/lenovosoftstore/install/mounriver_studio2/resources/app/resources/win32/components/wch/toolchain/risc-v embedded gcc/bin/../lib/gcc/riscv-none-embed/8.2.0/rv32imac/ilp32\libgcc.a(floatsidf.o)
                0x000000000001b7fa                __floatsidf
 .text.__mulsf3
                0x000000000001b86a      0x290 d:/lenovosoftstore/install/mounriver_studio2/resources/app/resources/win32/components/wch/toolchain/risc-v embedded gcc/bin/../lib/gcc/riscv-none-embed/8.2.0/rv32imac/ilp32\libgcc.a(mulsf3.o)
                0x000000000001b86a                __mulsf3
 .text.__fixsfsi
                0x000000000001bafa       0x62 d:/lenovosoftstore/install/mounriver_studio2/resources/app/resources/win32/components/wch/toolchain/risc-v embedded gcc/bin/../lib/gcc/riscv-none-embed/8.2.0/rv32imac/ilp32\libgcc.a(fixsfsi.o)
                0x000000000001bafa                __fixsfsi
 .text.__floatsisf
                0x000000000001bb5c       0xc6 d:/lenovosoftstore/install/mounriver_studio2/resources/app/resources/win32/components/wch/toolchain/risc-v embedded gcc/bin/../lib/gcc/riscv-none-embed/8.2.0/rv32imac/ilp32\libgcc.a(floatsisf.o)
                0x000000000001bb5c                __floatsisf
 .text.__truncdfsf2
                0x000000000001bc22      0x16a d:/lenovosoftstore/install/mounriver_studio2/resources/app/resources/win32/components/wch/toolchain/risc-v embedded gcc/bin/../lib/gcc/riscv-none-embed/8.2.0/rv32imac/ilp32\libgcc.a(truncdfsf2.o)
                0x000000000001bc22                __truncdfsf2
 .text.__clzsi2
                0x000000000001bd8c       0x76 d:/lenovosoftstore/install/mounriver_studio2/resources/app/resources/win32/components/wch/toolchain/risc-v embedded gcc/bin/../lib/gcc/riscv-none-embed/8.2.0/rv32imac/ilp32\libgcc.a(_clzsi2.o)
                0x000000000001bd8c                __clzsi2
 .text.memcpy   0x000000000001be02       0xb6 d:/lenovosoftstore/install/mounriver_studio2/resources/app/resources/win32/components/wch/toolchain/risc-v embedded gcc/bin/../lib/gcc/riscv-none-embed/8.2.0/../../../../riscv-none-embed/lib/rv32imac/ilp32\libg_nano.a(lib_a-memcpy.o)
                0x000000000001be02                memcpy
 *(.rodata)
 *(.rodata*)
 .rodata.Calibration_LSI_FLASH.cst4
                0x000000000001beb8        0x4 ./StdPeriphDriver/CH57x_clk.o
 *fill*         0x000000000001bebc        0x4 
 .rodata.Calibration_LSI_FLASH.cst8
                0x000000000001bec0       0x10 ./StdPeriphDriver/CH57x_clk.o
 .rodata.GPIOB_ModeCfg
                0x000000000001bed0       0x14 ./StdPeriphDriver/CH57x_gpio.o
 .rodata.devInfo11073Cert
                0x000000000001bee4        0xe ./Profile/devinfoservice.o
 *fill*         0x000000000001bef2        0x2 
 .rodata.devInfoFirmwareRev
                0x000000000001bef4       0x12 ./Profile/devinfoservice.o
 *fill*         0x000000000001bf06        0x2 
 .rodata.devInfoHardwareRev
                0x000000000001bf08       0x12 ./Profile/devinfoservice.o
 *fill*         0x000000000001bf1a        0x2 
 .rodata.devInfoMfrName
                0x000000000001bf1c       0x12 ./Profile/devinfoservice.o
 *fill*         0x000000000001bf2e        0x2 
 .rodata.devInfoModelNumber
                0x000000000001bf30        0xd ./Profile/devinfoservice.o
 *fill*         0x000000000001bf3d        0x3 
 .rodata.devInfoSerialNumber
                0x000000000001bf40        0xe ./Profile/devinfoservice.o
 *fill*         0x000000000001bf4e        0x2 
 .rodata.devInfoSoftwareRev
                0x000000000001bf50       0x12 ./Profile/devinfoservice.o
 *fill*         0x000000000001bf62        0x2 
 .rodata.HalLedSet
                0x000000000001bf64       0x24 ./HAL/LED.o
 .rodata.CH57X_BLEInit.str1.4
                0x000000000001bf88       0x14 ./HAL/MCU.o
                                         0x13 (size before relaxing)
 .rodata.GGS_SetParameter
                0x000000000001bf9c       0x28 d:/BaiduSyncdisk/Edith/墨小孔实习/resband/resistance_band/LIB\libCH57xBLE.a(gapgattserver.o)
 .rodata.GAP_DeviceInit
                0x000000000001bfc4       0x30 d:/BaiduSyncdisk/Edith/墨小孔实习/resband/resistance_band/LIB\libCH57xBLE.a(gapgattserver.o)
 .rodata.serverReqTbl
                0x000000000001bff4       0x60 d:/BaiduSyncdisk/Edith/墨小孔实习/resband/resistance_band/LIB\libCH57xBLE.a(gattservapp.o)
                0x000000000001bff4                serverReqTbl
 .rodata.smpInitiatorProcessIncoming
                0x000000000001c054       0x28 d:/BaiduSyncdisk/Edith/墨小孔实习/resband/resistance_band/LIB\libCH57xBLE.a(sm.o)
 .rodata.smProcessDataMsg
                0x000000000001c07c       0x2c d:/BaiduSyncdisk/Edith/墨小孔实习/resband/resistance_band/LIB\libCH57xBLE.a(sm.o)
 .rodata.smpResponderProcessIncoming
                0x000000000001c0a8       0x28 d:/BaiduSyncdisk/Edith/墨小孔实习/resband/resistance_band/LIB\libCH57xBLE.a(sm.o)
 .rodata.IOCapMatrix
                0x000000000001c0d0       0x19 d:/BaiduSyncdisk/Edith/墨小孔实习/resband/resistance_band/LIB\libCH57xBLE.a(sm.o)
                0x000000000001c0d0                IOCapMatrix
 *fill*         0x000000000001c0e9        0x3 
 .rodata.const_Rb
                0x000000000001c0ec       0x10 d:/BaiduSyncdisk/Edith/墨小孔实习/resband/resistance_band/LIB\libCH57xBLE.a(sm.o)
                0x000000000001c0ec                const_Rb
 .rodata.SCA    0x000000000001c0fc       0x10 d:/BaiduSyncdisk/Edith/墨小孔实习/resband/resistance_band/LIB\libCH57xBLE.a(ll_slave.o)
                0x000000000001c0fc                SCA
 .rodata.VER_LIB
                0x000000000001c10c       0x14 d:/BaiduSyncdisk/Edith/墨小孔实习/resband/resistance_band/LIB\libCH57xBLE.a(ip.o)
                0x000000000001c10c                VER_LIB
 .rodata.GAPBondMgr_GetParameter
                0x000000000001c120       0x80 d:/BaiduSyncdisk/Edith/墨小孔实习/resband/resistance_band/LIB\libCH57xBLE.a(gapbondmgr.o)
 .rodata.GAPBondMgr_SetParameter
                0x000000000001c1a0       0x84 d:/BaiduSyncdisk/Edith/墨小孔实习/resband/resistance_band/LIB\libCH57xBLE.a(gapbondmgr.o)
 .rodata.GAPBondMgr_ProcessGAPMsg
                0x000000000001c224       0x28 d:/BaiduSyncdisk/Edith/墨小孔实习/resband/resistance_band/LIB\libCH57xBLE.a(gapbondmgr.o)
 .rodata.gapRole_PeripheralProcessTMOSMsg
                0x000000000001c24c       0x20 d:/BaiduSyncdisk/Edith/墨小孔实习/resband/resistance_band/LIB\libCH57xBLE.a(peripheral.o)
 .rodata.GAPRole_GetParameter
                0x000000000001c26c       0x4c d:/BaiduSyncdisk/Edith/墨小孔实习/resband/resistance_band/LIB\libCH57xBLE.a(role.o)
 .rodata.GAPRole_SetParameter
                0x000000000001c2b8       0x48 d:/BaiduSyncdisk/Edith/墨小孔实习/resband/resistance_band/LIB\libCH57xBLE.a(role.o)
 .rodata.btBaseUUID
                0x000000000001c300       0x10 d:/BaiduSyncdisk/Edith/墨小孔实习/resband/resistance_band/LIB\libCH57xBLE.a(att.o)
                0x000000000001c300                btBaseUUID
 .rodata.PrimeNumber
                0x000000000001c310       0x17 d:/BaiduSyncdisk/Edith/墨小孔实习/resband/resistance_band/LIB\libCH57xBLE.a(ll.o)
                0x000000000001c310                PrimeNumber
 *fill*         0x000000000001c327        0x1 
 .rodata.__muldf3
                0x000000000001c328       0x40 d:/lenovosoftstore/install/mounriver_studio2/resources/app/resources/win32/components/wch/toolchain/risc-v embedded gcc/bin/../lib/gcc/riscv-none-embed/8.2.0/rv32imac/ilp32\libgcc.a(muldf3.o)
 .rodata.__mulsf3
                0x000000000001c368       0x40 d:/lenovosoftstore/install/mounriver_studio2/resources/app/resources/win32/components/wch/toolchain/risc-v embedded gcc/bin/../lib/gcc/riscv-none-embed/8.2.0/rv32imac/ilp32\libgcc.a(mulsf3.o)
 .rodata.__clz_tab
                0x000000000001c3a8      0x100 d:/lenovosoftstore/install/mounriver_studio2/resources/app/resources/win32/components/wch/toolchain/risc-v embedded gcc/bin/../lib/gcc/riscv-none-embed/8.2.0/rv32imac/ilp32\libgcc.a(_clz.o)
                0x000000000001c3a8                __clz_tab
 *(.sdata2.*)
 .sdata2.battLevelUUID
                0x000000000001c4a8        0x2 ./Profile/battservice.o
                0x000000000001c4a8                battLevelUUID
 *fill*         0x000000000001c4aa        0x2 
 .sdata2.battServUUID
                0x000000000001c4ac        0x2 ./Profile/battservice.o
                0x000000000001c4ac                battServUUID
 *fill*         0x000000000001c4ae        0x2 
 .sdata2.battService
                0x000000000001c4b0        0x8 ./Profile/battservice.o
 .sdata2.devInfo11073CertUUID
                0x000000000001c4b8        0x2 ./Profile/devinfoservice.o
                0x000000000001c4b8                devInfo11073CertUUID
 *fill*         0x000000000001c4ba        0x2 
 .sdata2.devInfoFirmwareRevUUID
                0x000000000001c4bc        0x2 ./Profile/devinfoservice.o
                0x000000000001c4bc                devInfoFirmwareRevUUID
 *fill*         0x000000000001c4be        0x2 
 .sdata2.devInfoHardwareRevUUID
                0x000000000001c4c0        0x2 ./Profile/devinfoservice.o
                0x000000000001c4c0                devInfoHardwareRevUUID
 *fill*         0x000000000001c4c2        0x2 
 .sdata2.devInfoMfrNameUUID
                0x000000000001c4c4        0x2 ./Profile/devinfoservice.o
                0x000000000001c4c4                devInfoMfrNameUUID
 *fill*         0x000000000001c4c6        0x2 
 .sdata2.devInfoModelNumberUUID
                0x000000000001c4c8        0x2 ./Profile/devinfoservice.o
                0x000000000001c4c8                devInfoModelNumberUUID
 *fill*         0x000000000001c4ca        0x2 
 .sdata2.devInfoPnpIdUUID
                0x000000000001c4cc        0x2 ./Profile/devinfoservice.o
                0x000000000001c4cc                devInfoPnpIdUUID
 *fill*         0x000000000001c4ce        0x2 
 .sdata2.devInfoSerialNumberUUID
                0x000000000001c4d0        0x2 ./Profile/devinfoservice.o
                0x000000000001c4d0                devInfoSerialNumberUUID
 *fill*         0x000000000001c4d2        0x2 
 .sdata2.devInfoServUUID
                0x000000000001c4d4        0x2 ./Profile/devinfoservice.o
                0x000000000001c4d4                devInfoServUUID
 *fill*         0x000000000001c4d6        0x2 
 .sdata2.devInfoService
                0x000000000001c4d8        0x8 ./Profile/devinfoservice.o
 .sdata2.devInfoSoftwareRevUUID
                0x000000000001c4e0        0x2 ./Profile/devinfoservice.o
                0x000000000001c4e0                devInfoSoftwareRevUUID
 *fill*         0x000000000001c4e2        0x2 
 .sdata2.devInfoSystemIdUUID
                0x000000000001c4e4        0x2 ./Profile/devinfoservice.o
                0x000000000001c4e4                devInfoSystemIdUUID
 *fill*         0x000000000001c4e6        0x2 
 .sdata2.resBandMeasUUID
                0x000000000001c4e8        0x2 ./Profile/resbandservice.o
                0x000000000001c4e8                resBandMeasUUID
 *fill*         0x000000000001c4ea        0x2 
 .sdata2.resBandServUUID
                0x000000000001c4ec        0x2 ./Profile/resbandservice.o
                0x000000000001c4ec                resBandServUUID
 *fill*         0x000000000001c4ee        0x2 
 .sdata2.resBandService
                0x000000000001c4f0        0x8 ./Profile/resbandservice.o
 .sdata2.gapService
                0x000000000001c4f8        0x8 d:/BaiduSyncdisk/Edith/墨小孔实习/resband/resistance_band/LIB\libCH57xBLE.a(gapgattserver.o)
 .sdata2.appearanceUUID
                0x000000000001c500        0x2 d:/BaiduSyncdisk/Edith/墨小孔实习/resband/resistance_band/LIB\libCH57xBLE.a(gatt_uuid.o)
                0x000000000001c500                appearanceUUID
 *fill*         0x000000000001c502        0x2 
 .sdata2.centAddrResUUID
                0x000000000001c504        0x2 d:/BaiduSyncdisk/Edith/墨小孔实习/resband/resistance_band/LIB\libCH57xBLE.a(gatt_uuid.o)
                0x000000000001c504                centAddrResUUID
 *fill*         0x000000000001c506        0x2 
 .sdata2.characterUUID
                0x000000000001c508        0x2 d:/BaiduSyncdisk/Edith/墨小孔实习/resband/resistance_band/LIB\libCH57xBLE.a(gatt_uuid.o)
                0x000000000001c508                characterUUID
 *fill*         0x000000000001c50a        0x2 
 .sdata2.clientCharCfgUUID
                0x000000000001c50c        0x2 d:/BaiduSyncdisk/Edith/墨小孔实习/resband/resistance_band/LIB\libCH57xBLE.a(gatt_uuid.o)
                0x000000000001c50c                clientCharCfgUUID
 *fill*         0x000000000001c50e        0x2 
 .sdata2.deviceNameUUID
                0x000000000001c510        0x2 d:/BaiduSyncdisk/Edith/墨小孔实习/resband/resistance_band/LIB\libCH57xBLE.a(gatt_uuid.o)
                0x000000000001c510                deviceNameUUID
 *fill*         0x000000000001c512        0x2 
 .sdata2.gapServiceUUID
                0x000000000001c514        0x2 d:/BaiduSyncdisk/Edith/墨小孔实习/resband/resistance_band/LIB\libCH57xBLE.a(gatt_uuid.o)
                0x000000000001c514                gapServiceUUID
 *fill*         0x000000000001c516        0x2 
 .sdata2.gattServiceUUID
                0x000000000001c518        0x2 d:/BaiduSyncdisk/Edith/墨小孔实习/resband/resistance_band/LIB\libCH57xBLE.a(gatt_uuid.o)
                0x000000000001c518                gattServiceUUID
 *fill*         0x000000000001c51a        0x2 
 .sdata2.periConnParamUUID
                0x000000000001c51c        0x2 d:/BaiduSyncdisk/Edith/墨小孔实习/resband/resistance_band/LIB\libCH57xBLE.a(gatt_uuid.o)
                0x000000000001c51c                periConnParamUUID
 *fill*         0x000000000001c51e        0x2 
 .sdata2.primaryServiceUUID
                0x000000000001c520        0x2 d:/BaiduSyncdisk/Edith/墨小孔实习/resband/resistance_band/LIB\libCH57xBLE.a(gatt_uuid.o)
                0x000000000001c520                primaryServiceUUID
 *fill*         0x000000000001c522        0x2 
 .sdata2.reportRefUUID
                0x000000000001c524        0x2 d:/BaiduSyncdisk/Edith/墨小孔实习/resband/resistance_band/LIB\libCH57xBLE.a(gatt_uuid.o)
                0x000000000001c524                reportRefUUID
 *fill*         0x000000000001c526        0x2 
 .sdata2.secondaryServiceUUID
                0x000000000001c528        0x2 d:/BaiduSyncdisk/Edith/墨小孔实习/resband/resistance_band/LIB\libCH57xBLE.a(gatt_uuid.o)
                0x000000000001c528                secondaryServiceUUID
 *fill*         0x000000000001c52a        0x2 
 .sdata2.serviceChangedUUID
                0x000000000001c52c        0x2 d:/BaiduSyncdisk/Edith/墨小孔实习/resband/resistance_band/LIB\libCH57xBLE.a(gatt_uuid.o)
                0x000000000001c52c                serviceChangedUUID
 *(.glue_7)
 *(.glue_7t)
 *(.gnu.linkonce.t.*)
                0x000000000001c530                . = ALIGN (0x4)
 *fill*         0x000000000001c52e        0x2 

.rela.dyn       0x000000000001c530        0x0
 .rela.init     0x000000000001c530        0x0 ./StdPeriphDriver/CH57x_adc.o
 .rela.vector   0x000000000001c530        0x0 ./StdPeriphDriver/CH57x_adc.o
 .rela.handle_reset
                0x000000000001c530        0x0 ./StdPeriphDriver/CH57x_adc.o

.fini           0x000000000001c530        0x0
 *(SORT_NONE(.fini))
                0x000000000001c530                . = ALIGN (0x4)
                [!provide]                        PROVIDE (_etext = .)
                [!provide]                        PROVIDE (_eitcm = .)

.preinit_array  0x000000000001c530        0x0
                [!provide]                        PROVIDE (__preinit_array_start = .)
 *(.preinit_array)
                [!provide]                        PROVIDE (__preinit_array_end = .)

.init_array     0x000000000001c530        0x0
                [!provide]                        PROVIDE (__init_array_start = .)
 *(SORT_BY_INIT_PRIORITY(.init_array.*) SORT_BY_INIT_PRIORITY(.ctors.*))
 *(.init_array EXCLUDE_FILE(*crtend?.o *crtend.o *crtbegin?.o *crtbegin.o) .ctors)
                [!provide]                        PROVIDE (__init_array_end = .)

.fini_array     0x000000000001c530        0x0
                [!provide]                        PROVIDE (__fini_array_start = .)
 *(SORT_BY_INIT_PRIORITY(.fini_array.*) SORT_BY_INIT_PRIORITY(.dtors.*))
 *(.fini_array EXCLUDE_FILE(*crtend?.o *crtend.o *crtbegin?.o *crtbegin.o) .dtors)
                [!provide]                        PROVIDE (__fini_array_end = .)

.ctors
 *crtbegin.o(.ctors)
 *crtbegin?.o(.ctors)
 *(EXCLUDE_FILE(*crtend?.o *crtend.o) .ctors)
 *(SORT_BY_NAME(.ctors.*))
 *(.ctors)

.dtors
 *crtbegin.o(.dtors)
 *crtbegin?.o(.dtors)
 *(EXCLUDE_FILE(*crtend?.o *crtend.o) .dtors)
 *(SORT_BY_NAME(.dtors.*))
 *(.dtors)

.dalign         0x00000000200049c4        0x0 load address 0x000000000001c530
                0x00000000200049c4                . = (ORIGIN (RAM) + MAX (0x800, SIZEOF (.highcode)))

.dlalign        0x000000000001c530        0x0
                0x000000000001c530                . = ALIGN (0x4)
                0x000000000001c530                PROVIDE (_data_lma = .)

.data           0x00000000200049c4      0x37c load address 0x000000000001c530
                0x00000000200049c4                . = ALIGN (0x4)
                0x00000000200049c4                PROVIDE (_data_vma = .)
 *(.gnu.linkonce.r.*)
 *(.data .data.*)
 .data.battAttrTbl
                0x00000000200049c4       0x50 ./Profile/battservice.o
 .data.battCBs  0x0000000020004a14        0xc ./Profile/battservice.o
                0x0000000020004a14                battCBs
 .data.devInfoAttrTbl
                0x0000000020004a20      0x130 ./Profile/devinfoservice.o
 .data.devInfoCBs
                0x0000000020004b50        0xc ./Profile/devinfoservice.o
                0x0000000020004b50                devInfoCBs
 .data.resBandAttrTbl
                0x0000000020004b5c       0x40 ./Profile/resbandservice.o
 .data.resBandCBs
                0x0000000020004b9c        0xc ./Profile/resbandservice.o
                0x0000000020004b9c                resBandCBs
 .data.advertData
                0x0000000020004ba8        0x9 ./APP/resband.o
 *fill*         0x0000000020004bb1        0x3 
 .data.attDeviceName
                0x0000000020004bb4       0x15 ./APP/resband.o
 *fill*         0x0000000020004bc9        0x3 
 .data.resBandPeripheralCB
                0x0000000020004bcc        0xc ./APP/resband.o
 .data.scanRspData
                0x0000000020004bd8       0x10 ./APP/resband.o
 .data.gapAttrTbl
                0x0000000020004be8       0x90 d:/BaiduSyncdisk/Edith/墨小孔实习/resband/resistance_band/LIB\libCH57xBLE.a(gapgattserver.o)
 .data.gapServiceCBs
                0x0000000020004c78        0xc d:/BaiduSyncdisk/Edith/墨小孔实习/resband/resistance_band/LIB\libCH57xBLE.a(gapgattserver.o)
                0x0000000020004c78                gapServiceCBs
 .data.gattAttrTbl
                0x0000000020004c84       0x40 d:/BaiduSyncdisk/Edith/墨小孔实习/resband/resistance_band/LIB\libCH57xBLE.a(gattservapp.o)
 .data.gattServiceCBs
                0x0000000020004cc4        0xc d:/BaiduSyncdisk/Edith/墨小孔实习/resband/resistance_band/LIB\libCH57xBLE.a(gattservapp.o)
 .data.smInitiatorCBs
                0x0000000020004cd0        0xc d:/BaiduSyncdisk/Edith/墨小孔实习/resband/resistance_band/LIB\libCH57xBLE.a(sm.o)
                0x0000000020004cd0                smInitiatorCBs
 .data.smResponderCBs
                0x0000000020004cdc        0xc d:/BaiduSyncdisk/Edith/墨小孔实习/resband/resistance_band/LIB\libCH57xBLE.a(sm.o)
                0x0000000020004cdc                smResponderCBs
 *(.gnu.linkonce.d.*)
                0x0000000020004ce8                . = ALIGN (0x8)
 *fill*         0x0000000020004ce8        0x0 
                0x00000000200054e8                PROVIDE (__global_pointer$ = (. + 0x800))
 *(.sdata .sdata.*)
 .sdata.battLevel
                0x0000000020004ce8        0x1 ./Profile/battservice.o
 .sdata.battLevelProps
                0x0000000020004ce9        0x1 ./Profile/battservice.o
 .sdata.battMaxLevel
                0x0000000020004cea        0x2 ./Profile/battservice.o
 .sdata.battMinLevel
                0x0000000020004cec        0x2 ./Profile/battservice.o
 *fill*         0x0000000020004cee        0x2 
 .sdata.hidReportRefBattLevel
                0x0000000020004cf0        0x2 ./Profile/battservice.o
 .sdata.devInfo11073CertProps
                0x0000000020004cf2        0x1 ./Profile/devinfoservice.o
 .sdata.devInfoFirmwareRevProps
                0x0000000020004cf3        0x1 ./Profile/devinfoservice.o
 .sdata.devInfoHardwareRevProps
                0x0000000020004cf4        0x1 ./Profile/devinfoservice.o
 .sdata.devInfoMfrNameProps
                0x0000000020004cf5        0x1 ./Profile/devinfoservice.o
 .sdata.devInfoModelNumberProps
                0x0000000020004cf6        0x1 ./Profile/devinfoservice.o
 *fill*         0x0000000020004cf7        0x1 
 .sdata.devInfoPnpId
                0x0000000020004cf8        0x7 ./Profile/devinfoservice.o
 .sdata.devInfoPnpIdProps
                0x0000000020004cff        0x1 ./Profile/devinfoservice.o
 .sdata.devInfoSerialNumberProps
                0x0000000020004d00        0x1 ./Profile/devinfoservice.o
 .sdata.devInfoSoftwareRevProps
                0x0000000020004d01        0x1 ./Profile/devinfoservice.o
 .sdata.devInfoSystemIdProps
                0x0000000020004d02        0x1 ./Profile/devinfoservice.o
 .sdata.resBandMeasProps
                0x0000000020004d03        0x1 ./Profile/resbandservice.o
 .sdata.holdrand.5456
                0x0000000020004d04        0x4 d:/BaiduSyncdisk/Edith/墨小孔实习/resband/resistance_band/LIB\libCH57xBLE.a(tmos.o)
 .sdata.gapAdvAppTaskID
                0x0000000020004d08        0x1 d:/BaiduSyncdisk/Edith/墨小孔实习/resband/resistance_band/LIB\libCH57xBLE.a(gap_peripheral.o)
 .sdata.appearanceCharProps
                0x0000000020004d09        0x1 d:/BaiduSyncdisk/Edith/墨小孔实习/resband/resistance_band/LIB\libCH57xBLE.a(gapgattserver.o)
 .sdata.centAddrRes
                0x0000000020004d0a        0x1 d:/BaiduSyncdisk/Edith/墨小孔实习/resband/resistance_band/LIB\libCH57xBLE.a(gapgattserver.o)
 .sdata.centAddrResCharProps
                0x0000000020004d0b        0x1 d:/BaiduSyncdisk/Edith/墨小孔实习/resband/resistance_band/LIB\libCH57xBLE.a(gapgattserver.o)
 .sdata.deviceNameCharProps
                0x0000000020004d0c        0x1 d:/BaiduSyncdisk/Edith/墨小孔实习/resband/resistance_band/LIB\libCH57xBLE.a(gapgattserver.o)
 .sdata.periConnParamCharProps
                0x0000000020004d0d        0x1 d:/BaiduSyncdisk/Edith/墨小孔实习/resband/resistance_band/LIB\libCH57xBLE.a(gapgattserver.o)
 *fill*         0x0000000020004d0e        0x2 
 .sdata.periConnParameters
                0x0000000020004d10        0x8 d:/BaiduSyncdisk/Edith/墨小孔实习/resband/resistance_band/LIB\libCH57xBLE.a(gapgattserver.o)
 .sdata.gattCentAppTaskID
                0x0000000020004d18        0x1 d:/BaiduSyncdisk/Edith/墨小孔实习/resband/resistance_band/LIB\libCH57xBLE.a(gatt.o)
 .sdata.gattPeriAppTaskID
                0x0000000020004d19        0x1 d:/BaiduSyncdisk/Edith/墨小孔实习/resband/resistance_band/LIB\libCH57xBLE.a(gatt.o)
 .sdata.GATTServApp_TaskID
                0x0000000020004d1a        0x1 d:/BaiduSyncdisk/Edith/墨小孔实习/resband/resistance_band/LIB\libCH57xBLE.a(gattservapp.o)
 .sdata.appTaskID
                0x0000000020004d1b        0x1 d:/BaiduSyncdisk/Edith/墨小孔实习/resband/resistance_band/LIB\libCH57xBLE.a(gattservapp.o)
 .sdata.gattService
                0x0000000020004d1c        0x8 d:/BaiduSyncdisk/Edith/墨小孔实习/resband/resistance_band/LIB\libCH57xBLE.a(gattservapp.o)
 .sdata.nextHandle
                0x0000000020004d24        0x2 d:/BaiduSyncdisk/Edith/墨小孔实习/resband/resistance_band/LIB\libCH57xBLE.a(gattservapp.o)
 .sdata.reqTaskId
                0x0000000020004d26        0x1 d:/BaiduSyncdisk/Edith/墨小孔实习/resband/resistance_band/LIB\libCH57xBLE.a(gattservapp.o)
 .sdata.serviceChangedCharProps
                0x0000000020004d27        0x1 d:/BaiduSyncdisk/Edith/墨小孔实习/resband/resistance_band/LIB\libCH57xBLE.a(gattservapp.o)
 .sdata.gapBondCB
                0x0000000020004d28        0x8 d:/BaiduSyncdisk/Edith/墨小孔实习/resband/resistance_band/LIB\libCH57xBLE.a(gapbondmgr.o)
 .sdata.gapBond_Auto
                0x0000000020004d30        0x1 d:/BaiduSyncdisk/Edith/墨小孔实习/resband/resistance_band/LIB\libCH57xBLE.a(gapbondmgr.o)
                0x0000000020004d30                gapBond_Auto
 .sdata.gapBond_AutoFailReason
                0x0000000020004d31        0x1 d:/BaiduSyncdisk/Edith/墨小孔实习/resband/resistance_band/LIB\libCH57xBLE.a(gapbondmgr.o)
 .sdata.gapBond_BondFailOption
                0x0000000020004d32        0x1 d:/BaiduSyncdisk/Edith/墨小孔实习/resband/resistance_band/LIB\libCH57xBLE.a(gapbondmgr.o)
 .sdata.gapBond_Cent_PairingMode
                0x0000000020004d33        0x1 d:/BaiduSyncdisk/Edith/墨小孔实习/resband/resistance_band/LIB\libCH57xBLE.a(gapbondmgr.o)
 .sdata.gapBond_Erase
                0x0000000020004d34        0x1 d:/BaiduSyncdisk/Edith/墨小孔实习/resband/resistance_band/LIB\libCH57xBLE.a(gapbondmgr.o)
                0x0000000020004d34                gapBond_Erase
 .sdata.gapBond_KeySize
                0x0000000020004d35        0x1 d:/BaiduSyncdisk/Edith/墨小孔实习/resband/resistance_band/LIB\libCH57xBLE.a(gapbondmgr.o)
 .sdata.gapBond_Peri_PairingMode
                0x0000000020004d36        0x1 d:/BaiduSyncdisk/Edith/墨小孔实习/resband/resistance_band/LIB\libCH57xBLE.a(gapbondmgr.o)
 .sdata.gapBond_Valid
                0x0000000020004d37        0x1 d:/BaiduSyncdisk/Edith/墨小孔实习/resband/resistance_band/LIB\libCH57xBLE.a(gapbondmgr.o)
                0x0000000020004d37                gapBond_Valid
 .sdata.gapCentralTaskID
                0x0000000020004d38        0x1 d:/BaiduSyncdisk/Edith/墨小孔实习/resband/resistance_band/LIB\libCH57xBLE.a(role.o)
                0x0000000020004d38                gapCentralTaskID
 .sdata.gapRole_AdvEnabled
                0x0000000020004d39        0x1 d:/BaiduSyncdisk/Edith/墨小孔实习/resband/resistance_band/LIB\libCH57xBLE.a(role.o)
                0x0000000020004d39                gapRole_AdvEnabled
 .sdata.gapRole_AdvertDataLen
                0x0000000020004d3a        0x1 d:/BaiduSyncdisk/Edith/墨小孔实习/resband/resistance_band/LIB\libCH57xBLE.a(role.o)
                0x0000000020004d3a                gapRole_AdvertDataLen
 *fill*         0x0000000020004d3b        0x1 
 .sdata.gapRole_MaxConnInterval
                0x0000000020004d3c        0x2 d:/BaiduSyncdisk/Edith/墨小孔实习/resband/resistance_band/LIB\libCH57xBLE.a(role.o)
                0x0000000020004d3c                gapRole_MaxConnInterval
 .sdata.gapRole_MinConnInterval
                0x0000000020004d3e        0x2 d:/BaiduSyncdisk/Edith/墨小孔实习/resband/resistance_band/LIB\libCH57xBLE.a(role.o)
                0x0000000020004d3e                gapRole_MinConnInterval
 *(.gnu.linkonce.s.*)
                0x0000000020004d40                . = ALIGN (0x8)
 *(.srodata.cst16)
 *(.srodata.cst8)
 *(.srodata.cst4)
 *(.srodata.cst2)
 *(.srodata .srodata.*)
                0x0000000020004d40                . = ALIGN (0x4)
                0x0000000020004d40                PROVIDE (_edata = .)

.bss            0x0000000020004d40     0x1d38 load address 0x000000000001c8ac
                0x0000000020004d40                . = ALIGN (0x4)
                0x0000000020004d40                PROVIDE (_sbss = .)
 *(.sbss*)
 .sbss.Int32K_Tune_FLASH
                0x0000000020004d40        0x2 ./StdPeriphDriver/CH57x_clk.o
                0x0000000020004d40                Int32K_Tune_FLASH
 .sbss.Int32K_Tune_RAM
                0x0000000020004d42        0x2 ./StdPeriphDriver/CH57x_clk.o
                0x0000000020004d42                Int32K_Tune_RAM
 .sbss.battCriticalLevel
                0x0000000020004d44        0x1 ./Profile/battservice.o
 *fill*         0x0000000020004d45        0x3 
 .sbss.battServiceCB
                0x0000000020004d48        0x4 ./Profile/battservice.o
 .sbss.battServiceCalcCB
                0x0000000020004d4c        0x4 ./Profile/battservice.o
 .sbss.battServiceSetupCB
                0x0000000020004d50        0x4 ./Profile/battservice.o
 .sbss.battServiceTeardownCB
                0x0000000020004d54        0x4 ./Profile/battservice.o
 .sbss.devInfoSystemId
                0x0000000020004d58        0x8 ./Profile/devinfoservice.o
 .sbss.resBandMeas
                0x0000000020004d60        0x1 ./Profile/resbandservice.o
 *fill*         0x0000000020004d61        0x3 
 .sbss.resBandServiceCB
                0x0000000020004d64        0x4 ./Profile/resbandservice.o
 .sbss.HalLedState
                0x0000000020004d68        0x1 ./HAL/LED.o
 .sbss.preBlinkState
                0x0000000020004d69        0x1 ./HAL/LED.o
 .sbss.halTaskID
                0x0000000020004d6a        0x1 ./HAL/MCU.o
                0x0000000020004d6a                halTaskID
 *fill*         0x0000000020004d6b        0x1 
 .sbss.RTCTigFlag
                0x0000000020004d6c        0x4 ./HAL/RTC.o
                0x0000000020004d6c                RTCTigFlag
 .sbss.gapConnHandle
                0x0000000020004d70        0x2 ./APP/resband.o
 *fill*         0x0000000020004d72        0x2 
 .sbss.gapProfileState
                0x0000000020004d74        0x4 ./APP/resband.o
 .sbss.isResBandSubscribed
                0x0000000020004d78        0x1 ./APP/resband.o
 .sbss.resBandAdvCancelled
                0x0000000020004d79        0x1 ./APP/resband.o
 *fill*         0x0000000020004d7a        0x2 
 .sbss.resBandBondCB
                0x0000000020004d7c        0x8 ./APP/resband.o
 .sbss.resBandMeas
                0x0000000020004d84        0x8 ./APP/resband.o
 .sbss.resBand_TaskID
                0x0000000020004d8c        0x1 ./APP/resband.o
 *fill*         0x0000000020004d8d        0x3 
 .sbss.msg_qHead
                0x0000000020004d90        0x4 d:/BaiduSyncdisk/Edith/墨小孔实习/resband/resistance_band/LIB\libCH57xBLE.a(message.o)
                0x0000000020004d90                msg_qHead
 .sbss.EventsArr
                0x0000000020004d94        0x4 d:/BaiduSyncdisk/Edith/墨小孔实习/resband/resistance_band/LIB\libCH57xBLE.a(tmos.o)
                0x0000000020004d94                EventsArr
 .sbss.Tune32K_FLASH
                0x0000000020004d98        0x2 d:/BaiduSyncdisk/Edith/墨小孔实习/resband/resistance_band/LIB\libCH57xBLE.a(tmos.o)
                0x0000000020004d98                Tune32K_FLASH
 .sbss.Tune32K_RAM
                0x0000000020004d9a        0x2 d:/BaiduSyncdisk/Edith/墨小孔实习/resband/resistance_band/LIB\libCH57xBLE.a(tmos.o)
                0x0000000020004d9a                Tune32K_RAM
 .sbss.cbTimersHead
                0x0000000020004d9c        0x4 d:/BaiduSyncdisk/Edith/墨小孔实习/resband/resistance_band/LIB\libCH57xBLE.a(tmos.o)
                0x0000000020004d9c                cbTimersHead
 .sbss.eventsClear
                0x0000000020004da0        0x2 d:/BaiduSyncdisk/Edith/墨小孔实习/resband/resistance_band/LIB\libCH57xBLE.a(tmos.o)
                0x0000000020004da0                eventsClear
 *fill*         0x0000000020004da2        0x2 
 .sbss.pfnTimerCBs
                0x0000000020004da4        0x4 d:/BaiduSyncdisk/Edith/墨小孔实习/resband/resistance_band/LIB\libCH57xBLE.a(tmos.o)
                0x0000000020004da4                pfnTimerCBs
 .sbss.taskHead
                0x0000000020004da8        0x4 d:/BaiduSyncdisk/Edith/墨小孔实习/resband/resistance_band/LIB\libCH57xBLE.a(tmos.o)
                0x0000000020004da8                taskHead
 .sbss.tasksArr
                0x0000000020004dac        0x4 d:/BaiduSyncdisk/Edith/墨小孔实习/resband/resistance_band/LIB\libCH57xBLE.a(tmos.o)
                0x0000000020004dac                tasksArr
 .sbss.fnGetClockCBs
                0x0000000020004db0        0x4 d:/BaiduSyncdisk/Edith/墨小孔实习/resband/resistance_band/LIB\libCH57xBLE.a(tmos_hw.o)
                0x0000000020004db0                fnGetClockCBs
 .sbss.gapCurrentRandomAddr
                0x0000000020004db4        0x6 d:/BaiduSyncdisk/Edith/墨小孔实习/resband/resistance_band/LIB\libCH57xBLE.a(gap.o)
 *fill*         0x0000000020004dba        0x2 
 .sbss.pEstLink
                0x0000000020004dbc        0x4 d:/BaiduSyncdisk/Edith/墨小孔实习/resband/resistance_band/LIB\libCH57xBLE.a(gap.o)
                0x0000000020004dbc                pEstLink
 .sbss.pGapAdvertState
                0x0000000020004dc0        0x4 d:/BaiduSyncdisk/Edith/墨小孔实习/resband/resistance_band/LIB\libCH57xBLE.a(gap.o)
                0x0000000020004dc0                pGapAdvertState
 .sbss.pfnCentralCBs
                0x0000000020004dc4        0x4 d:/BaiduSyncdisk/Edith/墨小孔实习/resband/resistance_band/LIB\libCH57xBLE.a(gap.o)
 .sbss.pfnCentralConnCBs
                0x0000000020004dc8        0x4 d:/BaiduSyncdisk/Edith/墨小孔实习/resband/resistance_band/LIB\libCH57xBLE.a(gap.o)
 .sbss.pfnPeripheralCBs
                0x0000000020004dcc        0x4 d:/BaiduSyncdisk/Edith/墨小孔实习/resband/resistance_band/LIB\libCH57xBLE.a(gap.o)
 .sbss.pfnPeripheralConnCBs
                0x0000000020004dd0        0x4 d:/BaiduSyncdisk/Edith/墨小孔实习/resband/resistance_band/LIB\libCH57xBLE.a(gap.o)
 .sbss.slaveUpdateReq
                0x0000000020004dd4        0x8 d:/BaiduSyncdisk/Edith/墨小孔实习/resband/resistance_band/LIB\libCH57xBLE.a(gap.o)
 .sbss.terminateAllTaskID
                0x0000000020004ddc        0x1 d:/BaiduSyncdisk/Edith/墨小孔实习/resband/resistance_band/LIB\libCH57xBLE.a(gap.o)
 .sbss.terminateReason
                0x0000000020004ddd        0x1 d:/BaiduSyncdisk/Edith/墨小孔实习/resband/resistance_band/LIB\libCH57xBLE.a(gap.o)
 *fill*         0x0000000020004dde        0x2 
 .sbss.gapCentralConnCBs
                0x0000000020004de0        0x8 d:/BaiduSyncdisk/Edith/墨小孔实习/resband/resistance_band/LIB\libCH57xBLE.a(gap_central.o)
                0x0000000020004de0                gapCentralConnCBs
 .sbss.gapMaxScanResponses
                0x0000000020004de8        0x1 d:/BaiduSyncdisk/Edith/墨小孔实习/resband/resistance_band/LIB\libCH57xBLE.a(gap_central.o)
                0x0000000020004de8                gapMaxScanResponses
 *fill*         0x0000000020004de9        0x3 
 .sbss.pGapDiscReq
                0x0000000020004dec        0x4 d:/BaiduSyncdisk/Edith/墨小孔实习/resband/resistance_band/LIB\libCH57xBLE.a(gap_central.o)
                0x0000000020004dec                pGapDiscReq
 .sbss.pGapScanRecs
                0x0000000020004df0        0x4 d:/BaiduSyncdisk/Edith/墨小孔实习/resband/resistance_band/LIB\libCH57xBLE.a(gap_central.o)
                0x0000000020004df0                pGapScanRecs
 .sbss.gapLimitedAdvertisingTimeout
                0x0000000020004df4        0x2 d:/BaiduSyncdisk/Edith/墨小孔实习/resband/resistance_band/LIB\libCH57xBLE.a(gap_peripheral.o)
 *fill*         0x0000000020004df6        0x2 
 .sbss.gapPeripheralConnCBs
                0x0000000020004df8        0x4 d:/BaiduSyncdisk/Edith/墨小孔实习/resband/resistance_band/LIB\libCH57xBLE.a(gap_peripheral.o)
 .sbss.pGapAdData
                0x0000000020004dfc        0x4 d:/BaiduSyncdisk/Edith/墨小孔实习/resband/resistance_band/LIB\libCH57xBLE.a(gap_peripheral.o)
 .sbss.pGapAdvTokens
                0x0000000020004e00        0x4 d:/BaiduSyncdisk/Edith/墨小孔实习/resband/resistance_band/LIB\libCH57xBLE.a(gap_peripheral.o)
 .sbss.pGapScanRspData
                0x0000000020004e04        0x4 d:/BaiduSyncdisk/Edith/墨小孔实习/resband/resistance_band/LIB\libCH57xBLE.a(gap_peripheral.o)
 .sbss.appearance
                0x0000000020004e08        0x2 d:/BaiduSyncdisk/Edith/墨小孔实习/resband/resistance_band/LIB\libCH57xBLE.a(gapgattserver.o)
 .sbss.ggsAddService
                0x0000000020004e0a        0x1 d:/BaiduSyncdisk/Edith/墨小孔实习/resband/resistance_band/LIB\libCH57xBLE.a(gapgattserver.o)
 *fill*         0x0000000020004e0b        0x1 
 .sbss.ggs_AppCBs
                0x0000000020004e0c        0x4 d:/BaiduSyncdisk/Edith/墨小孔实习/resband/resistance_band/LIB\libCH57xBLE.a(gapgattserver.o)
 .sbss.gattTaskID
                0x0000000020004e10        0x1 d:/BaiduSyncdisk/Edith/墨小孔实习/resband/resistance_band/LIB\libCH57xBLE.a(gatt.o)
                0x0000000020004e10                gattTaskID
 *fill*         0x0000000020004e11        0x3 
 .sbss.pfnClientProcessMsgCB
                0x0000000020004e14        0x4 d:/BaiduSyncdisk/Edith/墨小孔实习/resband/resistance_band/LIB\libCH57xBLE.a(gatt.o)
                0x0000000020004e14                pfnClientProcessMsgCB
 .sbss.pfnServerProcessMsgCB
                0x0000000020004e18        0x4 d:/BaiduSyncdisk/Edith/墨小孔实习/resband/resistance_band/LIB\libCH57xBLE.a(gatt.o)
                0x0000000020004e18                pfnServerProcessMsgCB
 .sbss.attrLen  0x0000000020004e1c        0x2 d:/BaiduSyncdisk/Edith/墨小孔实习/resband/resistance_band/LIB\libCH57xBLE.a(gattservapp.o)
 .sbss.gattAddService
                0x0000000020004e1e        0x1 d:/BaiduSyncdisk/Edith/墨小孔实习/resband/resistance_band/LIB\libCH57xBLE.a(gattservapp.o)
 *fill*         0x0000000020004e1f        0x1 
 .sbss.indCharCfg
                0x0000000020004e20        0x4 d:/BaiduSyncdisk/Edith/墨小孔实习/resband/resistance_band/LIB\libCH57xBLE.a(gattservapp.o)
 .sbss.pAttrValue
                0x0000000020004e24        0x4 d:/BaiduSyncdisk/Edith/墨小孔实习/resband/resistance_band/LIB\libCH57xBLE.a(gattservapp.o)
 .sbss.pServiceList
                0x0000000020004e28        0x4 d:/BaiduSyncdisk/Edith/墨小孔实习/resband/resistance_band/LIB\libCH57xBLE.a(gattservapp.o)
 .sbss.prepareWritesTbl
                0x0000000020004e2c        0x4 d:/BaiduSyncdisk/Edith/墨小孔实习/resband/resistance_band/LIB\libCH57xBLE.a(gattservapp.o)
 .sbss.serverInfoTbl
                0x0000000020004e30        0x4 d:/BaiduSyncdisk/Edith/墨小孔实习/resband/resistance_band/LIB\libCH57xBLE.a(gattservapp.o)
 .sbss.serviceCBsList
                0x0000000020004e34        0x4 d:/BaiduSyncdisk/Edith/墨小孔实习/resband/resistance_band/LIB\libCH57xBLE.a(gattservapp.o)
 .sbss.l2capChannels
                0x0000000020004e38        0x4 d:/BaiduSyncdisk/Edith/墨小孔实习/resband/resistance_band/LIB\libCH57xBLE.a(l2cap.o)
                0x0000000020004e38                l2capChannels
 .sbss.l2capFlowCtrlMode
                0x0000000020004e3c        0x1 d:/BaiduSyncdisk/Edith/墨小孔实习/resband/resistance_band/LIB\libCH57xBLE.a(l2cap.o)
                0x0000000020004e3c                l2capFlowCtrlMode
 .sbss.l2capId  0x0000000020004e3d        0x1 d:/BaiduSyncdisk/Edith/墨小孔实习/resband/resistance_band/LIB\libCH57xBLE.a(l2cap.o)
                0x0000000020004e3d                l2capId
 .sbss.l2capMtuSize
                0x0000000020004e3e        0x2 d:/BaiduSyncdisk/Edith/墨小孔实习/resband/resistance_band/LIB\libCH57xBLE.a(l2cap.o)
                0x0000000020004e3e                l2capMtuSize
 .sbss.l2capNumChannels
                0x0000000020004e40        0x1 d:/BaiduSyncdisk/Edith/墨小孔实习/resband/resistance_band/LIB\libCH57xBLE.a(l2cap.o)
                0x0000000020004e40                l2capNumChannels
 .sbss.l2capNumCoChannels
                0x0000000020004e41        0x1 d:/BaiduSyncdisk/Edith/墨小孔实习/resband/resistance_band/LIB\libCH57xBLE.a(l2cap.o)
                0x0000000020004e41                l2capNumCoChannels
 .sbss.l2capNumDataPkts
                0x0000000020004e42        0x1 d:/BaiduSyncdisk/Edith/墨小孔实习/resband/resistance_band/LIB\libCH57xBLE.a(l2cap.o)
                0x0000000020004e42                l2capNumDataPkts
 .sbss.l2capNumPSM
                0x0000000020004e43        0x1 d:/BaiduSyncdisk/Edith/墨小孔实习/resband/resistance_band/LIB\libCH57xBLE.a(l2cap.o)
                0x0000000020004e43                l2capNumPSM
 .sbss.l2capNumRecvDataPkts
                0x0000000020004e44        0x1 d:/BaiduSyncdisk/Edith/墨小孔实习/resband/resistance_band/LIB\libCH57xBLE.a(l2cap.o)
                0x0000000020004e44                l2capNumRecvDataPkts
 *fill*         0x0000000020004e45        0x3 
 .sbss.l2capPsm
                0x0000000020004e48        0x4 d:/BaiduSyncdisk/Edith/墨小孔实习/resband/resistance_band/LIB\libCH57xBLE.a(l2cap.o)
                0x0000000020004e48                l2capPsm
 .sbss.l2capTaskID
                0x0000000020004e4c        0x1 d:/BaiduSyncdisk/Edith/墨小孔实习/resband/resistance_band/LIB\libCH57xBLE.a(l2cap.o)
                0x0000000020004e4c                l2capTaskID
 *fill*         0x0000000020004e4d        0x3 
 .sbss.l2capUserConfig
                0x0000000020004e50        0x2 d:/BaiduSyncdisk/Edith/墨小孔实习/resband/resistance_band/LIB\libCH57xBLE.a(l2cap.o)
                0x0000000020004e50                l2capUserConfig
 .sbss.nextIdx  0x0000000020004e52        0x1 d:/BaiduSyncdisk/Edith/墨小孔实习/resband/resistance_band/LIB\libCH57xBLE.a(l2cap.o)
                0x0000000020004e52                nextIdx
 *fill*         0x0000000020004e53        0x1 
 .sbss.pL2capData
                0x0000000020004e54        0x4 d:/BaiduSyncdisk/Edith/墨小孔实习/resband/resistance_band/LIB\libCH57xBLE.a(l2cap.o)
                0x0000000020004e54                pL2capData
 .sbss.linkDB   0x0000000020004e58        0x4 d:/BaiduSyncdisk/Edith/墨小孔实习/resband/resistance_band/LIB\libCH57xBLE.a(linkdb.o)
                0x0000000020004e58                linkDB
 .sbss.pSmGenKey
                0x0000000020004e5c        0x4 d:/BaiduSyncdisk/Edith/墨小孔实习/resband/resistance_band/LIB\libCH57xBLE.a(sm.o)
                0x0000000020004e5c                pSmGenKey
 .sbss.pfnInitiatorCBs
                0x0000000020004e60        0x4 d:/BaiduSyncdisk/Edith/墨小孔实习/resband/resistance_band/LIB\libCH57xBLE.a(sm.o)
                0x0000000020004e60                pfnInitiatorCBs
 .sbss.pfnResponderCBs
                0x0000000020004e64        0x4 d:/BaiduSyncdisk/Edith/墨小孔实习/resband/resistance_band/LIB\libCH57xBLE.a(sm.o)
                0x0000000020004e64                pfnResponderCBs
 .sbss.gBleHostPara
                0x0000000020004e68        0x6 d:/BaiduSyncdisk/Edith/墨小孔实习/resband/resistance_band/LIB\libCH57xBLE.a(host_input.o)
                0x0000000020004e68                gBleHostPara
 *fill*         0x0000000020004e6e        0x2 
 .sbss.llRecvDataDisable
                0x0000000020004e70        0x4 d:/BaiduSyncdisk/Edith/墨小孔实习/resband/resistance_band/LIB\libCH57xBLE.a(ll_connect.o)
                0x0000000020004e70                llRecvDataDisable
 .sbss.pfnConnectEventCBs
                0x0000000020004e74        0x4 d:/BaiduSyncdisk/Edith/墨小孔实习/resband/resistance_band/LIB\libCH57xBLE.a(ll_connect.o)
                0x0000000020004e74                pfnConnectEventCBs
 .sbss.CrcErrorCount
                0x0000000020004e78        0x2 d:/BaiduSyncdisk/Edith/墨小孔实习/resband/resistance_band/LIB\libCH57xBLE.a(ll_slave.o)
                0x0000000020004e78                CrcErrorCount
 .sbss.md_timeout
                0x0000000020004e7a        0x2 d:/BaiduSyncdisk/Edith/墨小孔实习/resband/resistance_band/LIB\libCH57xBLE.a(ll_slave.o)
                0x0000000020004e7a                md_timeout
 .sbss.reSendCount
                0x0000000020004e7c        0x2 d:/BaiduSyncdisk/Edith/墨小孔实习/resband/resistance_band/LIB\libCH57xBLE.a(ll_slave.o)
                0x0000000020004e7c                reSendCount
 .sbss.recvTimeoutCount
                0x0000000020004e7e        0x2 d:/BaiduSyncdisk/Edith/墨小孔实习/resband/resistance_band/LIB\libCH57xBLE.a(ll_slave.o)
                0x0000000020004e7e                recvTimeoutCount
 .sbss.gptrAESReg
                0x0000000020004e80        0x4 d:/BaiduSyncdisk/Edith/墨小孔实习/resband/resistance_band/LIB\libCH57xBLE.a(aes.o)
                0x0000000020004e80                gptrAESReg
 .sbss.gptrBBReg
                0x0000000020004e84        0x4 d:/BaiduSyncdisk/Edith/墨小孔实习/resband/resistance_band/LIB\libCH57xBLE.a(bb.o)
                0x0000000020004e84                gptrBBReg
 .sbss.gptrDMAReg
                0x0000000020004e88        0x4 d:/BaiduSyncdisk/Edith/墨小孔实习/resband/resistance_band/LIB\libCH57xBLE.a(dma.o)
                0x0000000020004e88                gptrDMAReg
 .sbss.cfo_comp
                0x0000000020004e8c        0x2 d:/BaiduSyncdisk/Edith/墨小孔实习/resband/resistance_band/LIB\libCH57xBLE.a(ip.o)
                0x0000000020004e8c                cfo_comp
 *fill*         0x0000000020004e8e        0x2 
 .sbss.gPaControl
                0x0000000020004e90        0x4 d:/BaiduSyncdisk/Edith/墨小孔实习/resband/resistance_band/LIB\libCH57xBLE.a(ip.o)
                0x0000000020004e90                gPaControl
 .sbss.gptrLLEReg
                0x0000000020004e94        0x4 d:/BaiduSyncdisk/Edith/墨小孔实习/resband/resistance_band/LIB\libCH57xBLE.a(lle.o)
                0x0000000020004e94                gptrLLEReg
 .sbss.ftuneFlag
                0x0000000020004e98        0x4 d:/BaiduSyncdisk/Edith/墨小孔实习/resband/resistance_band/LIB\libCH57xBLE.a(rfend.o)
                0x0000000020004e98                ftuneFlag
 .sbss.gModeAdc
                0x0000000020004e9c        0x1 d:/BaiduSyncdisk/Edith/墨小孔实习/resband/resistance_band/LIB\libCH57xBLE.a(rfend.o)
                0x0000000020004e9c                gModeAdc
 *fill*         0x0000000020004e9d        0x3 
 .sbss.gptrRFENDReg
                0x0000000020004ea0        0x4 d:/BaiduSyncdisk/Edith/墨小孔实习/resband/resistance_band/LIB\libCH57xBLE.a(rfend.o)
                0x0000000020004ea0                gptrRFENDReg
 .sbss.nCO2401  0x0000000020004ea4        0x1 d:/BaiduSyncdisk/Edith/墨小孔实习/resband/resistance_band/LIB\libCH57xBLE.a(rfend.o)
                0x0000000020004ea4                nCO2401
 .sbss.nCO2440  0x0000000020004ea5        0x1 d:/BaiduSyncdisk/Edith/墨小孔实习/resband/resistance_band/LIB\libCH57xBLE.a(rfend.o)
                0x0000000020004ea5                nCO2440
 .sbss.nCO2480  0x0000000020004ea6        0x1 d:/BaiduSyncdisk/Edith/墨小孔实习/resband/resistance_band/LIB\libCH57xBLE.a(rfend.o)
                0x0000000020004ea6                nCO2480
 .sbss.nGA2401  0x0000000020004ea7        0x1 d:/BaiduSyncdisk/Edith/墨小孔实习/resband/resistance_band/LIB\libCH57xBLE.a(rfend.o)
                0x0000000020004ea7                nGA2401
 .sbss.nGA2440  0x0000000020004ea8        0x1 d:/BaiduSyncdisk/Edith/墨小孔实习/resband/resistance_band/LIB\libCH57xBLE.a(rfend.o)
                0x0000000020004ea8                nGA2440
 .sbss.nGA2480  0x0000000020004ea9        0x1 d:/BaiduSyncdisk/Edith/墨小孔实习/resband/resistance_band/LIB\libCH57xBLE.a(rfend.o)
                0x0000000020004ea9                nGA2480
 .sbss.fragment.6326
                0x0000000020004eaa        0x1 d:/BaiduSyncdisk/Edith/墨小孔实习/resband/resistance_band/LIB\libCH57xBLE.a(ctl_input.o)
 .sbss.autoSyncResolveList
                0x0000000020004eab        0x1 d:/BaiduSyncdisk/Edith/墨小孔实习/resband/resistance_band/LIB\libCH57xBLE.a(gapbondmgr.o)
 .sbss.autoSyncWhiteList
                0x0000000020004eac        0x1 d:/BaiduSyncdisk/Edith/墨小孔实习/resband/resistance_band/LIB\libCH57xBLE.a(gapbondmgr.o)
 .sbss.bondIdx  0x0000000020004ead        0x1 d:/BaiduSyncdisk/Edith/墨小孔实习/resband/resistance_band/LIB\libCH57xBLE.a(gapbondmgr.o)
 *fill*         0x0000000020004eae        0x2 
 .sbss.bonds    0x0000000020004eb0        0x4 d:/BaiduSyncdisk/Edith/墨小孔实习/resband/resistance_band/LIB\libCH57xBLE.a(gapbondmgr.o)
 .sbss.eraseAllBonds
                0x0000000020004eb4        0x1 d:/BaiduSyncdisk/Edith/墨小孔实习/resband/resistance_band/LIB\libCH57xBLE.a(gapbondmgr.o)
 .sbss.gapBondMax
                0x0000000020004eb5        0x1 d:/BaiduSyncdisk/Edith/墨小孔实习/resband/resistance_band/LIB\libCH57xBLE.a(gapbondmgr.o)
 .sbss.gapBondMgr_TaskID
                0x0000000020004eb6        0x1 d:/BaiduSyncdisk/Edith/墨小孔实习/resband/resistance_band/LIB\libCH57xBLE.a(gapbondmgr.o)
 *fill*         0x0000000020004eb7        0x1 
 .sbss.gapBondSignAddr
                0x0000000020004eb8        0x7 d:/BaiduSyncdisk/Edith/墨小孔实习/resband/resistance_band/LIB\libCH57xBLE.a(gapbondmgr.o)
                0x0000000020004eb8                gapBondSignAddr
 .sbss.gapBondSign_Valid
                0x0000000020004ebf        0x1 d:/BaiduSyncdisk/Edith/墨小孔实习/resband/resistance_band/LIB\libCH57xBLE.a(gapbondmgr.o)
                0x0000000020004ebf                gapBondSign_Valid
 .sbss.gapBond_AutoFail
                0x0000000020004ec0        0x1 d:/BaiduSyncdisk/Edith/墨小孔实习/resband/resistance_band/LIB\libCH57xBLE.a(gapbondmgr.o)
 .sbss.gapBond_Cent_AuthReq
                0x0000000020004ec1        0x1 d:/BaiduSyncdisk/Edith/墨小孔实习/resband/resistance_band/LIB\libCH57xBLE.a(gapbondmgr.o)
 .sbss.gapBond_Cent_IOCap
                0x0000000020004ec2        0x1 d:/BaiduSyncdisk/Edith/墨小孔实习/resband/resistance_band/LIB\libCH57xBLE.a(gapbondmgr.o)
 .sbss.gapBond_Cent_KeyDistList
                0x0000000020004ec3        0x1 d:/BaiduSyncdisk/Edith/墨小孔实习/resband/resistance_band/LIB\libCH57xBLE.a(gapbondmgr.o)
 .sbss.gapBond_Cent_OOBDataFlag
                0x0000000020004ec4        0x1 d:/BaiduSyncdisk/Edith/墨小孔实习/resband/resistance_band/LIB\libCH57xBLE.a(gapbondmgr.o)
 *fill*         0x0000000020004ec5        0x3 
 .sbss.gapBond_Cent_Passcode
                0x0000000020004ec8        0x4 d:/BaiduSyncdisk/Edith/墨小孔实习/resband/resistance_band/LIB\libCH57xBLE.a(gapbondmgr.o)
 .sbss.gapBond_Invalid
                0x0000000020004ecc        0x1 d:/BaiduSyncdisk/Edith/墨小孔实习/resband/resistance_band/LIB\libCH57xBLE.a(gapbondmgr.o)
                0x0000000020004ecc                gapBond_Invalid
 .sbss.gapBond_Peri_AuthReq
                0x0000000020004ecd        0x1 d:/BaiduSyncdisk/Edith/墨小孔实习/resband/resistance_band/LIB\libCH57xBLE.a(gapbondmgr.o)
 .sbss.gapBond_Peri_IOCap
                0x0000000020004ece        0x1 d:/BaiduSyncdisk/Edith/墨小孔实习/resband/resistance_band/LIB\libCH57xBLE.a(gapbondmgr.o)
 .sbss.gapBond_Peri_KeyDistList
                0x0000000020004ecf        0x1 d:/BaiduSyncdisk/Edith/墨小孔实习/resband/resistance_band/LIB\libCH57xBLE.a(gapbondmgr.o)
 .sbss.gapBond_Peri_OOBDataFlag
                0x0000000020004ed0        0x1 d:/BaiduSyncdisk/Edith/墨小孔实习/resband/resistance_band/LIB\libCH57xBLE.a(gapbondmgr.o)
 *fill*         0x0000000020004ed1        0x3 
 .sbss.gapBond_Peri_Passcode
                0x0000000020004ed4        0x4 d:/BaiduSyncdisk/Edith/墨小孔实习/resband/resistance_band/LIB\libCH57xBLE.a(gapbondmgr.o)
 .sbss.gattCCFlag
                0x0000000020004ed8        0x1 d:/BaiduSyncdisk/Edith/墨小孔实习/resband/resistance_band/LIB\libCH57xBLE.a(gapbondmgr.o)
 *fill*         0x0000000020004ed9        0x3 
 .sbss.pAttr.4293
                0x0000000020004edc        0x4 d:/BaiduSyncdisk/Edith/墨小孔实习/resband/resistance_band/LIB\libCH57xBLE.a(gapbondmgr.o)
 .sbss.pAuthEvt
                0x0000000020004ee0        0x4 d:/BaiduSyncdisk/Edith/墨小孔实习/resband/resistance_band/LIB\libCH57xBLE.a(gapbondmgr.o)
 .sbss.pGapBondCB
                0x0000000020004ee4        0x4 d:/BaiduSyncdisk/Edith/墨小孔实习/resband/resistance_band/LIB\libCH57xBLE.a(gapbondmgr.o)
 .sbss.pGapCentBondCB
                0x0000000020004ee8        0x4 d:/BaiduSyncdisk/Edith/墨小孔实习/resband/resistance_band/LIB\libCH57xBLE.a(gapbondmgr.o)
 .sbss.pGapPeriBondCB
                0x0000000020004eec        0x4 d:/BaiduSyncdisk/Edith/墨小孔实习/resband/resistance_band/LIB\libCH57xBLE.a(gapbondmgr.o)
 .sbss.service.4294
                0x0000000020004ef0        0x2 d:/BaiduSyncdisk/Edith/墨小孔实习/resband/resistance_band/LIB\libCH57xBLE.a(gapbondmgr.o)
 *fill*         0x0000000020004ef2        0x2 
 .sbss.pGapRoles_AppCGs
                0x0000000020004ef4        0x4 d:/BaiduSyncdisk/Edith/墨小孔实习/resband/resistance_band/LIB\libCH57xBLE.a(peripheral.o)
 .sbss.gapMaxScanRes
                0x0000000020004ef8        0x1 d:/BaiduSyncdisk/Edith/墨小孔实习/resband/resistance_band/LIB\libCH57xBLE.a(role.o)
                0x0000000020004ef8                gapMaxScanRes
 .sbss.gapRole_AdvChanMap
                0x0000000020004ef9        0x1 d:/BaiduSyncdisk/Edith/墨小孔实习/resband/resistance_band/LIB\libCH57xBLE.a(role.o)
                0x0000000020004ef9                gapRole_AdvChanMap
 *fill*         0x0000000020004efa        0x2 
 .sbss.gapRole_AdvDirectAddr
                0x0000000020004efc        0x6 d:/BaiduSyncdisk/Edith/墨小孔实习/resband/resistance_band/LIB\libCH57xBLE.a(role.o)
                0x0000000020004efc                gapRole_AdvDirectAddr
 .sbss.gapRole_AdvDirectType
                0x0000000020004f02        0x1 d:/BaiduSyncdisk/Edith/墨小孔实习/resband/resistance_band/LIB\libCH57xBLE.a(role.o)
                0x0000000020004f02                gapRole_AdvDirectType
 .sbss.gapRole_AdvEventType
                0x0000000020004f03        0x1 d:/BaiduSyncdisk/Edith/墨小孔实习/resband/resistance_band/LIB\libCH57xBLE.a(role.o)
                0x0000000020004f03                gapRole_AdvEventType
 .sbss.gapRole_AdvFilterPolicy
                0x0000000020004f04        0x1 d:/BaiduSyncdisk/Edith/墨小孔实习/resband/resistance_band/LIB\libCH57xBLE.a(role.o)
                0x0000000020004f04                gapRole_AdvFilterPolicy
 *fill*         0x0000000020004f05        0x3 
 .sbss.gapRole_AdvertData
                0x0000000020004f08        0x4 d:/BaiduSyncdisk/Edith/墨小孔实习/resband/resistance_band/LIB\libCH57xBLE.a(role.o)
                0x0000000020004f08                gapRole_AdvertData
 .sbss.gapRole_MasterAndSlave
                0x0000000020004f0c        0x1 d:/BaiduSyncdisk/Edith/墨小孔实习/resband/resistance_band/LIB\libCH57xBLE.a(role.o)
                0x0000000020004f0c                gapRole_MasterAndSlave
 *fill*         0x0000000020004f0d        0x3 
 .sbss.gapRole_ScanRspData
                0x0000000020004f10        0x4 d:/BaiduSyncdisk/Edith/墨小孔实习/resband/resistance_band/LIB\libCH57xBLE.a(role.o)
                0x0000000020004f10                gapRole_ScanRspData
 .sbss.gapRole_ScanRspDataLen
                0x0000000020004f14        0x1 d:/BaiduSyncdisk/Edith/墨小孔实习/resband/resistance_band/LIB\libCH57xBLE.a(role.o)
                0x0000000020004f14                gapRole_ScanRspDataLen
 .sbss.gapRole_TaskID
                0x0000000020004f15        0x1 d:/BaiduSyncdisk/Edith/墨小孔实习/resband/resistance_band/LIB\libCH57xBLE.a(role.o)
                0x0000000020004f15                gapRole_TaskID
 *fill*         0x0000000020004f16        0x2 
 .sbss.gapRole_bdAddr
                0x0000000020004f18        0x6 d:/BaiduSyncdisk/Edith/墨小孔实习/resband/resistance_band/LIB\libCH57xBLE.a(role.o)
                0x0000000020004f18                gapRole_bdAddr
 .sbss.gapRole_profileRole
                0x0000000020004f1e        0x1 d:/BaiduSyncdisk/Edith/墨小孔实习/resband/resistance_band/LIB\libCH57xBLE.a(role.o)
                0x0000000020004f1e                gapRole_profileRole
 *fill*         0x0000000020004f1f        0x1 
 .sbss.gapRole_signCounter
                0x0000000020004f20        0x4 d:/BaiduSyncdisk/Edith/墨小孔实习/resband/resistance_band/LIB\libCH57xBLE.a(role.o)
                0x0000000020004f20                gapRole_signCounter
 .sbss.gapRole_state
                0x0000000020004f24        0x4 d:/BaiduSyncdisk/Edith/墨小孔实习/resband/resistance_band/LIB\libCH57xBLE.a(role.o)
                0x0000000020004f24                gapRole_state
 .sbss.MemCtlEnd
                0x0000000020004f28        0x4 d:/BaiduSyncdisk/Edith/墨小孔实习/resband/resistance_band/LIB\libCH57xBLE.a(memory.o)
                0x0000000020004f28                MemCtlEnd
 .sbss.MemCtlPartition
                0x0000000020004f2c        0x4 d:/BaiduSyncdisk/Edith/墨小孔实习/resband/resistance_band/LIB\libCH57xBLE.a(memory.o)
                0x0000000020004f2c                MemCtlPartition
 .sbss.MemCtlStart
                0x0000000020004f30        0x4 d:/BaiduSyncdisk/Edith/墨小孔实习/resband/resistance_band/LIB\libCH57xBLE.a(memory.o)
                0x0000000020004f30                MemCtlStart
 .sbss.attClientNotifyTxCB
                0x0000000020004f34        0x4 d:/BaiduSyncdisk/Edith/墨小孔实习/resband/resistance_band/LIB\libCH57xBLE.a(att.o)
                0x0000000020004f34                attClientNotifyTxCB
 .sbss.attServerNotifyTxCB
                0x0000000020004f38        0x4 d:/BaiduSyncdisk/Edith/墨小孔实习/resband/resistance_band/LIB\libCH57xBLE.a(att.o)
                0x0000000020004f38                attServerNotifyTxCB
 .sbss.pfnAdvertiseEventCBs
                0x0000000020004f3c        0x4 d:/BaiduSyncdisk/Edith/墨小孔实习/resband/resistance_band/LIB\libCH57xBLE.a(ll_advertise.o)
                0x0000000020004f3c                pfnAdvertiseEventCBs
 .sbss.pGapRoles_AppCGs
                0x0000000020004f40        0x4 d:/BaiduSyncdisk/Edith/墨小孔实习/resband/resistance_band/LIB\libCH57xBLE.a(broadcaster.o)
                0x0000000020004f40                pGapRoles_AppCGs
 *(.gnu.linkonce.sb.*)
 *(.bss*)
 .bss.battLevelClientCharCfg
                0x0000000020004f44       0x10 ./Profile/battservice.o
 .bss.resBandMeasClientCharCfg
                0x0000000020004f54       0x10 ./Profile/resbandservice.o
 .bss.HalLedStatusControl
                0x0000000020004f64       0x34 ./HAL/LED.o
 .bss.MEM_BUF   0x0000000020004f98     0x1800 ./APP/resband_main.o
                0x0000000020004f98                MEM_BUF
 .bss.ble       0x0000000020006798       0x3c d:/BaiduSyncdisk/Edith/墨小孔实习/resband/resistance_band/LIB\libCH57xBLE.a(tmos.o)
                0x0000000020006798                ble
 .bss.gTmosPara
                0x00000000200067d4       0x24 d:/BaiduSyncdisk/Edith/墨小孔实习/resband/resistance_band/LIB\libCH57xBLE.a(tmos.o)
                0x00000000200067d4                gTmosPara
 .bss.pfnProcessCBs
                0x00000000200067f8       0x1c d:/BaiduSyncdisk/Edith/墨小孔实习/resband/resistance_band/LIB\libCH57xBLE.a(tmos.o)
                0x00000000200067f8                pfnProcessCBs
 .bss.gapParameters
                0x0000000020006814       0x36 d:/BaiduSyncdisk/Edith/墨小孔实习/resband/resistance_band/LIB\libCH57xBLE.a(gap.o)
                0x0000000020006814                gapParameters
 *fill*         0x000000002000684a        0x2 
 .bss.gapParams
                0x000000002000684c       0x20 d:/BaiduSyncdisk/Edith/墨小孔实习/resband/resistance_band/LIB\libCH57xBLE.a(gap.o)
                0x000000002000684c                gapParams
 .bss.gapCentralCBs
                0x000000002000686c        0xc d:/BaiduSyncdisk/Edith/墨小孔实习/resband/resistance_band/LIB\libCH57xBLE.a(gap_central.o)
                0x000000002000686c                gapCentralCBs
 .bss.gapPeripheralCBs
                0x0000000020006878        0xc d:/BaiduSyncdisk/Edith/墨小孔实习/resband/resistance_band/LIB\libCH57xBLE.a(gap_peripheral.o)
 .bss.deviceName
                0x0000000020006884       0x16 d:/BaiduSyncdisk/Edith/墨小孔实习/resband/resistance_band/LIB\libCH57xBLE.a(gapgattserver.o)
 *fill*         0x000000002000689a        0x2 
 .bss.rsp       0x000000002000689c       0x18 d:/BaiduSyncdisk/Edith/墨小孔实习/resband/resistance_band/LIB\libCH57xBLE.a(gattservapp.o)
 .bss.l2capFixedChannels
                0x00000000200068b4       0x30 d:/BaiduSyncdisk/Edith/墨小孔实习/resband/resistance_band/LIB\libCH57xBLE.a(l2cap.o)
                0x00000000200068b4                l2capFixedChannels
 .bss.linkCBs   0x00000000200068e4       0x30 d:/BaiduSyncdisk/Edith/墨小孔实习/resband/resistance_band/LIB\libCH57xBLE.a(linkdb.o)
                0x00000000200068e4                linkCBs
 .bss.gBleIPPara
                0x0000000020006914       0x1c d:/BaiduSyncdisk/Edith/墨小孔实习/resband/resistance_band/LIB\libCH57xBLE.a(ip.o)
                0x0000000020006914                gBleIPPara
 .bss.rfConfig  0x0000000020006930       0x20 d:/BaiduSyncdisk/Edith/墨小孔实习/resband/resistance_band/LIB\libCH57xBLE.a(ip.o)
                0x0000000020006930                rfConfig
 .bss.rfInfo    0x0000000020006950       0x1c d:/BaiduSyncdisk/Edith/墨小孔实习/resband/resistance_band/LIB\libCH57xBLE.a(rf_fh.o)
                0x0000000020006950                rfInfo
 .bss.gapBond_Cent_OOBData
                0x000000002000696c       0x10 d:/BaiduSyncdisk/Edith/墨小孔实习/resband/resistance_band/LIB\libCH57xBLE.a(gapbondmgr.o)
 .bss.gapBond_Peri_OOBData
                0x000000002000697c       0x10 d:/BaiduSyncdisk/Edith/墨小孔实习/resband/resistance_band/LIB\libCH57xBLE.a(gapbondmgr.o)
 .bss.gapRole_IRK
                0x000000002000698c       0x10 d:/BaiduSyncdisk/Edith/墨小孔实习/resband/resistance_band/LIB\libCH57xBLE.a(role.o)
                0x000000002000698c                gapRole_IRK
 .bss.gapRole_OldIRK
                0x000000002000699c       0x10 d:/BaiduSyncdisk/Edith/墨小孔实习/resband/resistance_band/LIB\libCH57xBLE.a(role.o)
                0x000000002000699c                gapRole_OldIRK
 .bss.gapRole_OldSRK
                0x00000000200069ac       0x10 d:/BaiduSyncdisk/Edith/墨小孔实习/resband/resistance_band/LIB\libCH57xBLE.a(role.o)
                0x00000000200069ac                gapRole_OldSRK
 .bss.gapRole_SRK
                0x00000000200069bc       0x10 d:/BaiduSyncdisk/Edith/墨小孔实习/resband/resistance_band/LIB\libCH57xBLE.a(role.o)
                0x00000000200069bc                gapRole_SRK
 .bss.gBleLlPara
                0x00000000200069cc       0xac d:/BaiduSyncdisk/Edith/墨小孔实习/resband/resistance_band/LIB\libCH57xBLE.a(ll.o)
                0x00000000200069cc                gBleLlPara
 *(.gnu.linkonce.b.*)
 *(COMMON*)
                0x0000000020006a78                . = ALIGN (0x4)
                0x0000000020006a78                PROVIDE (_ebss = .)
                0x0000000020006a78                PROVIDE (_end = _ebss)
                [!provide]                        PROVIDE (end = .)

.stack          0x0000000020007e00      0x200
                0x0000000020007e00                PROVIDE (_heap_end = .)
                0x0000000020007e00                . = ALIGN (0x4)
                [!provide]                        PROVIDE (_susrstack = .)
                0x0000000020008000                . = (. + __stack_size)
 *fill*         0x0000000020007e00      0x200 
                0x0000000020008000                PROVIDE (_eusrstack = .)
OUTPUT(Resband.elf elf32-littleriscv)

.debug_info     0x0000000000000000    0x11087
 .debug_info    0x0000000000000000      0xed2 ./StdPeriphDriver/CH57x_adc.o
 .debug_info    0x0000000000000ed2     0x167b ./StdPeriphDriver/CH57x_clk.o
 .debug_info    0x000000000000254d      0xdae ./StdPeriphDriver/CH57x_gpio.o
 .debug_info    0x00000000000032fb     0x1374 ./StdPeriphDriver/CH57x_sys.o
 .debug_info    0x000000000000466f       0x22 ./Startup/startup_CH573.o
 .debug_info    0x0000000000004691     0x2346 ./Profile/battservice.o
 .debug_info    0x00000000000069d7     0x133e ./Profile/devinfoservice.o
 .debug_info    0x0000000000007d15     0x1511 ./Profile/resbandservice.o
 .debug_info    0x0000000000009226     0x12b7 ./HAL/LED.o
 .debug_info    0x000000000000a4dd     0x17e5 ./HAL/MCU.o
 .debug_info    0x000000000000bcc2      0xe8b ./HAL/RTC.o
 .debug_info    0x000000000000cb4d      0xe97 ./APP/OY8699.o
 .debug_info    0x000000000000d9e4     0x27ad ./APP/resband.o
 .debug_info    0x0000000000010191      0xef6 ./APP/resband_main.o

.debug_abbrev   0x0000000000000000     0x2c20
 .debug_abbrev  0x0000000000000000      0x2cf ./StdPeriphDriver/CH57x_adc.o
 .debug_abbrev  0x00000000000002cf      0x3ae ./StdPeriphDriver/CH57x_clk.o
 .debug_abbrev  0x000000000000067d      0x268 ./StdPeriphDriver/CH57x_gpio.o
 .debug_abbrev  0x00000000000008e5      0x392 ./StdPeriphDriver/CH57x_sys.o
 .debug_abbrev  0x0000000000000c77       0x12 ./Startup/startup_CH573.o
 .debug_abbrev  0x0000000000000c89      0x4eb ./Profile/battservice.o
 .debug_abbrev  0x0000000000001174      0x2cc ./Profile/devinfoservice.o
 .debug_abbrev  0x0000000000001440      0x41c ./Profile/resbandservice.o
 .debug_abbrev  0x000000000000185c      0x3a7 ./HAL/LED.o
 .debug_abbrev  0x0000000000001c03      0x41e ./HAL/MCU.o
 .debug_abbrev  0x0000000000002021      0x2ab ./HAL/RTC.o
 .debug_abbrev  0x00000000000022cc      0x2d3 ./APP/OY8699.o
 .debug_abbrev  0x000000000000259f      0x40a ./APP/resband.o
 .debug_abbrev  0x00000000000029a9      0x277 ./APP/resband_main.o

.debug_loc      0x0000000000000000     0x2dfc
 .debug_loc     0x0000000000000000      0x1f2 ./StdPeriphDriver/CH57x_adc.o
 .debug_loc     0x00000000000001f2      0xb65 ./StdPeriphDriver/CH57x_clk.o
 .debug_loc     0x0000000000000d57      0x361 ./StdPeriphDriver/CH57x_gpio.o
 .debug_loc     0x00000000000010b8      0x227 ./StdPeriphDriver/CH57x_sys.o
 .debug_loc     0x00000000000012df      0x6d8 ./Profile/battservice.o
 .debug_loc     0x00000000000019b7      0x35c ./Profile/devinfoservice.o
 .debug_loc     0x0000000000001d13      0x405 ./Profile/resbandservice.o
 .debug_loc     0x0000000000002118      0x610 ./HAL/LED.o
 .debug_loc     0x0000000000002728      0x2ac ./HAL/MCU.o
 .debug_loc     0x00000000000029d4       0xee ./APP/OY8699.o
 .debug_loc     0x0000000000002ac2      0x33a ./APP/resband.o

.debug_aranges  0x0000000000000000      0x4a8
 .debug_aranges
                0x0000000000000000       0x70 ./StdPeriphDriver/CH57x_adc.o
 .debug_aranges
                0x0000000000000070       0xb0 ./StdPeriphDriver/CH57x_clk.o
 .debug_aranges
                0x0000000000000120       0x48 ./StdPeriphDriver/CH57x_gpio.o
 .debug_aranges
                0x0000000000000168       0x88 ./StdPeriphDriver/CH57x_sys.o
 .debug_aranges
                0x00000000000001f0       0x38 ./Startup/startup_CH573.o
 .debug_aranges
                0x0000000000000228       0x70 ./Profile/battservice.o
 .debug_aranges
                0x0000000000000298       0x38 ./Profile/devinfoservice.o
 .debug_aranges
                0x00000000000002d0       0x60 ./Profile/resbandservice.o
 .debug_aranges
                0x0000000000000330       0x58 ./HAL/LED.o
 .debug_aranges
                0x0000000000000388       0x50 ./HAL/MCU.o
 .debug_aranges
                0x00000000000003d8       0x30 ./HAL/RTC.o
 .debug_aranges
                0x0000000000000408       0x38 ./APP/OY8699.o
 .debug_aranges
                0x0000000000000440       0x40 ./APP/resband.o
 .debug_aranges
                0x0000000000000480       0x28 ./APP/resband_main.o

.debug_ranges   0x0000000000000000      0x5d8
 .debug_ranges  0x0000000000000000       0x60 ./StdPeriphDriver/CH57x_adc.o
 .debug_ranges  0x0000000000000060      0x150 ./StdPeriphDriver/CH57x_clk.o
 .debug_ranges  0x00000000000001b0       0x38 ./StdPeriphDriver/CH57x_gpio.o
 .debug_ranges  0x00000000000001e8       0x78 ./StdPeriphDriver/CH57x_sys.o
 .debug_ranges  0x0000000000000260       0x30 ./Startup/startup_CH573.o
 .debug_ranges  0x0000000000000290       0x78 ./Profile/battservice.o
 .debug_ranges  0x0000000000000308       0x28 ./Profile/devinfoservice.o
 .debug_ranges  0x0000000000000330       0x68 ./Profile/resbandservice.o
 .debug_ranges  0x0000000000000398       0x60 ./HAL/LED.o
 .debug_ranges  0x00000000000003f8       0x80 ./HAL/MCU.o
 .debug_ranges  0x0000000000000478       0x50 ./HAL/RTC.o
 .debug_ranges  0x00000000000004c8       0x58 ./APP/OY8699.o
 .debug_ranges  0x0000000000000520       0xa0 ./APP/resband.o
 .debug_ranges  0x00000000000005c0       0x18 ./APP/resband_main.o

.debug_line     0x0000000000000000     0x94d7
 .debug_line    0x0000000000000000      0x99b ./StdPeriphDriver/CH57x_adc.o
 .debug_line    0x000000000000099b     0x1f10 ./StdPeriphDriver/CH57x_clk.o
 .debug_line    0x00000000000028ab      0x848 ./StdPeriphDriver/CH57x_gpio.o
 .debug_line    0x00000000000030f3      0xe01 ./StdPeriphDriver/CH57x_sys.o
 .debug_line    0x0000000000003ef4      0x2be ./Startup/startup_CH573.o
 .debug_line    0x00000000000041b2      0xc32 ./Profile/battservice.o
 .debug_line    0x0000000000004de4      0x7f0 ./Profile/devinfoservice.o
 .debug_line    0x00000000000055d4      0x9a0 ./Profile/resbandservice.o
 .debug_line    0x0000000000005f74      0xc5b ./HAL/LED.o
 .debug_line    0x0000000000006bcf      0xba0 ./HAL/MCU.o
 .debug_line    0x000000000000776f      0x5a4 ./HAL/RTC.o
 .debug_line    0x0000000000007d13      0x633 ./APP/OY8699.o
 .debug_line    0x0000000000008346      0xcea ./APP/resband.o
 .debug_line    0x0000000000009030      0x4a7 ./APP/resband_main.o

.debug_str      0x0000000000000000     0x3225
 .debug_str     0x0000000000000000      0x9be ./StdPeriphDriver/CH57x_adc.o
                                        0xa43 (size before relaxing)
 .debug_str     0x00000000000009be      0x4c0 ./StdPeriphDriver/CH57x_clk.o
                                        0xc43 (size before relaxing)
 .debug_str     0x0000000000000e7e      0x18c ./StdPeriphDriver/CH57x_gpio.o
                                        0x91a (size before relaxing)
 .debug_str     0x000000000000100a      0x3cb ./StdPeriphDriver/CH57x_sys.o
                                        0xbaa (size before relaxing)
 .debug_str     0x00000000000013d5       0x52 ./Startup/startup_CH573.o
                                         0x9a (size before relaxing)
 .debug_str     0x0000000000001427      0xb63 ./Profile/battservice.o
                                       0x1354 (size before relaxing)
 .debug_str     0x0000000000001f8a      0x2cd ./Profile/devinfoservice.o
                                        0xd04 (size before relaxing)
 .debug_str     0x0000000000002257      0x231 ./Profile/resbandservice.o
                                        0xd13 (size before relaxing)
 .debug_str     0x0000000000002488      0x169 ./HAL/LED.o
                                        0xa76 (size before relaxing)
 .debug_str     0x00000000000025f1      0x413 ./HAL/MCU.o
                                        0xe92 (size before relaxing)
 .debug_str     0x0000000000002a04       0x72 ./HAL/RTC.o
                                        0x9f7 (size before relaxing)
 .debug_str     0x0000000000002a76       0xb6 ./APP/OY8699.o
                                        0x8a6 (size before relaxing)
 .debug_str     0x0000000000002b2c      0x6a3 ./APP/resband.o
                                       0x1694 (size before relaxing)
 .debug_str     0x00000000000031cf       0x56 ./APP/resband_main.o
                                        0xb5b (size before relaxing)

.comment        0x0000000000000000       0x33
 .comment       0x0000000000000000       0x33 ./StdPeriphDriver/CH57x_adc.o
                                         0x34 (size before relaxing)
 .comment       0x0000000000000033       0x34 ./StdPeriphDriver/CH57x_clk.o
 .comment       0x0000000000000033       0x34 ./StdPeriphDriver/CH57x_gpio.o
 .comment       0x0000000000000033       0x34 ./StdPeriphDriver/CH57x_sys.o
 .comment       0x0000000000000033       0x34 ./Profile/battservice.o
 .comment       0x0000000000000033       0x34 ./Profile/devinfoservice.o
 .comment       0x0000000000000033       0x34 ./Profile/resbandservice.o
 .comment       0x0000000000000033       0x34 ./HAL/LED.o
 .comment       0x0000000000000033       0x34 ./HAL/MCU.o
 .comment       0x0000000000000033       0x34 ./HAL/RTC.o
 .comment       0x0000000000000033       0x34 ./APP/OY8699.o
 .comment       0x0000000000000033       0x34 ./APP/resband.o
 .comment       0x0000000000000033       0x34 ./APP/resband_main.o
 .comment       0x0000000000000033       0x34 d:/BaiduSyncdisk/Edith/墨小孔实习/resband/SRC/StdPeriphDriver\libISP573.a(ISP573.o)
 .comment       0x0000000000000033       0x34 d:/BaiduSyncdisk/Edith/墨小孔实习/resband/resistance_band/LIB\libCH57xBLE.a(message.o)
 .comment       0x0000000000000033       0x34 d:/BaiduSyncdisk/Edith/墨小孔实习/resband/resistance_band/LIB\libCH57xBLE.a(tmos.o)
 .comment       0x0000000000000033       0x34 d:/BaiduSyncdisk/Edith/墨小孔实习/resband/resistance_band/LIB\libCH57xBLE.a(tmos_hw.o)
 .comment       0x0000000000000033       0x34 d:/BaiduSyncdisk/Edith/墨小孔实习/resband/resistance_band/LIB\libCH57xBLE.a(tmos_snv.o)
 .comment       0x0000000000000033       0x34 d:/BaiduSyncdisk/Edith/墨小孔实习/resband/resistance_band/LIB\libCH57xBLE.a(gap.o)
 .comment       0x0000000000000033       0x34 d:/BaiduSyncdisk/Edith/墨小孔实习/resband/resistance_band/LIB\libCH57xBLE.a(gap_central.o)
 .comment       0x0000000000000033       0x34 d:/BaiduSyncdisk/Edith/墨小孔实习/resband/resistance_band/LIB\libCH57xBLE.a(gap_peripheral.o)
 .comment       0x0000000000000033       0x34 d:/BaiduSyncdisk/Edith/墨小孔实习/resband/resistance_band/LIB\libCH57xBLE.a(gapgattserver.o)
 .comment       0x0000000000000033       0x34 d:/BaiduSyncdisk/Edith/墨小孔实习/resband/resistance_band/LIB\libCH57xBLE.a(gatt.o)
 .comment       0x0000000000000033       0x34 d:/BaiduSyncdisk/Edith/墨小孔实习/resband/resistance_band/LIB\libCH57xBLE.a(gatt_uuid.o)
 .comment       0x0000000000000033       0x34 d:/BaiduSyncdisk/Edith/墨小孔实习/resband/resistance_band/LIB\libCH57xBLE.a(gattservapp.o)
 .comment       0x0000000000000033       0x34 d:/BaiduSyncdisk/Edith/墨小孔实习/resband/resistance_band/LIB\libCH57xBLE.a(l2cap.o)
 .comment       0x0000000000000033       0x34 d:/BaiduSyncdisk/Edith/墨小孔实习/resband/resistance_band/LIB\libCH57xBLE.a(l2cap_input.o)
 .comment       0x0000000000000033       0x34 d:/BaiduSyncdisk/Edith/墨小孔实习/resband/resistance_band/LIB\libCH57xBLE.a(l2cap_output.o)
 .comment       0x0000000000000033       0x34 d:/BaiduSyncdisk/Edith/墨小孔实习/resband/resistance_band/LIB\libCH57xBLE.a(l2cap_sdu.o)
 .comment       0x0000000000000033       0x34 d:/BaiduSyncdisk/Edith/墨小孔实习/resband/resistance_band/LIB\libCH57xBLE.a(linkdb.o)
 .comment       0x0000000000000033       0x34 d:/BaiduSyncdisk/Edith/墨小孔实习/resband/resistance_band/LIB\libCH57xBLE.a(sm.o)
 .comment       0x0000000000000033       0x34 d:/BaiduSyncdisk/Edith/墨小孔实习/resband/resistance_band/LIB\libCH57xBLE.a(host_input.o)
 .comment       0x0000000000000033       0x34 d:/BaiduSyncdisk/Edith/墨小孔实习/resband/resistance_band/LIB\libCH57xBLE.a(host_output.o)
 .comment       0x0000000000000033       0x34 d:/BaiduSyncdisk/Edith/墨小孔实习/resband/resistance_band/LIB\libCH57xBLE.a(ll_connect.o)
 .comment       0x0000000000000033       0x34 d:/BaiduSyncdisk/Edith/墨小孔实习/resband/resistance_band/LIB\libCH57xBLE.a(ll_core.o)
 .comment       0x0000000000000033       0x34 d:/BaiduSyncdisk/Edith/墨小孔实习/resband/resistance_band/LIB\libCH57xBLE.a(ll_hop.o)
 .comment       0x0000000000000033       0x34 d:/BaiduSyncdisk/Edith/墨小孔实习/resband/resistance_band/LIB\libCH57xBLE.a(ll_master.o)
 .comment       0x0000000000000033       0x34 d:/BaiduSyncdisk/Edith/墨小孔实习/resband/resistance_band/LIB\libCH57xBLE.a(ll_pdu.o)
 .comment       0x0000000000000033       0x34 d:/BaiduSyncdisk/Edith/墨小孔实习/resband/resistance_band/LIB\libCH57xBLE.a(ll_report.o)
 .comment       0x0000000000000033       0x34 d:/BaiduSyncdisk/Edith/墨小孔实习/resband/resistance_band/LIB\libCH57xBLE.a(ll_scan.o)
 .comment       0x0000000000000033       0x34 d:/BaiduSyncdisk/Edith/墨小孔实习/resband/resistance_band/LIB\libCH57xBLE.a(ll_slave.o)
 .comment       0x0000000000000033       0x34 d:/BaiduSyncdisk/Edith/墨小孔实习/resband/resistance_band/LIB\libCH57xBLE.a(ll_whitelist.o)
 .comment       0x0000000000000033       0x34 d:/BaiduSyncdisk/Edith/墨小孔实习/resband/resistance_band/LIB\libCH57xBLE.a(aes.o)
 .comment       0x0000000000000033       0x34 d:/BaiduSyncdisk/Edith/墨小孔实习/resband/resistance_band/LIB\libCH57xBLE.a(bb.o)
 .comment       0x0000000000000033       0x34 d:/BaiduSyncdisk/Edith/墨小孔实习/resband/resistance_band/LIB\libCH57xBLE.a(dma.o)
 .comment       0x0000000000000033       0x34 d:/BaiduSyncdisk/Edith/墨小孔实习/resband/resistance_band/LIB\libCH57xBLE.a(ip.o)
 .comment       0x0000000000000033       0x34 d:/BaiduSyncdisk/Edith/墨小孔实习/resband/resistance_band/LIB\libCH57xBLE.a(lle.o)
 .comment       0x0000000000000033       0x34 d:/BaiduSyncdisk/Edith/墨小孔实习/resband/resistance_band/LIB\libCH57xBLE.a(rf_fh.o)
 .comment       0x0000000000000033       0x34 d:/BaiduSyncdisk/Edith/墨小孔实习/resband/resistance_band/LIB\libCH57xBLE.a(rfend.o)
 .comment       0x0000000000000033       0x34 d:/BaiduSyncdisk/Edith/墨小孔实习/resband/resistance_band/LIB\libCH57xBLE.a(api_c.o)
 .comment       0x0000000000000033       0x34 d:/BaiduSyncdisk/Edith/墨小孔实习/resband/resistance_band/LIB\libCH57xBLE.a(ctl_input.o)
 .comment       0x0000000000000033       0x34 d:/BaiduSyncdisk/Edith/墨小孔实习/resband/resistance_band/LIB\libCH57xBLE.a(ctl_output.o)
 .comment       0x0000000000000033       0x34 d:/BaiduSyncdisk/Edith/墨小孔实习/resband/resistance_band/LIB\libCH57xBLE.a(gapbondmgr.o)
 .comment       0x0000000000000033       0x34 d:/BaiduSyncdisk/Edith/墨小孔实习/resband/resistance_band/LIB\libCH57xBLE.a(peripheral.o)
 .comment       0x0000000000000033       0x34 d:/BaiduSyncdisk/Edith/墨小孔实习/resband/resistance_band/LIB\libCH57xBLE.a(role.o)
 .comment       0x0000000000000033       0x34 d:/BaiduSyncdisk/Edith/墨小孔实习/resband/resistance_band/LIB\libCH57xBLE.a(memory.o)
 .comment       0x0000000000000033       0x34 d:/BaiduSyncdisk/Edith/墨小孔实习/resband/resistance_band/LIB\libCH57xBLE.a(att.o)
 .comment       0x0000000000000033       0x34 d:/BaiduSyncdisk/Edith/墨小孔实习/resband/resistance_band/LIB\libCH57xBLE.a(att_server.o)
 .comment       0x0000000000000033       0x34 d:/BaiduSyncdisk/Edith/墨小孔实习/resband/resistance_band/LIB\libCH57xBLE.a(ll.o)
 .comment       0x0000000000000033       0x34 d:/BaiduSyncdisk/Edith/墨小孔实习/resband/resistance_band/LIB\libCH57xBLE.a(ll_advertise.o)
 .comment       0x0000000000000033       0x34 d:/BaiduSyncdisk/Edith/墨小孔实习/resband/resistance_band/LIB\libCH57xBLE.a(ll_initiate.o)
 .comment       0x0000000000000033       0x34 d:/BaiduSyncdisk/Edith/墨小孔实习/resband/resistance_band/LIB\libCH57xBLE.a(ll_resolvinglist.o)
 .comment       0x0000000000000033       0x34 d:/BaiduSyncdisk/Edith/墨小孔实习/resband/resistance_band/LIB\libCH57xBLE.a(broadcaster.o)
 .comment       0x0000000000000033       0x34 d:/BaiduSyncdisk/Edith/墨小孔实习/resband/resistance_band/LIB\libCH57xBLE.a(ll_address.o)

.debug_frame    0x0000000000000000      0xd44
 .debug_frame   0x0000000000000000       0xc0 ./StdPeriphDriver/CH57x_adc.o
 .debug_frame   0x00000000000000c0      0x204 ./StdPeriphDriver/CH57x_clk.o
 .debug_frame   0x00000000000002c4       0x70 ./StdPeriphDriver/CH57x_gpio.o
 .debug_frame   0x0000000000000334      0x114 ./StdPeriphDriver/CH57x_sys.o
 .debug_frame   0x0000000000000448      0x164 ./Profile/battservice.o
 .debug_frame   0x00000000000005ac       0x80 ./Profile/devinfoservice.o
 .debug_frame   0x000000000000062c      0x110 ./Profile/resbandservice.o
 .debug_frame   0x000000000000073c      0x154 ./HAL/LED.o
 .debug_frame   0x0000000000000890      0x10c ./HAL/MCU.o
 .debug_frame   0x000000000000099c       0x50 ./HAL/RTC.o
 .debug_frame   0x00000000000009ec       0xa0 ./APP/OY8699.o
 .debug_frame   0x0000000000000a8c       0xc4 ./APP/resband.o
 .debug_frame   0x0000000000000b50       0x40 ./APP/resband_main.o
 .debug_frame   0x0000000000000b90       0x20 d:/lenovosoftstore/install/mounriver_studio2/resources/app/resources/win32/components/wch/toolchain/risc-v embedded gcc/bin/../lib/gcc/riscv-none-embed/8.2.0/rv32imac/ilp32\libgcc.a(_lshrdi3.o)
 .debug_frame   0x0000000000000bb0       0x54 d:/lenovosoftstore/install/mounriver_studio2/resources/app/resources/win32/components/wch/toolchain/risc-v embedded gcc/bin/../lib/gcc/riscv-none-embed/8.2.0/rv32imac/ilp32\libgcc.a(muldf3.o)
 .debug_frame   0x0000000000000c04       0x38 d:/lenovosoftstore/install/mounriver_studio2/resources/app/resources/win32/components/wch/toolchain/risc-v embedded gcc/bin/../lib/gcc/riscv-none-embed/8.2.0/rv32imac/ilp32\libgcc.a(floatsidf.o)
 .debug_frame   0x0000000000000c3c       0x50 d:/lenovosoftstore/install/mounriver_studio2/resources/app/resources/win32/components/wch/toolchain/risc-v embedded gcc/bin/../lib/gcc/riscv-none-embed/8.2.0/rv32imac/ilp32\libgcc.a(mulsf3.o)
 .debug_frame   0x0000000000000c8c       0x20 d:/lenovosoftstore/install/mounriver_studio2/resources/app/resources/win32/components/wch/toolchain/risc-v embedded gcc/bin/../lib/gcc/riscv-none-embed/8.2.0/rv32imac/ilp32\libgcc.a(fixsfsi.o)
 .debug_frame   0x0000000000000cac       0x38 d:/lenovosoftstore/install/mounriver_studio2/resources/app/resources/win32/components/wch/toolchain/risc-v embedded gcc/bin/../lib/gcc/riscv-none-embed/8.2.0/rv32imac/ilp32\libgcc.a(floatsisf.o)
 .debug_frame   0x0000000000000ce4       0x20 d:/lenovosoftstore/install/mounriver_studio2/resources/app/resources/win32/components/wch/toolchain/risc-v embedded gcc/bin/../lib/gcc/riscv-none-embed/8.2.0/rv32imac/ilp32\libgcc.a(truncdfsf2.o)
 .debug_frame   0x0000000000000d04       0x20 d:/lenovosoftstore/install/mounriver_studio2/resources/app/resources/win32/components/wch/toolchain/risc-v embedded gcc/bin/../lib/gcc/riscv-none-embed/8.2.0/rv32imac/ilp32\libgcc.a(_clzsi2.o)
 .debug_frame   0x0000000000000d24       0x20 d:/lenovosoftstore/install/mounriver_studio2/resources/app/resources/win32/components/wch/toolchain/risc-v embedded gcc/bin/../lib/gcc/riscv-none-embed/8.2.0/../../../../riscv-none-embed/lib/rv32imac/ilp32\libg_nano.a(lib_a-memcpy.o)
